; Listing generated by Microsoft (R) Optimizing Compiler Version 19.29.30146.0 

	TITLE	D:\уник\кпо\лабораторные работы\лаба 1\laba1\laba1\Debug\laba1.obj
	.686P
	.XMM
	include listing.inc
	.model	flat

INCLUDELIB MSVCRTD
INCLUDELIB OLDNAMES

PUBLIC	___@@_PchSym_@00@UKmyKrwKmzKomKmzKorKmzKopUKmzKopKmzKokKmzKolUKmzKooKmzKozKmzKoyKmzKolKmyKrzKmzKozKmyKrxKmzKolKmyKrzKmzKomKmyKroKmzKouLKmyKrzKmzKozKmzKoyKmzKolKmyKrxKmyKroUKmzKooKmzKozKmzKoyKmzKozLBUozyzBUozyzBUwvyftUozyzBOlyq@4B2008FD98C1DD4
PUBLIC	?day1@@3HA					; day1
PUBLIC	?month1@@3HA					; month1
PUBLIC	?year1@@3HA					; year1
PUBLIC	?months@@3PAHA					; months
PUBLIC	?leapmonths@@3PAHA				; leapmonths
PUBLIC	?counting@@3HA					; counting
;	COMDAT ___@@_PchSym_@00@UKmyKrwKmzKomKmzKorKmzKopUKmzKopKmzKokKmzKolUKmzKooKmzKozKmzKoyKmzKolKmyKrzKmzKozKmyKrxKmzKolKmyKrzKmzKomKmyKroKmzKouLKmyKrzKmzKozKmzKoyKmzKolKmyKrxKmyKroUKmzKooKmzKozKmzKoyKmzKozLBUozyzBUozyzBUwvyftUozyzBOlyq@4B2008FD98C1DD4
_BSS	SEGMENT
___@@_PchSym_@00@UKmyKrwKmzKomKmzKorKmzKopUKmzKopKmzKokKmzKolUKmzKooKmzKozKmzKoyKmzKolKmyKrzKmzKozKmyKrxKmzKolKmyKrzKmzKomKmyKroKmzKouLKmyKrzKmzKozKmzKoyKmzKolKmyKrxKmyKroUKmzKooKmzKozKmzKoyKmzKozLBUozyzBUozyzBUwvyftUozyzBOlyq@4B2008FD98C1DD4 DD 01H DUP (?)
_BSS	ENDS
_BSS	SEGMENT
?day1@@3HA DD	01H DUP (?)				; day1
?month1@@3HA DD	01H DUP (?)				; month1
?year1@@3HA DD	01H DUP (?)				; year1
?counting@@3HA DD 01H DUP (?)				; counting
_BSS	ENDS
msvcjmc	SEGMENT
__98D8AB48_laba1@pch DB 01H
__97D3638F_vcruntime_new@h DB 01H
__741AE07E_corecrt_math@h DB 01H
__B49664B7_stdlib@h DB 01H
__244AF085_cstdlib DB 01H
__60BC708E_cmath DB 01H
__A2143F22_corecrt_stdio_config@h DB 01H
__829E1958_corecrt_wstdio@h DB 01H
__6DFAE8B8_stdio@h DB 01H
__1FEB9909_corecrt_memcpy_s@h DB 01H
__A751F051_corecrt_memory@h DB 01H
__9200769A_corecrt_wstring@h DB 01H
__32E5F013_string@h DB 01H
__C6E16F6F_corecrt_wconio@h DB 01H
__6D390390_corecrt_wio@h DB 01H
__1157D6BA_corecrt_wtime@h DB 01H
__1DC1E279_stat@h DB 01H
__93DC0B45_wchar@h DB 01H
__589FA321_type_traits DB 01H
__12269DE6_xutility DB 01H
__20BB4341_malloc@h DB 01H
__B0A13A33_vcruntime_exception@h DB 01H
__FF458F76_exception DB 01H
__7FE5F402_limits DB 01H
__79D216CD_xmemory DB 01H
__0D019051_xstring DB 01H
__760BB52B_stdexcept DB 01H
__A4685E82_xcall_once@h DB 01H
__A0B61CF9_time@h DB 01H
__DDB379A0_xthreads@h DB 01H
__14D0A8C0_atomic DB 01H
__1B354CA2_system_error DB 01H
__65ADBEC9_vcruntime_typeinfo@h DB 01H
__62F96EFF_typeinfo DB 01H
__C34BF88C_memory DB 01H
__EF0EAF83_xfacet DB 01H
__B2D2BA86_ctype@h DB 01H
__7D708D37_xlocinfo DB 01H
__D23FE460_xlocale DB 01H
__4495FA24_xiosbase DB 01H
__4CB88277_xlocnum DB 01H
__845859A3_ios DB 01H
__B7987E10_string DB 01H
__A2FF0B9E_istream DB 01H
__C12F3EA4_ostream DB 01H
__74AB0D97_streambuf DB 01H
__B30C2184_iosfwd DB 01H
__1347750E_utility DB 01H
__038A2AA6_iterator DB 01H
__E458E21C_xstddef DB 01H
__F54903A0_xatomic@h DB 01H
__92520C49_laba1@cpp DB 01H
msvcjmc	ENDS
_DATA	SEGMENT
?months@@3PAHA DD 01fH					; months
	DD	01cH
	DD	01fH
	DD	01eH
	DD	01fH
	DD	01eH
	DD	01fH
	DD	01fH
	DD	01eH
	DD	01fH
	DD	01eH
	DD	01fH
?leapmonths@@3PAHA DD 01fH				; leapmonths
	DD	01dH
	DD	01fH
	DD	01eH
	DD	01fH
	DD	01eH
	DD	01fH
	DD	01fH
	DD	01eH
	DD	01fH
	DD	01eH
	DD	01fH
_DATA	ENDS
PUBLIC	?__empty_global_delete@@YAXPAX@Z		; __empty_global_delete
PUBLIC	?__empty_global_delete@@YAXPAXI@Z		; __empty_global_delete
PUBLIC	??2@YAPAXIPAX@Z					; operator new
PUBLIC	??0exception@std@@QAE@QBDH@Z			; std::exception::exception
PUBLIC	??0exception@std@@QAE@ABV01@@Z			; std::exception::exception
PUBLIC	??1exception@std@@UAE@XZ			; std::exception::~exception
PUBLIC	?what@exception@std@@UBEPBDXZ			; std::exception::what
PUBLIC	??_Gexception@std@@UAEPAXI@Z			; std::exception::`scalar deleting destructor'
PUBLIC	??0bad_alloc@std@@AAE@QBD@Z			; std::bad_alloc::bad_alloc
PUBLIC	??1bad_alloc@std@@UAE@XZ			; std::bad_alloc::~bad_alloc
PUBLIC	??0bad_alloc@std@@QAE@ABV01@@Z			; std::bad_alloc::bad_alloc
PUBLIC	??_Gbad_alloc@std@@UAEPAXI@Z			; std::bad_alloc::`scalar deleting destructor'
PUBLIC	??0bad_array_new_length@std@@QAE@XZ		; std::bad_array_new_length::bad_array_new_length
PUBLIC	??1bad_array_new_length@std@@UAE@XZ		; std::bad_array_new_length::~bad_array_new_length
PUBLIC	??0bad_array_new_length@std@@QAE@ABV01@@Z	; std::bad_array_new_length::bad_array_new_length
PUBLIC	??_Gbad_array_new_length@std@@UAEPAXI@Z		; std::bad_array_new_length::`scalar deleting destructor'
PUBLIC	?_Throw_bad_array_new_length@std@@YAXXZ		; std::_Throw_bad_array_new_length
PUBLIC	?max@?$numeric_limits@H@std@@SAHXZ		; std::numeric_limits<int>::max
PUBLIC	?_Allocate@_Default_allocate_traits@std@@SAPAXI@Z ; std::_Default_allocate_traits::_Allocate
PUBLIC	?_Adjust_manually_vector_aligned@std@@YAXAAPAXAAI@Z ; std::_Adjust_manually_vector_aligned
PUBLIC	??0_Container_proxy@std@@QAE@PAU_Container_base12@1@@Z ; std::_Container_proxy::_Container_proxy
PUBLIC	??0_Container_base12@std@@QAE@XZ		; std::_Container_base12::_Container_base12
PUBLIC	?_Orphan_all@_Container_base12@std@@QAEXXZ	; std::_Container_base12::_Orphan_all
PUBLIC	?_Swap_proxy_and_iterators@_Container_base12@std@@QAEXAAU12@@Z ; std::_Container_base12::_Swap_proxy_and_iterators
PUBLIC	?_Orphan_all_unlocked_v3@_Container_base12@std@@AAEXXZ ; std::_Container_base12::_Orphan_all_unlocked_v3
PUBLIC	?_Swap_proxy_and_iterators_unlocked@_Container_base12@std@@AAEXAAU12@@Z ; std::_Container_base12::_Swap_proxy_and_iterators_unlocked
PUBLIC	?_Orphan_all_locked_v3@_Container_base12@std@@AAEXXZ ; std::_Container_base12::_Orphan_all_locked_v3
PUBLIC	?_Swap_proxy_and_iterators_locked@_Container_base12@std@@AAEXAAU12@@Z ; std::_Container_base12::_Swap_proxy_and_iterators_locked
PUBLIC	?_Release@_Basic_container_proxy_ptr12@std@@QAEXXZ ; std::_Basic_container_proxy_ptr12::_Release
PUBLIC	??0_Basic_container_proxy_ptr12@std@@IAE@XZ	; std::_Basic_container_proxy_ptr12::_Basic_container_proxy_ptr12
PUBLIC	??$addressof@U_Container_base12@std@@@std@@YAPAU_Container_base12@0@AAU10@@Z ; std::addressof<std::_Container_base12>
PUBLIC	??$_Construct_in_place@U_Container_proxy@std@@PAU_Container_base12@2@@std@@YAXAAU_Container_proxy@0@$$QAPAU_Container_base12@0@@Z ; std::_Construct_in_place<std::_Container_proxy,std::_Container_base12 *>
PUBLIC	?copy@?$_Char_traits@DH@std@@SAPADQADQBDI@Z	; std::_Char_traits<char,int>::copy
PUBLIC	?move@?$_Char_traits@DH@std@@SAPADQADQBDI@Z	; std::_Char_traits<char,int>::move
PUBLIC	?length@?$_Narrow_char_traits@DH@std@@SAIQBD@Z	; std::_Narrow_char_traits<char,int>::length
PUBLIC	?assign@?$_Narrow_char_traits@DH@std@@SAXAADABD@Z ; std::_Narrow_char_traits<char,int>::assign
PUBLIC	?to_char_type@?$_Narrow_char_traits@DH@std@@SADABH@Z ; std::_Narrow_char_traits<char,int>::to_char_type
PUBLIC	?eq_int_type@?$_Narrow_char_traits@DH@std@@SA_NABH0@Z ; std::_Narrow_char_traits<char,int>::eq_int_type
PUBLIC	?eof@?$_Narrow_char_traits@DH@std@@SAHXZ	; std::_Narrow_char_traits<char,int>::eof
PUBLIC	?_Xlen_string@std@@YAXXZ			; std::_Xlen_string
PUBLIC	??0?$allocator@D@std@@QAE@XZ			; std::allocator<char>::allocator<char>
PUBLIC	?deallocate@?$allocator@D@std@@QAEXQADI@Z	; std::allocator<char>::deallocate
PUBLIC	?allocate@?$allocator@D@std@@QAEPADI@Z		; std::allocator<char>::allocate
PUBLIC	?max_size@?$_Default_allocator_traits@V?$allocator@D@std@@@std@@SAIABV?$allocator@D@2@@Z ; std::_Default_allocator_traits<std::allocator<char> >::max_size
PUBLIC	??0?$_String_val@U?$_Simple_types@D@std@@@std@@QAE@XZ ; std::_String_val<std::_Simple_types<char> >::_String_val<std::_Simple_types<char> >
PUBLIC	?_Myptr@?$_String_val@U?$_Simple_types@D@std@@@std@@QAEPADXZ ; std::_String_val<std::_Simple_types<char> >::_Myptr
PUBLIC	?_Myptr@?$_String_val@U?$_Simple_types@D@std@@@std@@QBEPBDXZ ; std::_String_val<std::_Simple_types<char> >::_Myptr
PUBLIC	?_Large_string_engaged@?$_String_val@U?$_Simple_types@D@std@@@std@@QBE_NXZ ; std::_String_val<std::_Simple_types<char> >::_Large_string_engaged
PUBLIC	?_Check_offset@?$_String_val@U?$_Simple_types@D@std@@@std@@QBEXI@Z ; std::_String_val<std::_Simple_types<char> >::_Check_offset
PUBLIC	?_Xran@?$_String_val@U?$_Simple_types@D@std@@@std@@SAXXZ ; std::_String_val<std::_Simple_types<char> >::_Xran
PUBLIC	?_Clamp_suffix_size@?$_String_val@U?$_Simple_types@D@std@@@std@@QBEIII@Z ; std::_String_val<std::_Simple_types<char> >::_Clamp_suffix_size
PUBLIC	??0_Bxty@?$_String_val@U?$_Simple_types@D@std@@@std@@QAE@XZ ; std::_String_val<std::_Simple_types<char> >::_Bxty::_Bxty
PUBLIC	??1_Bxty@?$_String_val@U?$_Simple_types@D@std@@@std@@QAE@XZ ; std::_String_val<std::_Simple_types<char> >::_Bxty::~_Bxty
PUBLIC	??1?$_String_val@U?$_Simple_types@D@std@@@std@@QAE@XZ ; std::_String_val<std::_Simple_types<char> >::~_String_val<std::_Simple_types<char> >
PUBLIC	??0?$basic_string@DU?$char_traits@D@std@@V?$allocator@D@2@@std@@QAE@XZ ; std::basic_string<char,std::char_traits<char>,std::allocator<char> >::basic_string<char,std::char_traits<char>,std::allocator<char> >
PUBLIC	??0?$basic_string@DU?$char_traits@D@std@@V?$allocator@D@2@@std@@QAE@ABV01@IIABV?$allocator@D@1@@Z ; std::basic_string<char,std::char_traits<char>,std::allocator<char> >::basic_string<char,std::char_traits<char>,std::allocator<char> >
PUBLIC	?_Move_assign@?$basic_string@DU?$char_traits@D@std@@V?$allocator@D@2@@std@@AAEXAAV12@U_Equal_allocators@2@@Z ; std::basic_string<char,std::char_traits<char>,std::allocator<char> >::_Move_assign
PUBLIC	??4?$basic_string@DU?$char_traits@D@std@@V?$allocator@D@2@@std@@QAEAAV01@$$QAV01@@Z ; std::basic_string<char,std::char_traits<char>,std::allocator<char> >::operator=
PUBLIC	?_Memcpy_val_from@?$basic_string@DU?$char_traits@D@std@@V?$allocator@D@2@@std@@AAEXABV12@@Z ; std::basic_string<char,std::char_traits<char>,std::allocator<char> >::_Memcpy_val_from
PUBLIC	?_Take_contents@?$basic_string@DU?$char_traits@D@std@@V?$allocator@D@2@@std@@AAEXAAV12@@Z ; std::basic_string<char,std::char_traits<char>,std::allocator<char> >::_Take_contents
PUBLIC	??1?$basic_string@DU?$char_traits@D@std@@V?$allocator@D@2@@std@@QAE@XZ ; std::basic_string<char,std::char_traits<char>,std::allocator<char> >::~basic_string<char,std::char_traits<char>,std::allocator<char> >
PUBLIC	?assign@?$basic_string@DU?$char_traits@D@std@@V?$allocator@D@2@@std@@QAEAAV12@ABV12@II@Z ; std::basic_string<char,std::char_traits<char>,std::allocator<char> >::assign
PUBLIC	?assign@?$basic_string@DU?$char_traits@D@std@@V?$allocator@D@2@@std@@QAEAAV12@QBDI@Z ; std::basic_string<char,std::char_traits<char>,std::allocator<char> >::assign
PUBLIC	?erase@?$basic_string@DU?$char_traits@D@std@@V?$allocator@D@2@@std@@QAEAAV12@I@Z ; std::basic_string<char,std::char_traits<char>,std::allocator<char> >::erase
PUBLIC	?push_back@?$basic_string@DU?$char_traits@D@std@@V?$allocator@D@2@@std@@QAEXD@Z ; std::basic_string<char,std::char_traits<char>,std::allocator<char> >::push_back
PUBLIC	?c_str@?$basic_string@DU?$char_traits@D@std@@V?$allocator@D@2@@std@@QBEPBDXZ ; std::basic_string<char,std::char_traits<char>,std::allocator<char> >::c_str
PUBLIC	?data@?$basic_string@DU?$char_traits@D@std@@V?$allocator@D@2@@std@@QBEPBDXZ ; std::basic_string<char,std::char_traits<char>,std::allocator<char> >::data
PUBLIC	?size@?$basic_string@DU?$char_traits@D@std@@V?$allocator@D@2@@std@@QBEIXZ ; std::basic_string<char,std::char_traits<char>,std::allocator<char> >::size
PUBLIC	?max_size@?$basic_string@DU?$char_traits@D@std@@V?$allocator@D@2@@std@@QBEIXZ ; std::basic_string<char,std::char_traits<char>,std::allocator<char> >::max_size
PUBLIC	?substr@?$basic_string@DU?$char_traits@D@std@@V?$allocator@D@2@@std@@QBE?AV12@II@Z ; std::basic_string<char,std::char_traits<char>,std::allocator<char> >::substr
PUBLIC	?get_allocator@?$basic_string@DU?$char_traits@D@std@@V?$allocator@D@2@@std@@QBE?AV?$allocator@D@2@XZ ; std::basic_string<char,std::char_traits<char>,std::allocator<char> >::get_allocator
PUBLIC	?_Calculate_growth@?$basic_string@DU?$char_traits@D@std@@V?$allocator@D@2@@std@@CAIIII@Z ; std::basic_string<char,std::char_traits<char>,std::allocator<char> >::_Calculate_growth
PUBLIC	?_Calculate_growth@?$basic_string@DU?$char_traits@D@std@@V?$allocator@D@2@@std@@ABEII@Z ; std::basic_string<char,std::char_traits<char>,std::allocator<char> >::_Calculate_growth
PUBLIC	?_Eos@?$basic_string@DU?$char_traits@D@std@@V?$allocator@D@2@@std@@AAEXI@Z ; std::basic_string<char,std::char_traits<char>,std::allocator<char> >::_Eos
PUBLIC	?_Tidy_init@?$basic_string@DU?$char_traits@D@std@@V?$allocator@D@2@@std@@AAEXXZ ; std::basic_string<char,std::char_traits<char>,std::allocator<char> >::_Tidy_init
PUBLIC	?_Tidy_deallocate@?$basic_string@DU?$char_traits@D@std@@V?$allocator@D@2@@std@@AAEXXZ ; std::basic_string<char,std::char_traits<char>,std::allocator<char> >::_Tidy_deallocate
PUBLIC	?_Swap_proxy_and_iterators@?$basic_string@DU?$char_traits@D@std@@V?$allocator@D@2@@std@@AAEXAAV12@@Z ; std::basic_string<char,std::char_traits<char>,std::allocator<char> >::_Swap_proxy_and_iterators
PUBLIC	?_Getal@?$basic_string@DU?$char_traits@D@std@@V?$allocator@D@2@@std@@AAEAAV?$allocator@D@2@XZ ; std::basic_string<char,std::char_traits<char>,std::allocator<char> >::_Getal
PUBLIC	?_Getal@?$basic_string@DU?$char_traits@D@std@@V?$allocator@D@2@@std@@ABEABV?$allocator@D@2@XZ ; std::basic_string<char,std::char_traits<char>,std::allocator<char> >::_Getal
PUBLIC	?_Get_first@?$_Compressed_pair@V?$allocator@D@std@@V?$_String_val@U?$_Simple_types@D@std@@@2@$00@std@@QAEAAV?$allocator@D@2@XZ ; std::_Compressed_pair<std::allocator<char>,std::_String_val<std::_Simple_types<char> >,1>::_Get_first
PUBLIC	?_Get_first@?$_Compressed_pair@V?$allocator@D@std@@V?$_String_val@U?$_Simple_types@D@std@@@2@$00@std@@QBEABV?$allocator@D@2@XZ ; std::_Compressed_pair<std::allocator<char>,std::_String_val<std::_Simple_types<char> >,1>::_Get_first
PUBLIC	??1?$_Compressed_pair@V?$allocator@D@std@@V?$_String_val@U?$_Simple_types@D@std@@@2@$00@std@@QAE@XZ ; std::_Compressed_pair<std::allocator<char>,std::_String_val<std::_Simple_types<char> >,1>::~_Compressed_pair<std::allocator<char>,std::_String_val<std::_Simple_types<char> >,1>
PUBLIC	??0bad_cast@std@@QAE@XZ				; std::bad_cast::bad_cast
PUBLIC	??1bad_cast@std@@UAE@XZ				; std::bad_cast::~bad_cast
PUBLIC	??0bad_cast@std@@QAE@ABV01@@Z			; std::bad_cast::bad_cast
PUBLIC	??_Gbad_cast@std@@UAEPAXI@Z			; std::bad_cast::`scalar deleting destructor'
PUBLIC	?_Throw_bad_cast@std@@YAXXZ			; std::_Throw_bad_cast
PUBLIC	??1locale@std@@QAE@XZ				; std::locale::~locale
PUBLIC	?_Getfacet@locale@std@@QBEPBVfacet@12@I@Z	; std::locale::_Getfacet
PUBLIC	??$use_facet@V?$ctype@D@std@@@std@@YAABV?$ctype@D@0@ABVlocale@0@@Z ; std::use_facet<std::ctype<char> >
PUBLIC	?stoi@std@@YAHABV?$basic_string@DU?$char_traits@D@std@@V?$allocator@D@2@@1@PAIH@Z ; std::stoi
PUBLIC	??$min@I@std@@YAABIABI0@Z			; std::min<unsigned int>
PUBLIC	?allocate@?$allocator@U_Container_proxy@std@@@std@@QAEPAU_Container_proxy@2@I@Z ; std::allocator<std::_Container_proxy>::allocate
PUBLIC	??$_Delete_plain_internal@V?$allocator@U_Container_proxy@std@@@std@@@std@@YAXAAV?$allocator@U_Container_proxy@std@@@0@QAU_Container_proxy@0@@Z ; std::_Delete_plain_internal<std::allocator<std::_Container_proxy> >
PUBLIC	??0?$_Container_proxy_ptr12@V?$allocator@U_Container_proxy@std@@@std@@@std@@QAE@AAV?$allocator@U_Container_proxy@std@@@1@AAU_Container_base12@1@@Z ; std::_Container_proxy_ptr12<std::allocator<std::_Container_proxy> >::_Container_proxy_ptr12<std::allocator<std::_Container_proxy> >
PUBLIC	??1?$_Container_proxy_ptr12@V?$allocator@U_Container_proxy@std@@@std@@@std@@QAE@XZ ; std::_Container_proxy_ptr12<std::allocator<std::_Container_proxy> >::~_Container_proxy_ptr12<std::allocator<std::_Container_proxy> >
PUBLIC	??$_Alloc_proxy@V?$allocator@U_Container_proxy@std@@@std@@@_Container_base12@std@@QAEX$$QAV?$allocator@U_Container_proxy@std@@@1@@Z ; std::_Container_base12::_Alloc_proxy<std::allocator<std::_Container_proxy> >
PUBLIC	??$?0D@?$allocator@U_Container_proxy@std@@@std@@QAE@ABV?$allocator@D@1@@Z ; std::allocator<std::_Container_proxy>::allocator<std::_Container_proxy><char>
PUBLIC	??$move@AAV?$allocator@D@std@@@std@@YA$$QAV?$allocator@D@0@AAV10@@Z ; std::move<std::allocator<char> &>
PUBLIC	??$?0$$V@?$_Compressed_pair@V?$allocator@D@std@@V?$_String_val@U?$_Simple_types@D@std@@@2@$00@std@@QAE@U_Zero_then_variadic_args_t@1@@Z ; std::_Compressed_pair<std::allocator<char>,std::_String_val<std::_Simple_types<char> >,1>::_Compressed_pair<std::allocator<char>,std::_String_val<std::_Simple_types<char> >,1><>
PUBLIC	??$_Unfancy@U_Container_proxy@std@@@std@@YAPAU_Container_proxy@0@PAU10@@Z ; std::_Unfancy<std::_Container_proxy>
PUBLIC	??$_Destroy_in_place@PAD@std@@YAXAAPAD@Z	; std::_Destroy_in_place<char *>
PUBLIC	??R<lambda_15711c68e099a15a58f4d77303cb286d>@@QBE@QADQBDID@Z ; <lambda_15711c68e099a15a58f4d77303cb286d>::operator()
PUBLIC	??$_Reallocate_grow_by@V<lambda_15711c68e099a15a58f4d77303cb286d>@@D@?$basic_string@DU?$char_traits@D@std@@V?$allocator@D@2@@std@@AAEAAV01@IV<lambda_15711c68e099a15a58f4d77303cb286d>@@D@Z ; std::basic_string<char,std::char_traits<char>,std::allocator<char> >::_Reallocate_grow_by<<lambda_15711c68e099a15a58f4d77303cb286d>,char>
PUBLIC	??R<lambda_9366063389c5f42a00a5088cf24e69de>@@QBE@QADIQBD@Z ; <lambda_9366063389c5f42a00a5088cf24e69de>::operator()
PUBLIC	??$_Reallocate_for@V<lambda_9366063389c5f42a00a5088cf24e69de>@@PBD@?$basic_string@DU?$char_traits@D@std@@V?$allocator@D@2@@std@@AAEAAV01@IV<lambda_9366063389c5f42a00a5088cf24e69de>@@PBD@Z ; std::basic_string<char,std::char_traits<char>,std::allocator<char> >::_Reallocate_for<<lambda_9366063389c5f42a00a5088cf24e69de>,char const *>
PUBLIC	??$_Construct_in_place@PADABQAD@std@@YAXAAPADABQAD@Z ; std::_Construct_in_place<char *,char * const &>
PUBLIC	??$_Unfancy@D@std@@YAPADPAD@Z			; std::_Unfancy<char>
PUBLIC	??$_Construct_in_place@PADAAPAD@std@@YAXAAPAD0@Z ; std::_Construct_in_place<char *,char * &>
PUBLIC	??$max@I@std@@YAABIABI0@Z			; std::max<unsigned int>
PUBLIC	??$_Get_size_of_n@$07@std@@YAII@Z		; std::_Get_size_of_n<8>
PUBLIC	??$_Allocate@$07U_Default_allocate_traits@std@@$0A@@std@@YAPAXI@Z ; std::_Allocate<8,std::_Default_allocate_traits,0>
PUBLIC	??$_Deallocate@$07$0A@@std@@YAXPAXI@Z		; std::_Deallocate<8,0>
PUBLIC	??$addressof@V?$_String_val@U?$_Simple_types@D@std@@@std@@@std@@YAPAV?$_String_val@U?$_Simple_types@D@std@@@0@AAV10@@Z ; std::addressof<std::_String_val<std::_Simple_types<char> > >
PUBLIC	??$addressof@$$CBV?$_String_val@U?$_Simple_types@D@std@@@std@@@std@@YAPBV?$_String_val@U?$_Simple_types@D@std@@@0@ABV10@@Z ; std::addressof<std::_String_val<std::_Simple_types<char> > const >
PUBLIC	??$addressof@V?$basic_string@DU?$char_traits@D@std@@V?$allocator@D@2@@std@@@std@@YAPAV?$basic_string@DU?$char_traits@D@std@@V?$allocator@D@2@@0@AAV10@@Z ; std::addressof<std::basic_string<char,std::char_traits<char>,std::allocator<char> > >
PUBLIC	??$_Get_size_of_n@$00@std@@YAII@Z		; std::_Get_size_of_n<1>
PUBLIC	??$_Pocma@V?$allocator@D@std@@@std@@YAXAAV?$allocator@D@0@0@Z ; std::_Pocma<std::allocator<char> >
PUBLIC	??$addressof@U_Container_proxy@std@@@std@@YAPAU_Container_proxy@0@AAU10@@Z ; std::addressof<std::_Container_proxy>
PUBLIC	??$_Voidify_iter@PAU_Container_proxy@std@@@std@@YAPAXPAU_Container_proxy@0@@Z ; std::_Voidify_iter<std::_Container_proxy *>
PUBLIC	??$forward@PAU_Container_base12@std@@@std@@YA$$QAPAU_Container_base12@0@AAPAU10@@Z ; std::forward<std::_Container_base12 *>
PUBLIC	??R?$default_delete@V_Facet_base@std@@@std@@QBEXPAV_Facet_base@1@@Z ; std::default_delete<std::_Facet_base>::operator()
PUBLIC	??1?$unique_ptr@V_Facet_base@std@@U?$default_delete@V_Facet_base@std@@@2@@std@@QAE@XZ ; std::unique_ptr<std::_Facet_base,std::default_delete<std::_Facet_base> >::~unique_ptr<std::_Facet_base,std::default_delete<std::_Facet_base> >
PUBLIC	?release@?$unique_ptr@V_Facet_base@std@@U?$default_delete@V_Facet_base@std@@@2@@std@@QAEPAV_Facet_base@2@XZ ; std::unique_ptr<std::_Facet_base,std::default_delete<std::_Facet_base> >::release
PUBLIC	?_Get_first@?$_Compressed_pair@U?$default_delete@V_Facet_base@std@@@std@@PAV_Facet_base@2@$00@std@@QAEAAU?$default_delete@V_Facet_base@std@@@2@XZ ; std::_Compressed_pair<std::default_delete<std::_Facet_base>,std::_Facet_base *,1>::_Get_first
PUBLIC	?__autoclassinit2@?$unique_ptr@V_Facet_base@std@@U?$default_delete@V_Facet_base@std@@@2@@std@@QAEXI@Z ; std::unique_ptr<std::_Facet_base,std::default_delete<std::_Facet_base> >::__autoclassinit2
PUBLIC	??$?0U?$default_delete@V_Facet_base@std@@@std@@$0A@@?$unique_ptr@V_Facet_base@std@@U?$default_delete@V_Facet_base@std@@@2@@std@@QAE@PAV_Facet_base@1@@Z ; std::unique_ptr<std::_Facet_base,std::default_delete<std::_Facet_base> >::unique_ptr<std::_Facet_base,std::default_delete<std::_Facet_base> ><std::default_delete<std::_Facet_base>,0>
PUBLIC	??$_Deallocate_plain@V?$allocator@U_Container_proxy@std@@@std@@@std@@YAXAAV?$allocator@U_Container_proxy@std@@@0@QAU_Container_proxy@0@@Z ; std::_Deallocate_plain<std::allocator<std::_Container_proxy> >
PUBLIC	??$addressof@PAD@std@@YAPAPADAAPAD@Z		; std::addressof<char *>
PUBLIC	??$_Voidify_iter@PAPAD@std@@YAPAXPAPAD@Z	; std::_Voidify_iter<char * *>
PUBLIC	??$forward@ABQAD@std@@YAABQADABQAD@Z		; std::forward<char * const &>
PUBLIC	??$forward@AAPAD@std@@YAAAPADAAPAD@Z		; std::forward<char * &>
PUBLIC	??$_Allocate_manually_vector_aligned@U_Default_allocate_traits@std@@@std@@YAPAXI@Z ; std::_Allocate_manually_vector_aligned<std::_Default_allocate_traits>
PUBLIC	??$exchange@PAV_Facet_base@std@@$$T@std@@YAPAV_Facet_base@0@AAPAV10@$$QA$$T@Z ; std::exchange<std::_Facet_base *,std::nullptr_t>
PUBLIC	??$?0AAPAV_Facet_base@std@@@?$_Compressed_pair@U?$default_delete@V_Facet_base@std@@@std@@PAV_Facet_base@2@$00@std@@QAE@U_Zero_then_variadic_args_t@1@AAPAV_Facet_base@1@@Z ; std::_Compressed_pair<std::default_delete<std::_Facet_base>,std::_Facet_base *,1>::_Compressed_pair<std::default_delete<std::_Facet_base>,std::_Facet_base *,1><std::_Facet_base * &>
PUBLIC	??$?0ABV?$allocator@D@std@@$$V@?$_Compressed_pair@V?$allocator@D@std@@V?$_String_val@U?$_Simple_types@D@std@@@2@$00@std@@QAE@U_One_then_variadic_args_t@1@ABV?$allocator@D@1@@Z ; std::_Compressed_pair<std::allocator<char>,std::_String_val<std::_Simple_types<char> >,1>::_Compressed_pair<std::allocator<char>,std::_String_val<std::_Simple_types<char> >,1><std::allocator<char> const &>
PUBLIC	?deallocate@?$_Default_allocator_traits@V?$allocator@U_Container_proxy@std@@@std@@@std@@SAXAAV?$allocator@U_Container_proxy@std@@@2@QAU_Container_proxy@2@I@Z ; std::_Default_allocator_traits<std::allocator<std::_Container_proxy> >::deallocate
PUBLIC	??$forward@AAPAV_Facet_base@std@@@std@@YAAAPAV_Facet_base@0@AAPAV10@@Z ; std::forward<std::_Facet_base * &>
PUBLIC	??$forward@ABV?$allocator@D@std@@@std@@YAABV?$allocator@D@0@ABV10@@Z ; std::forward<std::allocator<char> const &>
PUBLIC	_main
PUBLIC	??$?6U?$char_traits@D@std@@@std@@YAAAV?$basic_ostream@DU?$char_traits@D@std@@@0@AAV10@PBD@Z ; std::operator<<<std::char_traits<char> >
PUBLIC	??$?5DU?$char_traits@D@std@@V?$allocator@D@1@@std@@YAAAV?$basic_istream@DU?$char_traits@D@std@@@0@AAV10@AAV?$basic_string@DU?$char_traits@D@std@@V?$allocator@D@2@@0@@Z ; std::operator>><char,std::char_traits<char>,std::allocator<char> >
PUBLIC	??$?5DU?$char_traits@D@std@@V?$allocator@D@1@@std@@YAAAV?$basic_istream@DU?$char_traits@D@std@@@0@$$QAV10@AAV?$basic_string@DU?$char_traits@D@std@@V?$allocator@D@2@@0@@Z ; std::operator>><char,std::char_traits<char>,std::allocator<char> >
PUBLIC	??$size@V?$basic_string@DU?$char_traits@D@std@@V?$allocator@D@2@@std@@@std@@YAIABV?$basic_string@DU?$char_traits@D@std@@V?$allocator@D@2@@0@@Z ; std::size<std::basic_string<char,std::char_traits<char>,std::allocator<char> > >
PUBLIC	??$endl@DU?$char_traits@D@std@@@std@@YAAAV?$basic_ostream@DU?$char_traits@D@std@@@0@AAV10@@Z ; std::endl<char,std::char_traits<char> >
PUBLIC	??$?6DU?$char_traits@D@std@@V?$allocator@D@1@@std@@YAAAV?$basic_ostream@DU?$char_traits@D@std@@@0@AAV10@ABV?$basic_string@DU?$char_traits@D@std@@V?$allocator@D@2@@0@@Z ; std::operator<<<char,std::char_traits<char>,std::allocator<char> >
PUBLIC	??0_Sentry_base@?$basic_ostream@DU?$char_traits@D@std@@@std@@QAE@AAV12@@Z ; std::basic_ostream<char,std::char_traits<char> >::_Sentry_base::_Sentry_base
PUBLIC	??1_Sentry_base@?$basic_ostream@DU?$char_traits@D@std@@@std@@QAE@XZ ; std::basic_ostream<char,std::char_traits<char> >::_Sentry_base::~_Sentry_base
PUBLIC	??0sentry@?$basic_ostream@DU?$char_traits@D@std@@@std@@QAE@AAV12@@Z ; std::basic_ostream<char,std::char_traits<char> >::sentry::sentry
PUBLIC	??1sentry@?$basic_ostream@DU?$char_traits@D@std@@@std@@QAE@XZ ; std::basic_ostream<char,std::char_traits<char> >::sentry::~sentry
PUBLIC	??Bsentry@?$basic_ostream@DU?$char_traits@D@std@@@std@@QBE_NXZ ; std::basic_ostream<char,std::char_traits<char> >::sentry::operator bool
PUBLIC	??$move@AAV?$basic_istream@DU?$char_traits@D@std@@@std@@@std@@YA$$QAV?$basic_istream@DU?$char_traits@D@std@@@0@AAV10@@Z ; std::move<std::basic_istream<char,std::char_traits<char> > &>
PUBLIC	??$_Insert_string@DU?$char_traits@D@std@@I@std@@YAAAV?$basic_ostream@DU?$char_traits@D@std@@@0@AAV10@QBDI@Z ; std::_Insert_string<char,std::char_traits<char>,unsigned int>
PUBLIC	??0_Sentry_base@?$basic_istream@DU?$char_traits@D@std@@@std@@QAE@AAV12@@Z ; std::basic_istream<char,std::char_traits<char> >::_Sentry_base::_Sentry_base
PUBLIC	??1_Sentry_base@?$basic_istream@DU?$char_traits@D@std@@@std@@QAE@XZ ; std::basic_istream<char,std::char_traits<char> >::_Sentry_base::~_Sentry_base
PUBLIC	??0sentry@?$basic_istream@DU?$char_traits@D@std@@@std@@QAE@AAV12@_N@Z ; std::basic_istream<char,std::char_traits<char> >::sentry::sentry
PUBLIC	??Bsentry@?$basic_istream@DU?$char_traits@D@std@@@std@@QBE_NXZ ; std::basic_istream<char,std::char_traits<char> >::sentry::operator bool
PUBLIC	??1sentry@?$basic_istream@DU?$char_traits@D@std@@@std@@QAE@XZ ; std::basic_istream<char,std::char_traits<char> >::sentry::~sentry
PUBLIC	__JustMyCode_Default
PUBLIC	??_7exception@std@@6B@				; std::exception::`vftable'
PUBLIC	??_C@_0BC@EOODALEL@Unknown?5exception@		; `string'
PUBLIC	??_7bad_alloc@std@@6B@				; std::bad_alloc::`vftable'
PUBLIC	??_7bad_array_new_length@std@@6B@		; std::bad_array_new_length::`vftable'
PUBLIC	??_C@_0BF@KINCDENJ@bad?5array?5new?5length@	; `string'
PUBLIC	__TI3?AVbad_array_new_length@std@@
PUBLIC	__CTA3?AVbad_array_new_length@std@@
PUBLIC	??_R0?AVbad_array_new_length@std@@@8		; std::bad_array_new_length `RTTI Type Descriptor'
PUBLIC	__CT??_R0?AVbad_array_new_length@std@@@8??0bad_array_new_length@std@@QAE@ABV01@@Z12
PUBLIC	??_R0?AVbad_alloc@std@@@8			; std::bad_alloc `RTTI Type Descriptor'
PUBLIC	__CT??_R0?AVbad_alloc@std@@@8??0bad_alloc@std@@QAE@ABV01@@Z12
PUBLIC	??_R0?AVexception@std@@@8			; std::exception `RTTI Type Descriptor'
PUBLIC	__CT??_R0?AVexception@std@@@8??0exception@std@@QAE@ABV01@@Z12
PUBLIC	?__LINE__Var@?0??_Adjust_manually_vector_aligned@std@@YAXAAPAXAAI@Z@4JA ; `std::_Adjust_manually_vector_aligned'::`1'::__LINE__Var
PUBLIC	??_C@_0BB@FCMFBGOM@invalid?5argument@		; `string'
PUBLIC	??_C@_02DKCKIIND@?$CFs@				; `string'
PUBLIC	??_C@_0GI@MNEMJBML@C?3?2Program?5Files?5?$CIx86?$CJ?2Microsof@ ; `string'
PUBLIC	??_C@_1NA@MJBOBEJL@?$AAC?$AA?3?$AA?2?$AAP?$AAr?$AAo?$AAg?$AAr?$AAa?$AAm?$AA?5?$AAF?$AAi?$AAl?$AAe@ ; `string'
PUBLIC	??_C@_11LOCGONAA@@				; `string'
PUBLIC	??_C@_1CG@JNLFBNGN@?$AA?$CC?$AAi?$AAn?$AAv?$AAa?$AAl?$AAi?$AAd?$AA?5?$AAa?$AAr?$AAg?$AAu?$AAm?$AAe@ ; `string'
PUBLIC	??_C@_0BA@JFNIOLAK@string?5too?5long@		; `string'
PUBLIC	??_7bad_cast@std@@6B@				; std::bad_cast::`vftable'
PUBLIC	??_C@_08EPJLHIJG@bad?5cast@			; `string'
PUBLIC	__TI2?AVbad_cast@std@@
PUBLIC	__CTA2?AVbad_cast@std@@
PUBLIC	??_R0?AVbad_cast@std@@@8			; std::bad_cast `RTTI Type Descriptor'
PUBLIC	__CT??_R0?AVbad_cast@std@@@8??0bad_cast@std@@QAE@ABV01@@Z12
PUBLIC	??_C@_0BG@HGEDEDEC@invalid?5stoi?5argument@	; `string'
PUBLIC	??_C@_0BL@MFFNMGGC@stoi?5argument?5out?5of?5range@ ; `string'
PUBLIC	??_C@_01LFCBOECM@?4@				; `string'
PUBLIC	??_C@_0BI@CFPLBAOH@invalid?5string?5position@	; `string'
PUBLIC	?_Psave@?$_Facetptr@V?$ctype@D@std@@@std@@2PBVfacet@locale@2@B ; std::_Facetptr<std::ctype<char> >::_Psave
PUBLIC	??_R4exception@std@@6B@				; std::exception::`RTTI Complete Object Locator'
PUBLIC	??_R3exception@std@@8				; std::exception::`RTTI Class Hierarchy Descriptor'
PUBLIC	??_R2exception@std@@8				; std::exception::`RTTI Base Class Array'
PUBLIC	??_R1A@?0A@EA@exception@std@@8			; std::exception::`RTTI Base Class Descriptor at (0,-1,0,64)'
PUBLIC	??_R4bad_alloc@std@@6B@				; std::bad_alloc::`RTTI Complete Object Locator'
PUBLIC	??_R3bad_alloc@std@@8				; std::bad_alloc::`RTTI Class Hierarchy Descriptor'
PUBLIC	??_R2bad_alloc@std@@8				; std::bad_alloc::`RTTI Base Class Array'
PUBLIC	??_R1A@?0A@EA@bad_alloc@std@@8			; std::bad_alloc::`RTTI Base Class Descriptor at (0,-1,0,64)'
PUBLIC	??_R4bad_array_new_length@std@@6B@		; std::bad_array_new_length::`RTTI Complete Object Locator'
PUBLIC	??_R3bad_array_new_length@std@@8		; std::bad_array_new_length::`RTTI Class Hierarchy Descriptor'
PUBLIC	??_R2bad_array_new_length@std@@8		; std::bad_array_new_length::`RTTI Base Class Array'
PUBLIC	??_R1A@?0A@EA@bad_array_new_length@std@@8	; std::bad_array_new_length::`RTTI Base Class Descriptor at (0,-1,0,64)'
PUBLIC	??_R4bad_cast@std@@6B@				; std::bad_cast::`RTTI Complete Object Locator'
PUBLIC	??_R3bad_cast@std@@8				; std::bad_cast::`RTTI Class Hierarchy Descriptor'
PUBLIC	??_R2bad_cast@std@@8				; std::bad_cast::`RTTI Base Class Array'
PUBLIC	??_R1A@?0A@EA@bad_cast@std@@8			; std::bad_cast::`RTTI Base Class Descriptor at (0,-1,0,64)'
PUBLIC	??_C@_02DNMOFBIA@Ru@				; `string'
PUBLIC	??_C@_0P@OJFPMJEG@?B?b?e?d?h?r?e?5?d?$OA?r?s?3?5@ ; `string'
PUBLIC	??_C@_0BI@MPECNJHM@?7?B?b?e?d?h?r?e?5?d?$OA?r?s?5?j?n?p?p?e?j?r?m?n@ ; `string'
PUBLIC	??_C@_0CD@BDOPLCLO@?B?b?e?d?h?r?e?5?j?n?c?d?$OA?5?s?5?b?$OA?q?5?d?e?m?$PM?5?p?n?f?d?e?m@ ; `string'
PUBLIC	??_C@_0CA@BCFAJOKN@?7?O?n?p?$PP?d?j?n?b?$PL?i?5?m?n?b?e?p?5?d?m?$PP?5?b?5?c?n?d?s?5?3?5@ ; `string'
PUBLIC	??_C@_0CH@KHPLGJFP@?D?m?e?i?5?d?n?5?b?$OA?x?e?c?n?5?d?m?$PP?5?p?n?f?d?e?m?h?$PP?5?n?q?r@ ; `string'
PUBLIC	??_C@_05PDJBBECF@pause@				; `string'
EXTRN	??2@YAPAXI@Z:PROC				; operator new
EXTRN	??3@YAXPAXI@Z:PROC				; operator delete
EXTRN	__imp___invalid_parameter:PROC
EXTRN	__imp___CrtDbgReport:PROC
EXTRN	__imp_??0_Lockit@std@@QAE@H@Z:PROC
EXTRN	__imp_??1_Lockit@std@@QAE@XZ:PROC
EXTRN	__imp___errno:PROC
EXTRN	__imp__strtol:PROC
EXTRN	__imp__system:PROC
EXTRN	_memcpy:PROC
EXTRN	_memmove:PROC
EXTRN	_strlen:PROC
EXTRN	?_Xinvalid_argument@std@@YAXPBD@Z:PROC		; std::_Xinvalid_argument
EXTRN	?_Xlength_error@std@@YAXPBD@Z:PROC		; std::_Xlength_error
EXTRN	?_Xout_of_range@std@@YAXPBD@Z:PROC		; std::_Xout_of_range
EXTRN	?uncaught_exception@std@@YA_NXZ:PROC		; std::uncaught_exception
EXTRN	___std_exception_copy:PROC
EXTRN	___std_exception_destroy:PROC
EXTRN	??_Eexception@std@@UAEPAXI@Z:PROC		; std::exception::`vector deleting destructor'
EXTRN	??_Ebad_alloc@std@@UAEPAXI@Z:PROC		; std::bad_alloc::`vector deleting destructor'
EXTRN	??_Ebad_array_new_length@std@@UAEPAXI@Z:PROC	; std::bad_array_new_length::`vector deleting destructor'
EXTRN	??_Ebad_cast@std@@UAEPAXI@Z:PROC		; std::bad_cast::`vector deleting destructor'
EXTRN	?_Facet_Register@std@@YAXPAV_Facet_base@1@@Z:PROC ; std::_Facet_Register
EXTRN	__imp__setlocale:PROC
EXTRN	__imp_??Bid@locale@std@@QAEIXZ:PROC
EXTRN	?_Getgloballocale@locale@std@@CAPAV_Locimp@12@XZ:PROC ; std::locale::_Getgloballocale
EXTRN	__imp_?is@?$ctype@D@std@@QBE_NFD@Z:PROC
EXTRN	__imp_?_Getcat@?$ctype@D@std@@SAIPAPBVfacet@locale@2@PBV42@@Z:PROC
EXTRN	__imp_?good@ios_base@std@@QBE_NXZ:PROC
EXTRN	__imp_?flags@ios_base@std@@QBEHXZ:PROC
EXTRN	__imp_?width@ios_base@std@@QBE_JXZ:PROC
EXTRN	__imp_?width@ios_base@std@@QAE_J_J@Z:PROC
EXTRN	__imp_?getloc@ios_base@std@@QBE?AVlocale@2@XZ:PROC
EXTRN	__imp_?sgetc@?$basic_streambuf@DU?$char_traits@D@std@@@std@@QAEHXZ:PROC
EXTRN	__imp_?snextc@?$basic_streambuf@DU?$char_traits@D@std@@@std@@QAEHXZ:PROC
EXTRN	__imp_?sputc@?$basic_streambuf@DU?$char_traits@D@std@@@std@@QAEHD@Z:PROC
EXTRN	__imp_?sputn@?$basic_streambuf@DU?$char_traits@D@std@@@std@@QAE_JPBD_J@Z:PROC
EXTRN	__imp_?setstate@?$basic_ios@DU?$char_traits@D@std@@@std@@QAEXH_N@Z:PROC
EXTRN	__imp_?tie@?$basic_ios@DU?$char_traits@D@std@@@std@@QBEPAV?$basic_ostream@DU?$char_traits@D@std@@@2@XZ:PROC
EXTRN	__imp_?rdbuf@?$basic_ios@DU?$char_traits@D@std@@@std@@QBEPAV?$basic_streambuf@DU?$char_traits@D@std@@@2@XZ:PROC
EXTRN	__imp_?fill@?$basic_ios@DU?$char_traits@D@std@@@std@@QBEDXZ:PROC
EXTRN	__imp_?widen@?$basic_ios@DU?$char_traits@D@std@@@std@@QBEDD@Z:PROC
EXTRN	__imp_?_Osfx@?$basic_ostream@DU?$char_traits@D@std@@@std@@QAEXXZ:PROC
EXTRN	__imp_??6?$basic_ostream@DU?$char_traits@D@std@@@std@@QAEAAV01@P6AAAV01@AAV01@@Z@Z:PROC
EXTRN	__imp_??6?$basic_ostream@DU?$char_traits@D@std@@@std@@QAEAAV01@H@Z:PROC
EXTRN	__imp_?put@?$basic_ostream@DU?$char_traits@D@std@@@std@@QAEAAV12@D@Z:PROC
EXTRN	__imp_?flush@?$basic_ostream@DU?$char_traits@D@std@@@std@@QAEAAV12@XZ:PROC
EXTRN	__imp_?_Ipfx@?$basic_istream@DU?$char_traits@D@std@@@std@@QAE_N_N@Z:PROC
EXTRN	?LeapYear@@YAXXZ:PROC				; LeapYear
EXTRN	?CountDay@@YAXXZ:PROC				; CountDay
EXTRN	@_RTC_CheckStackVars@8:PROC
EXTRN	@__CheckForDebuggerJustMyCode@4:PROC
EXTRN	@__security_check_cookie@4:PROC
EXTRN	__CxxThrowException@8:PROC
EXTRN	__RTC_CheckEsp:PROC
EXTRN	__RTC_InitBase:PROC
EXTRN	__RTC_Shutdown:PROC
EXTRN	___CxxFrameHandler3:PROC
EXTRN	_memset:PROC
EXTRN	??_7type_info@@6B@:QWORD			; type_info::`vftable'
EXTRN	__imp_?id@?$ctype@D@std@@2V0locale@2@A:DWORD
EXTRN	__imp_?cin@std@@3V?$basic_istream@DU?$char_traits@D@std@@@1@A:BYTE
EXTRN	__imp_?cout@std@@3V?$basic_ostream@DU?$char_traits@D@std@@@1@A:BYTE
EXTRN	___security_cookie:DWORD
;	COMDAT ?_Psave@?$_Facetptr@V?$ctype@D@std@@@std@@2PBVfacet@locale@2@B
_BSS	SEGMENT
?_Psave@?$_Facetptr@V?$ctype@D@std@@@std@@2PBVfacet@locale@2@B DD 01H DUP (?) ; std::_Facetptr<std::ctype<char> >::_Psave
_BSS	ENDS
;	COMDAT rtc$TMZ
rtc$TMZ	SEGMENT
__RTC_Shutdown.rtc$TMZ DD FLAT:__RTC_Shutdown
rtc$TMZ	ENDS
;	COMDAT rtc$IMZ
rtc$IMZ	SEGMENT
__RTC_InitBase.rtc$IMZ DD FLAT:__RTC_InitBase
rtc$IMZ	ENDS
;	COMDAT ??_C@_05PDJBBECF@pause@
CONST	SEGMENT
??_C@_05PDJBBECF@pause@ DB 'pause', 00H			; `string'
CONST	ENDS
;	COMDAT ??_C@_0CH@KHPLGJFP@?D?m?e?i?5?d?n?5?b?$OA?x?e?c?n?5?d?m?$PP?5?p?n?f?d?e?m?h?$PP?5?n?q?r@
CONST	SEGMENT
??_C@_0CH@KHPLGJFP@?D?m?e?i?5?d?n?5?b?$OA?x?e?c?n?5?d?m?$PP?5?p?n?f?d?e?m?h?$PP?5?n?q?r@ DB 0c4H
	DB	0edH, 0e5H, 0e9H, ' ', 0e4H, 0eeH, ' ', 0e2H, 0e0H, 0f8H, 0e5H
	DB	0e3H, 0eeH, ' ', 0e4H, 0edH, 0ffH, ' ', 0f0H, 0eeH, 0e6H, 0e4H
	DB	0e5H, 0edH, 0e8H, 0ffH, ' ', 0eeH, 0f1H, 0f2H, 0e0H, 0ebH, 0eeH
	DB	0f1H, 0fcH, ': ', 00H			; `string'
CONST	ENDS
;	COMDAT ??_C@_0CA@BCFAJOKN@?7?O?n?p?$PP?d?j?n?b?$PL?i?5?m?n?b?e?p?5?d?m?$PP?5?b?5?c?n?d?s?5?3?5@
CONST	SEGMENT
??_C@_0CA@BCFAJOKN@?7?O?n?p?$PP?d?j?n?b?$PL?i?5?m?n?b?e?p?5?d?m?$PP?5?b?5?c?n?d?s?5?3?5@ DB 09H
	DB	0cfH, 0eeH, 0f0H, 0ffH, 0e4H, 0eaH, 0eeH, 0e2H, 0fbH, 0e9H, ' '
	DB	0edH, 0eeH, 0e2H, 0e5H, 0f0H, ' ', 0e4H, 0edH, 0ffH, ' ', 0e2H
	DB	' ', 0e3H, 0eeH, 0e4H, 0f3H, ' : ', 00H	; `string'
CONST	ENDS
;	COMDAT ??_C@_0CD@BDOPLCLO@?B?b?e?d?h?r?e?5?j?n?c?d?$OA?5?s?5?b?$OA?q?5?d?e?m?$PM?5?p?n?f?d?e?m@
CONST	SEGMENT
??_C@_0CD@BDOPLCLO@?B?b?e?d?h?r?e?5?j?n?c?d?$OA?5?s?5?b?$OA?q?5?d?e?m?$PM?5?p?n?f?d?e?m@ DB 0c2H
	DB	0e2H, 0e5H, 0e4H, 0e8H, 0f2H, 0e5H, ' ', 0eaH, 0eeH, 0e3H, 0e4H
	DB	0e0H, ' ', 0f3H, ' ', 0e2H, 0e0H, 0f1H, ' ', 0e4H, 0e5H, 0edH, 0fcH
	DB	' ', 0f0H, 0eeH, 0e6H, 0e4H, 0e5H, 0edH, 0e8H, 0ffH, ' ', 00H ; `string'
CONST	ENDS
;	COMDAT ??_C@_0BI@MPECNJHM@?7?B?b?e?d?h?r?e?5?d?$OA?r?s?5?j?n?p?p?e?j?r?m?n@
CONST	SEGMENT
??_C@_0BI@MPECNJHM@?7?B?b?e?d?h?r?e?5?d?$OA?r?s?5?j?n?p?p?e?j?r?m?n@ DB 09H
	DB	0c2H, 0e2H, 0e5H, 0e4H, 0e8H, 0f2H, 0e5H, ' ', 0e4H, 0e0H, 0f2H
	DB	0f3H, ' ', 0eaH, 0eeH, 0f0H, 0f0H, 0e5H, 0eaH, 0f2H, 0edH, 0eeH
	DB	00H						; `string'
CONST	ENDS
;	COMDAT ??_C@_0P@OJFPMJEG@?B?b?e?d?h?r?e?5?d?$OA?r?s?3?5@
CONST	SEGMENT
??_C@_0P@OJFPMJEG@?B?b?e?d?h?r?e?5?d?$OA?r?s?3?5@ DB 0c2H, 0e2H, 0e5H, 0e4H
	DB	0e8H, 0f2H, 0e5H, ' ', 0e4H, 0e0H, 0f2H, 0f3H, ': ', 00H ; `string'
CONST	ENDS
;	COMDAT ??_C@_02DNMOFBIA@Ru@
CONST	SEGMENT
??_C@_02DNMOFBIA@Ru@ DB 'Ru', 00H			; `string'
CONST	ENDS
;	COMDAT ??_R1A@?0A@EA@bad_cast@std@@8
rdata$r	SEGMENT
??_R1A@?0A@EA@bad_cast@std@@8 DD FLAT:??_R0?AVbad_cast@std@@@8 ; std::bad_cast::`RTTI Base Class Descriptor at (0,-1,0,64)'
	DD	01H
	DD	00H
	DD	0ffffffffH
	DD	00H
	DD	040H
	DD	FLAT:??_R3bad_cast@std@@8
rdata$r	ENDS
;	COMDAT ??_R2bad_cast@std@@8
rdata$r	SEGMENT
??_R2bad_cast@std@@8 DD FLAT:??_R1A@?0A@EA@bad_cast@std@@8 ; std::bad_cast::`RTTI Base Class Array'
	DD	FLAT:??_R1A@?0A@EA@exception@std@@8
rdata$r	ENDS
;	COMDAT ??_R3bad_cast@std@@8
rdata$r	SEGMENT
??_R3bad_cast@std@@8 DD 00H				; std::bad_cast::`RTTI Class Hierarchy Descriptor'
	DD	00H
	DD	02H
	DD	FLAT:??_R2bad_cast@std@@8
rdata$r	ENDS
;	COMDAT ??_R4bad_cast@std@@6B@
rdata$r	SEGMENT
??_R4bad_cast@std@@6B@ DD 00H				; std::bad_cast::`RTTI Complete Object Locator'
	DD	00H
	DD	00H
	DD	FLAT:??_R0?AVbad_cast@std@@@8
	DD	FLAT:??_R3bad_cast@std@@8
rdata$r	ENDS
;	COMDAT ??_R1A@?0A@EA@bad_array_new_length@std@@8
rdata$r	SEGMENT
??_R1A@?0A@EA@bad_array_new_length@std@@8 DD FLAT:??_R0?AVbad_array_new_length@std@@@8 ; std::bad_array_new_length::`RTTI Base Class Descriptor at (0,-1,0,64)'
	DD	02H
	DD	00H
	DD	0ffffffffH
	DD	00H
	DD	040H
	DD	FLAT:??_R3bad_array_new_length@std@@8
rdata$r	ENDS
;	COMDAT ??_R2bad_array_new_length@std@@8
rdata$r	SEGMENT
??_R2bad_array_new_length@std@@8 DD FLAT:??_R1A@?0A@EA@bad_array_new_length@std@@8 ; std::bad_array_new_length::`RTTI Base Class Array'
	DD	FLAT:??_R1A@?0A@EA@bad_alloc@std@@8
	DD	FLAT:??_R1A@?0A@EA@exception@std@@8
rdata$r	ENDS
;	COMDAT ??_R3bad_array_new_length@std@@8
rdata$r	SEGMENT
??_R3bad_array_new_length@std@@8 DD 00H			; std::bad_array_new_length::`RTTI Class Hierarchy Descriptor'
	DD	00H
	DD	03H
	DD	FLAT:??_R2bad_array_new_length@std@@8
rdata$r	ENDS
;	COMDAT ??_R4bad_array_new_length@std@@6B@
rdata$r	SEGMENT
??_R4bad_array_new_length@std@@6B@ DD 00H		; std::bad_array_new_length::`RTTI Complete Object Locator'
	DD	00H
	DD	00H
	DD	FLAT:??_R0?AVbad_array_new_length@std@@@8
	DD	FLAT:??_R3bad_array_new_length@std@@8
rdata$r	ENDS
;	COMDAT ??_R1A@?0A@EA@bad_alloc@std@@8
rdata$r	SEGMENT
??_R1A@?0A@EA@bad_alloc@std@@8 DD FLAT:??_R0?AVbad_alloc@std@@@8 ; std::bad_alloc::`RTTI Base Class Descriptor at (0,-1,0,64)'
	DD	01H
	DD	00H
	DD	0ffffffffH
	DD	00H
	DD	040H
	DD	FLAT:??_R3bad_alloc@std@@8
rdata$r	ENDS
;	COMDAT ??_R2bad_alloc@std@@8
rdata$r	SEGMENT
??_R2bad_alloc@std@@8 DD FLAT:??_R1A@?0A@EA@bad_alloc@std@@8 ; std::bad_alloc::`RTTI Base Class Array'
	DD	FLAT:??_R1A@?0A@EA@exception@std@@8
rdata$r	ENDS
;	COMDAT ??_R3bad_alloc@std@@8
rdata$r	SEGMENT
??_R3bad_alloc@std@@8 DD 00H				; std::bad_alloc::`RTTI Class Hierarchy Descriptor'
	DD	00H
	DD	02H
	DD	FLAT:??_R2bad_alloc@std@@8
rdata$r	ENDS
;	COMDAT ??_R4bad_alloc@std@@6B@
rdata$r	SEGMENT
??_R4bad_alloc@std@@6B@ DD 00H				; std::bad_alloc::`RTTI Complete Object Locator'
	DD	00H
	DD	00H
	DD	FLAT:??_R0?AVbad_alloc@std@@@8
	DD	FLAT:??_R3bad_alloc@std@@8
rdata$r	ENDS
;	COMDAT ??_R1A@?0A@EA@exception@std@@8
rdata$r	SEGMENT
??_R1A@?0A@EA@exception@std@@8 DD FLAT:??_R0?AVexception@std@@@8 ; std::exception::`RTTI Base Class Descriptor at (0,-1,0,64)'
	DD	00H
	DD	00H
	DD	0ffffffffH
	DD	00H
	DD	040H
	DD	FLAT:??_R3exception@std@@8
rdata$r	ENDS
;	COMDAT ??_R2exception@std@@8
rdata$r	SEGMENT
??_R2exception@std@@8 DD FLAT:??_R1A@?0A@EA@exception@std@@8 ; std::exception::`RTTI Base Class Array'
rdata$r	ENDS
;	COMDAT ??_R3exception@std@@8
rdata$r	SEGMENT
??_R3exception@std@@8 DD 00H				; std::exception::`RTTI Class Hierarchy Descriptor'
	DD	00H
	DD	01H
	DD	FLAT:??_R2exception@std@@8
rdata$r	ENDS
;	COMDAT ??_R4exception@std@@6B@
rdata$r	SEGMENT
??_R4exception@std@@6B@ DD 00H				; std::exception::`RTTI Complete Object Locator'
	DD	00H
	DD	00H
	DD	FLAT:??_R0?AVexception@std@@@8
	DD	FLAT:??_R3exception@std@@8
rdata$r	ENDS
;	COMDAT ??_C@_0BI@CFPLBAOH@invalid?5string?5position@
CONST	SEGMENT
??_C@_0BI@CFPLBAOH@invalid?5string?5position@ DB 'invalid string position'
	DB	00H						; `string'
CONST	ENDS
;	COMDAT ??_C@_01LFCBOECM@?4@
CONST	SEGMENT
??_C@_01LFCBOECM@?4@ DB '.', 00H			; `string'
CONST	ENDS
;	COMDAT ??_C@_0BL@MFFNMGGC@stoi?5argument?5out?5of?5range@
CONST	SEGMENT
??_C@_0BL@MFFNMGGC@stoi?5argument?5out?5of?5range@ DB 'stoi argument out '
	DB	'of range', 00H				; `string'
CONST	ENDS
;	COMDAT ??_C@_0BG@HGEDEDEC@invalid?5stoi?5argument@
CONST	SEGMENT
??_C@_0BG@HGEDEDEC@invalid?5stoi?5argument@ DB 'invalid stoi argument', 00H ; `string'
CONST	ENDS
;	COMDAT __CT??_R0?AVbad_cast@std@@@8??0bad_cast@std@@QAE@ABV01@@Z12
xdata$x	SEGMENT
__CT??_R0?AVbad_cast@std@@@8??0bad_cast@std@@QAE@ABV01@@Z12 DD 00H
	DD	FLAT:??_R0?AVbad_cast@std@@@8
	DD	00H
	DD	0ffffffffH
	ORG $+4
	DD	0cH
	DD	FLAT:??0bad_cast@std@@QAE@ABV01@@Z
xdata$x	ENDS
;	COMDAT ??_R0?AVbad_cast@std@@@8
data$r	SEGMENT
??_R0?AVbad_cast@std@@@8 DD FLAT:??_7type_info@@6B@	; std::bad_cast `RTTI Type Descriptor'
	DD	00H
	DB	'.?AVbad_cast@std@@', 00H
data$r	ENDS
;	COMDAT __CTA2?AVbad_cast@std@@
xdata$x	SEGMENT
__CTA2?AVbad_cast@std@@ DD 02H
	DD	FLAT:__CT??_R0?AVbad_cast@std@@@8??0bad_cast@std@@QAE@ABV01@@Z12
	DD	FLAT:__CT??_R0?AVexception@std@@@8??0exception@std@@QAE@ABV01@@Z12
xdata$x	ENDS
;	COMDAT __TI2?AVbad_cast@std@@
xdata$x	SEGMENT
__TI2?AVbad_cast@std@@ DD 00H
	DD	FLAT:??1bad_cast@std@@UAE@XZ
	DD	00H
	DD	FLAT:__CTA2?AVbad_cast@std@@
xdata$x	ENDS
;	COMDAT ??_C@_08EPJLHIJG@bad?5cast@
CONST	SEGMENT
??_C@_08EPJLHIJG@bad?5cast@ DB 'bad cast', 00H		; `string'
CONST	ENDS
;	COMDAT ??_7bad_cast@std@@6B@
CONST	SEGMENT
??_7bad_cast@std@@6B@ DD FLAT:??_R4bad_cast@std@@6B@	; std::bad_cast::`vftable'
	DD	FLAT:??_Ebad_cast@std@@UAEPAXI@Z
	DD	FLAT:?what@exception@std@@UBEPBDXZ
CONST	ENDS
;	COMDAT ??_C@_0BA@JFNIOLAK@string?5too?5long@
CONST	SEGMENT
??_C@_0BA@JFNIOLAK@string?5too?5long@ DB 'string too long', 00H ; `string'
CONST	ENDS
;	COMDAT ??_C@_1CG@JNLFBNGN@?$AA?$CC?$AAi?$AAn?$AAv?$AAa?$AAl?$AAi?$AAd?$AA?5?$AAa?$AAr?$AAg?$AAu?$AAm?$AAe@
CONST	SEGMENT
??_C@_1CG@JNLFBNGN@?$AA?$CC?$AAi?$AAn?$AAv?$AAa?$AAl?$AAi?$AAd?$AA?5?$AAa?$AAr?$AAg?$AAu?$AAm?$AAe@ DB '"'
	DB	00H, 'i', 00H, 'n', 00H, 'v', 00H, 'a', 00H, 'l', 00H, 'i', 00H
	DB	'd', 00H, ' ', 00H, 'a', 00H, 'r', 00H, 'g', 00H, 'u', 00H, 'm'
	DB	00H, 'e', 00H, 'n', 00H, 't', 00H, '"', 00H, 00H, 00H ; `string'
CONST	ENDS
;	COMDAT ??_C@_11LOCGONAA@@
CONST	SEGMENT
??_C@_11LOCGONAA@@ DB 00H, 00H				; `string'
CONST	ENDS
;	COMDAT ??_C@_1NA@MJBOBEJL@?$AAC?$AA?3?$AA?2?$AAP?$AAr?$AAo?$AAg?$AAr?$AAa?$AAm?$AA?5?$AAF?$AAi?$AAl?$AAe@
CONST	SEGMENT
??_C@_1NA@MJBOBEJL@?$AAC?$AA?3?$AA?2?$AAP?$AAr?$AAo?$AAg?$AAr?$AAa?$AAm?$AA?5?$AAF?$AAi?$AAl?$AAe@ DB 'C'
	DB	00H, ':', 00H, '\', 00H, 'P', 00H, 'r', 00H, 'o', 00H, 'g', 00H
	DB	'r', 00H, 'a', 00H, 'm', 00H, ' ', 00H, 'F', 00H, 'i', 00H, 'l'
	DB	00H, 'e', 00H, 's', 00H, ' ', 00H, '(', 00H, 'x', 00H, '8', 00H
	DB	'6', 00H, ')', 00H, '\', 00H, 'M', 00H, 'i', 00H, 'c', 00H, 'r'
	DB	00H, 'o', 00H, 's', 00H, 'o', 00H, 'f', 00H, 't', 00H, ' ', 00H
	DB	'V', 00H, 'i', 00H, 's', 00H, 'u', 00H, 'a', 00H, 'l', 00H, ' '
	DB	00H, 'S', 00H, 't', 00H, 'u', 00H, 'd', 00H, 'i', 00H, 'o', 00H
	DB	'\', 00H, '2', 00H, '0', 00H, '1', 00H, '9', 00H, '\', 00H, 'C'
	DB	00H, 'o', 00H, 'm', 00H, 'm', 00H, 'u', 00H, 'n', 00H, 'i', 00H
	DB	't', 00H, 'y', 00H, '\', 00H, 'V', 00H, 'C', 00H, '\', 00H, 'T'
	DB	00H, 'o', 00H, 'o', 00H, 'l', 00H, 's', 00H, '\', 00H, 'M', 00H
	DB	'S', 00H, 'V', 00H, 'C', 00H, '\', 00H, '1', 00H, '4', 00H, '.'
	DB	00H, '2', 00H, '9', 00H, '.', 00H, '3', 00H, '0', 00H, '1', 00H
	DB	'3', 00H, '3', 00H, '\', 00H, 'i', 00H, 'n', 00H, 'c', 00H, 'l'
	DB	00H, 'u', 00H, 'd', 00H, 'e', 00H, '\', 00H, 'x', 00H, 'm', 00H
	DB	'e', 00H, 'm', 00H, 'o', 00H, 'r', 00H, 'y', 00H, 00H, 00H ; `string'
CONST	ENDS
;	COMDAT ??_C@_0GI@MNEMJBML@C?3?2Program?5Files?5?$CIx86?$CJ?2Microsof@
CONST	SEGMENT
??_C@_0GI@MNEMJBML@C?3?2Program?5Files?5?$CIx86?$CJ?2Microsof@ DB 'C:\Pro'
	DB	'gram Files (x86)\Microsoft Visual Studio\2019\Community\VC\To'
	DB	'ols\MSVC\14.29.30133\include\xmemory', 00H	; `string'
CONST	ENDS
;	COMDAT ??_C@_02DKCKIIND@?$CFs@
CONST	SEGMENT
??_C@_02DKCKIIND@?$CFs@ DB '%s', 00H			; `string'
CONST	ENDS
;	COMDAT ??_C@_0BB@FCMFBGOM@invalid?5argument@
CONST	SEGMENT
??_C@_0BB@FCMFBGOM@invalid?5argument@ DB 'invalid argument', 00H ; `string'
CONST	ENDS
;	COMDAT ?__LINE__Var@?0??_Adjust_manually_vector_aligned@std@@YAXAAPAXAAI@Z@4JA
_DATA	SEGMENT
?__LINE__Var@?0??_Adjust_manually_vector_aligned@std@@YAXAAPAXAAI@Z@4JA DD 091H ; `std::_Adjust_manually_vector_aligned'::`1'::__LINE__Var
_DATA	ENDS
;	COMDAT __CT??_R0?AVexception@std@@@8??0exception@std@@QAE@ABV01@@Z12
xdata$x	SEGMENT
__CT??_R0?AVexception@std@@@8??0exception@std@@QAE@ABV01@@Z12 DD 00H
	DD	FLAT:??_R0?AVexception@std@@@8
	DD	00H
	DD	0ffffffffH
	ORG $+4
	DD	0cH
	DD	FLAT:??0exception@std@@QAE@ABV01@@Z
xdata$x	ENDS
;	COMDAT ??_R0?AVexception@std@@@8
data$r	SEGMENT
??_R0?AVexception@std@@@8 DD FLAT:??_7type_info@@6B@	; std::exception `RTTI Type Descriptor'
	DD	00H
	DB	'.?AVexception@std@@', 00H
data$r	ENDS
;	COMDAT __CT??_R0?AVbad_alloc@std@@@8??0bad_alloc@std@@QAE@ABV01@@Z12
xdata$x	SEGMENT
__CT??_R0?AVbad_alloc@std@@@8??0bad_alloc@std@@QAE@ABV01@@Z12 DD 010H
	DD	FLAT:??_R0?AVbad_alloc@std@@@8
	DD	00H
	DD	0ffffffffH
	ORG $+4
	DD	0cH
	DD	FLAT:??0bad_alloc@std@@QAE@ABV01@@Z
xdata$x	ENDS
;	COMDAT ??_R0?AVbad_alloc@std@@@8
data$r	SEGMENT
??_R0?AVbad_alloc@std@@@8 DD FLAT:??_7type_info@@6B@	; std::bad_alloc `RTTI Type Descriptor'
	DD	00H
	DB	'.?AVbad_alloc@std@@', 00H
data$r	ENDS
;	COMDAT __CT??_R0?AVbad_array_new_length@std@@@8??0bad_array_new_length@std@@QAE@ABV01@@Z12
xdata$x	SEGMENT
__CT??_R0?AVbad_array_new_length@std@@@8??0bad_array_new_length@std@@QAE@ABV01@@Z12 DD 00H
	DD	FLAT:??_R0?AVbad_array_new_length@std@@@8
	DD	00H
	DD	0ffffffffH
	ORG $+4
	DD	0cH
	DD	FLAT:??0bad_array_new_length@std@@QAE@ABV01@@Z
xdata$x	ENDS
;	COMDAT ??_R0?AVbad_array_new_length@std@@@8
data$r	SEGMENT
??_R0?AVbad_array_new_length@std@@@8 DD FLAT:??_7type_info@@6B@ ; std::bad_array_new_length `RTTI Type Descriptor'
	DD	00H
	DB	'.?AVbad_array_new_length@std@@', 00H
data$r	ENDS
;	COMDAT __CTA3?AVbad_array_new_length@std@@
xdata$x	SEGMENT
__CTA3?AVbad_array_new_length@std@@ DD 03H
	DD	FLAT:__CT??_R0?AVbad_array_new_length@std@@@8??0bad_array_new_length@std@@QAE@ABV01@@Z12
	DD	FLAT:__CT??_R0?AVbad_alloc@std@@@8??0bad_alloc@std@@QAE@ABV01@@Z12
	DD	FLAT:__CT??_R0?AVexception@std@@@8??0exception@std@@QAE@ABV01@@Z12
xdata$x	ENDS
;	COMDAT __TI3?AVbad_array_new_length@std@@
xdata$x	SEGMENT
__TI3?AVbad_array_new_length@std@@ DD 00H
	DD	FLAT:??1bad_array_new_length@std@@UAE@XZ
	DD	00H
	DD	FLAT:__CTA3?AVbad_array_new_length@std@@
xdata$x	ENDS
;	COMDAT ??_C@_0BF@KINCDENJ@bad?5array?5new?5length@
CONST	SEGMENT
??_C@_0BF@KINCDENJ@bad?5array?5new?5length@ DB 'bad array new length', 00H ; `string'
CONST	ENDS
;	COMDAT ??_7bad_array_new_length@std@@6B@
CONST	SEGMENT
??_7bad_array_new_length@std@@6B@ DD FLAT:??_R4bad_array_new_length@std@@6B@ ; std::bad_array_new_length::`vftable'
	DD	FLAT:??_Ebad_array_new_length@std@@UAEPAXI@Z
	DD	FLAT:?what@exception@std@@UBEPBDXZ
CONST	ENDS
;	COMDAT ??_7bad_alloc@std@@6B@
CONST	SEGMENT
??_7bad_alloc@std@@6B@ DD FLAT:??_R4bad_alloc@std@@6B@	; std::bad_alloc::`vftable'
	DD	FLAT:??_Ebad_alloc@std@@UAEPAXI@Z
	DD	FLAT:?what@exception@std@@UBEPBDXZ
CONST	ENDS
;	COMDAT ??_C@_0BC@EOODALEL@Unknown?5exception@
CONST	SEGMENT
??_C@_0BC@EOODALEL@Unknown?5exception@ DB 'Unknown exception', 00H ; `string'
CONST	ENDS
;	COMDAT ??_7exception@std@@6B@
CONST	SEGMENT
??_7exception@std@@6B@ DD FLAT:??_R4exception@std@@6B@	; std::exception::`vftable'
	DD	FLAT:??_Eexception@std@@UAEPAXI@Z
	DD	FLAT:?what@exception@std@@UBEPBDXZ
CONST	ENDS
;	COMDAT voltbl
voltbl	SEGMENT
_volmd	DB	016H
voltbl	ENDS
;	COMDAT xdata$x
xdata$x	SEGMENT
__unwindtable$??0sentry@?$basic_istream@DU?$char_traits@D@std@@@std@@QAE@AAV12@_N@Z DD 0ffffffffH
	DD	FLAT:__unwindfunclet$??0sentry@?$basic_istream@DU?$char_traits@D@std@@@std@@QAE@AAV12@_N@Z$0
__ehfuncinfo$??0sentry@?$basic_istream@DU?$char_traits@D@std@@@std@@QAE@AAV12@_N@Z DD 019930522H
	DD	01H
	DD	FLAT:__unwindtable$??0sentry@?$basic_istream@DU?$char_traits@D@std@@@std@@QAE@AAV12@_N@Z
	DD	2 DUP(00H)
	DD	2 DUP(00H)
	DD	00H
	DD	01H
xdata$x	ENDS
;	COMDAT voltbl
voltbl	SEGMENT
_volmd	DB	09H
voltbl	ENDS
;	COMDAT xdata$x
xdata$x	SEGMENT
__ehfuncinfo$??1_Sentry_base@?$basic_istream@DU?$char_traits@D@std@@@std@@QAE@XZ DD 019930522H
	DD	00H
	DD	00H
	DD	2 DUP(00H)
	DD	2 DUP(00H)
	DD	00H
	DD	05H
xdata$x	ENDS
;	COMDAT voltbl
voltbl	SEGMENT
_volmd	DB	016H
	DB	023H
voltbl	ENDS
;	COMDAT voltbl
voltbl	SEGMENT
_volmd	DW	034H
	DW	040fH
voltbl	ENDS
;	COMDAT xdata$x
xdata$x	SEGMENT
__catchsym$??$_Insert_string@DU?$char_traits@D@std@@I@std@@YAAAV?$basic_ostream@DU?$char_traits@D@std@@@0@AAV10@QBDI@Z$3 DD 040H
	DD	00H
	DD	00H
	DD	FLAT:__catch$??$_Insert_string@DU?$char_traits@D@std@@I@std@@YAAAV?$basic_ostream@DU?$char_traits@D@std@@@0@AAV10@QBDI@Z$0
__tryblocktable$??$_Insert_string@DU?$char_traits@D@std@@I@std@@YAAAV?$basic_ostream@DU?$char_traits@D@std@@@0@AAV10@QBDI@Z DD 01H
	DD	01H
	DD	02H
	DD	01H
	DD	FLAT:__catchsym$??$_Insert_string@DU?$char_traits@D@std@@I@std@@YAAAV?$basic_ostream@DU?$char_traits@D@std@@@0@AAV10@QBDI@Z$3
__unwindtable$??$_Insert_string@DU?$char_traits@D@std@@I@std@@YAAAV?$basic_ostream@DU?$char_traits@D@std@@@0@AAV10@QBDI@Z DD 0ffffffffH
	DD	FLAT:__unwindfunclet$??$_Insert_string@DU?$char_traits@D@std@@I@std@@YAAAV?$basic_ostream@DU?$char_traits@D@std@@@0@AAV10@QBDI@Z$2
	DD	00H
	DD	00H
	DD	00H
	DD	00H
__ehfuncinfo$??$_Insert_string@DU?$char_traits@D@std@@I@std@@YAAAV?$basic_ostream@DU?$char_traits@D@std@@@0@AAV10@QBDI@Z DD 019930522H
	DD	03H
	DD	FLAT:__unwindtable$??$_Insert_string@DU?$char_traits@D@std@@I@std@@YAAAV?$basic_ostream@DU?$char_traits@D@std@@@0@AAV10@QBDI@Z
	DD	01H
	DD	FLAT:__tryblocktable$??$_Insert_string@DU?$char_traits@D@std@@I@std@@YAAAV?$basic_ostream@DU?$char_traits@D@std@@@0@AAV10@QBDI@Z
	DD	2 DUP(00H)
	DD	00H
	DD	01H
xdata$x	ENDS
;	COMDAT voltbl
voltbl	SEGMENT
_volmd	DB	09H
voltbl	ENDS
;	COMDAT xdata$x
xdata$x	SEGMENT
__ehfuncinfo$??1sentry@?$basic_ostream@DU?$char_traits@D@std@@@std@@QAE@XZ DD 019930522H
	DD	00H
	DD	00H
	DD	2 DUP(00H)
	DD	2 DUP(00H)
	DD	00H
	DD	05H
xdata$x	ENDS
;	COMDAT voltbl
voltbl	SEGMENT
_volmd	DB	016H
voltbl	ENDS
;	COMDAT xdata$x
xdata$x	SEGMENT
__unwindtable$??0sentry@?$basic_ostream@DU?$char_traits@D@std@@@std@@QAE@AAV12@@Z DD 0ffffffffH
	DD	FLAT:__unwindfunclet$??0sentry@?$basic_ostream@DU?$char_traits@D@std@@@std@@QAE@AAV12@@Z$0
__ehfuncinfo$??0sentry@?$basic_ostream@DU?$char_traits@D@std@@@std@@QAE@AAV12@@Z DD 019930522H
	DD	01H
	DD	FLAT:__unwindtable$??0sentry@?$basic_ostream@DU?$char_traits@D@std@@@std@@QAE@AAV12@@Z
	DD	2 DUP(00H)
	DD	2 DUP(00H)
	DD	00H
	DD	01H
xdata$x	ENDS
;	COMDAT voltbl
voltbl	SEGMENT
_volmd	DB	09H
voltbl	ENDS
;	COMDAT xdata$x
xdata$x	SEGMENT
__ehfuncinfo$??1_Sentry_base@?$basic_ostream@DU?$char_traits@D@std@@@std@@QAE@XZ DD 019930522H
	DD	00H
	DD	00H
	DD	2 DUP(00H)
	DD	2 DUP(00H)
	DD	00H
	DD	05H
xdata$x	ENDS
;	COMDAT voltbl
voltbl	SEGMENT
_volmd	DB	021H
	DB	02eH
voltbl	ENDS
;	COMDAT voltbl
voltbl	SEGMENT
_volmd	DW	034H
	DW	038aH
voltbl	ENDS
;	COMDAT xdata$x
xdata$x	SEGMENT
__catchsym$??$?5DU?$char_traits@D@std@@V?$allocator@D@1@@std@@YAAAV?$basic_istream@DU?$char_traits@D@std@@@0@$$QAV10@AAV?$basic_string@DU?$char_traits@D@std@@V?$allocator@D@2@@0@@Z$4 DD 040H
	DD	00H
	DD	00H
	DD	FLAT:__catch$??$?5DU?$char_traits@D@std@@V?$allocator@D@1@@std@@YAAAV?$basic_istream@DU?$char_traits@D@std@@@0@$$QAV10@AAV?$basic_string@DU?$char_traits@D@std@@V?$allocator@D@2@@0@@Z$0
__tryblocktable$??$?5DU?$char_traits@D@std@@V?$allocator@D@1@@std@@YAAAV?$basic_istream@DU?$char_traits@D@std@@@0@$$QAV10@AAV?$basic_string@DU?$char_traits@D@std@@V?$allocator@D@2@@0@@Z DD 02H
	DD	02H
	DD	03H
	DD	01H
	DD	FLAT:__catchsym$??$?5DU?$char_traits@D@std@@V?$allocator@D@1@@std@@YAAAV?$basic_istream@DU?$char_traits@D@std@@@0@$$QAV10@AAV?$basic_string@DU?$char_traits@D@std@@V?$allocator@D@2@@0@@Z$4
__unwindtable$??$?5DU?$char_traits@D@std@@V?$allocator@D@1@@std@@YAAAV?$basic_istream@DU?$char_traits@D@std@@@0@$$QAV10@AAV?$basic_string@DU?$char_traits@D@std@@V?$allocator@D@2@@0@@Z DD 0ffffffffH
	DD	FLAT:__unwindfunclet$??$?5DU?$char_traits@D@std@@V?$allocator@D@1@@std@@YAAAV?$basic_istream@DU?$char_traits@D@std@@@0@$$QAV10@AAV?$basic_string@DU?$char_traits@D@std@@V?$allocator@D@2@@0@@Z$2
	DD	00H
	DD	FLAT:__unwindfunclet$??$?5DU?$char_traits@D@std@@V?$allocator@D@1@@std@@YAAAV?$basic_istream@DU?$char_traits@D@std@@@0@$$QAV10@AAV?$basic_string@DU?$char_traits@D@std@@V?$allocator@D@2@@0@@Z$3
	DD	00H
	DD	00H
	DD	00H
	DD	00H
__ehfuncinfo$??$?5DU?$char_traits@D@std@@V?$allocator@D@1@@std@@YAAAV?$basic_istream@DU?$char_traits@D@std@@@0@$$QAV10@AAV?$basic_string@DU?$char_traits@D@std@@V?$allocator@D@2@@0@@Z DD 019930522H
	DD	04H
	DD	FLAT:__unwindtable$??$?5DU?$char_traits@D@std@@V?$allocator@D@1@@std@@YAAAV?$basic_istream@DU?$char_traits@D@std@@@0@$$QAV10@AAV?$basic_string@DU?$char_traits@D@std@@V?$allocator@D@2@@0@@Z
	DD	01H
	DD	FLAT:__tryblocktable$??$?5DU?$char_traits@D@std@@V?$allocator@D@1@@std@@YAAAV?$basic_istream@DU?$char_traits@D@std@@@0@$$QAV10@AAV?$basic_string@DU?$char_traits@D@std@@V?$allocator@D@2@@0@@Z
	DD	2 DUP(00H)
	DD	00H
	DD	01H
xdata$x	ENDS
;	COMDAT voltbl
voltbl	SEGMENT
_volmd	DB	016H
	DB	023H
voltbl	ENDS
;	COMDAT voltbl
voltbl	SEGMENT
_volmd	DW	034H
	DW	0477H
voltbl	ENDS
;	COMDAT xdata$x
xdata$x	SEGMENT
__catchsym$??$?6U?$char_traits@D@std@@@std@@YAAAV?$basic_ostream@DU?$char_traits@D@std@@@0@AAV10@PBD@Z$3 DD 040H
	DD	00H
	DD	00H
	DD	FLAT:__catch$??$?6U?$char_traits@D@std@@@std@@YAAAV?$basic_ostream@DU?$char_traits@D@std@@@0@AAV10@PBD@Z$0
__tryblocktable$??$?6U?$char_traits@D@std@@@std@@YAAAV?$basic_ostream@DU?$char_traits@D@std@@@0@AAV10@PBD@Z DD 01H
	DD	01H
	DD	02H
	DD	01H
	DD	FLAT:__catchsym$??$?6U?$char_traits@D@std@@@std@@YAAAV?$basic_ostream@DU?$char_traits@D@std@@@0@AAV10@PBD@Z$3
__unwindtable$??$?6U?$char_traits@D@std@@@std@@YAAAV?$basic_ostream@DU?$char_traits@D@std@@@0@AAV10@PBD@Z DD 0ffffffffH
	DD	FLAT:__unwindfunclet$??$?6U?$char_traits@D@std@@@std@@YAAAV?$basic_ostream@DU?$char_traits@D@std@@@0@AAV10@PBD@Z$2
	DD	00H
	DD	00H
	DD	00H
	DD	00H
__ehfuncinfo$??$?6U?$char_traits@D@std@@@std@@YAAAV?$basic_ostream@DU?$char_traits@D@std@@@0@AAV10@PBD@Z DD 019930522H
	DD	03H
	DD	FLAT:__unwindtable$??$?6U?$char_traits@D@std@@@std@@YAAAV?$basic_ostream@DU?$char_traits@D@std@@@0@AAV10@PBD@Z
	DD	01H
	DD	FLAT:__tryblocktable$??$?6U?$char_traits@D@std@@@std@@YAAAV?$basic_ostream@DU?$char_traits@D@std@@@0@AAV10@PBD@Z
	DD	2 DUP(00H)
	DD	00H
	DD	01H
xdata$x	ENDS
;	COMDAT voltbl
voltbl	SEGMENT
_volmd	DB	05dH
	DB	06aH
voltbl	ENDS
;	COMDAT voltbl
voltbl	SEGMENT
_volmd	DW	033H
	DW	08deH
voltbl	ENDS
;	COMDAT xdata$x
xdata$x	SEGMENT
__ehfuncinfo$_main DD 019930522H
	DD	08H
	DD	FLAT:__unwindtable$_main
	DD	2 DUP(00H)
	DD	2 DUP(00H)
	DD	00H
	DD	01H
__unwindtable$_main DD 0ffffffffH
	DD	FLAT:__unwindfunclet$_main$1
	DD	00H
	DD	FLAT:__unwindfunclet$_main$2
	DD	01H
	DD	FLAT:__unwindfunclet$_main$3
	DD	02H
	DD	FLAT:__unwindfunclet$_main$4
	DD	03H
	DD	FLAT:__unwindfunclet$_main$5
	DD	04H
	DD	FLAT:__unwindfunclet$_main$6
	DD	05H
	DD	FLAT:__unwindfunclet$_main$7
	DD	06H
	DD	FLAT:__unwindfunclet$_main$8
xdata$x	ENDS
;	COMDAT voltbl
voltbl	SEGMENT
_volmd	DB	09H
voltbl	ENDS
;	COMDAT xdata$x
xdata$x	SEGMENT
__ehfuncinfo$??$_Deallocate_plain@V?$allocator@U_Container_proxy@std@@@std@@@std@@YAXAAV?$allocator@U_Container_proxy@std@@@0@QAU_Container_proxy@0@@Z DD 019930522H
	DD	00H
	DD	00H
	DD	2 DUP(00H)
	DD	2 DUP(00H)
	DD	00H
	DD	05H
xdata$x	ENDS
;	COMDAT voltbl
voltbl	SEGMENT
_volmd	DB	09H
voltbl	ENDS
;	COMDAT xdata$x
xdata$x	SEGMENT
__ehfuncinfo$??$_Deallocate@$07$0A@@std@@YAXPAXI@Z DD 019930522H
	DD	00H
	DD	00H
	DD	2 DUP(00H)
	DD	2 DUP(00H)
	DD	00H
	DD	05H
xdata$x	ENDS
;	COMDAT voltbl
voltbl	SEGMENT
_volmd	DW	024H
	DW	010cH
voltbl	ENDS
;	COMDAT voltbl
voltbl	SEGMENT
_volmd	DW	024H
	DW	015dH
voltbl	ENDS
;	COMDAT voltbl
voltbl	SEGMENT
_volmd	DB	022H
	DB	0d4H
voltbl	ENDS
;	COMDAT voltbl
voltbl	SEGMENT
_volmd	DB	028H
	DB	035H
voltbl	ENDS
;	COMDAT voltbl
voltbl	SEGMENT
_volmd	DW	030H
	DW	017dH
voltbl	ENDS
;	COMDAT xdata$x
xdata$x	SEGMENT
__unwindtable$??$use_facet@V?$ctype@D@std@@@std@@YAABV?$ctype@D@0@ABVlocale@0@@Z DD 0ffffffffH
	DD	FLAT:__unwindfunclet$??$use_facet@V?$ctype@D@std@@@std@@YAABV?$ctype@D@0@ABVlocale@0@@Z$0
	DD	00H
	DD	FLAT:__unwindfunclet$??$use_facet@V?$ctype@D@std@@@std@@YAABV?$ctype@D@0@ABVlocale@0@@Z$1
__ehfuncinfo$??$use_facet@V?$ctype@D@std@@@std@@YAABV?$ctype@D@0@ABVlocale@0@@Z DD 019930522H
	DD	02H
	DD	FLAT:__unwindtable$??$use_facet@V?$ctype@D@std@@@std@@YAABV?$ctype@D@0@ABVlocale@0@@Z
	DD	2 DUP(00H)
	DD	2 DUP(00H)
	DD	00H
	DD	01H
xdata$x	ENDS
;	COMDAT voltbl
voltbl	SEGMENT
_volmd	DB	09H
voltbl	ENDS
;	COMDAT xdata$x
xdata$x	SEGMENT
__ehfuncinfo$?_Tidy_deallocate@?$basic_string@DU?$char_traits@D@std@@V?$allocator@D@2@@std@@AAEXXZ DD 019930522H
	DD	00H
	DD	00H
	DD	2 DUP(00H)
	DD	2 DUP(00H)
	DD	00H
	DD	05H
xdata$x	ENDS
;	COMDAT voltbl
voltbl	SEGMENT
_volmd	DB	022H
	DB	090H
voltbl	ENDS
;	COMDAT voltbl
voltbl	SEGMENT
_volmd	DB	024H
	DB	0adH
voltbl	ENDS
;	COMDAT voltbl
voltbl	SEGMENT
_volmd	DB	024H
	DB	090H
voltbl	ENDS
;	COMDAT voltbl
voltbl	SEGMENT
_volmd	DB	09H
voltbl	ENDS
;	COMDAT xdata$x
xdata$x	SEGMENT
__ehfuncinfo$?_Take_contents@?$basic_string@DU?$char_traits@D@std@@V?$allocator@D@2@@std@@AAEXAAV12@@Z DD 019930522H
	DD	00H
	DD	00H
	DD	2 DUP(00H)
	DD	2 DUP(00H)
	DD	00H
	DD	05H
xdata$x	ENDS
;	COMDAT voltbl
voltbl	SEGMENT
_volmd	DB	01eH
	DB	02bH
voltbl	ENDS
;	COMDAT voltbl
voltbl	SEGMENT
_volmd	DB	032H
	DB	0ebH
voltbl	ENDS
;	COMDAT xdata$x
xdata$x	SEGMENT
__unwindtable$??0?$basic_string@DU?$char_traits@D@std@@V?$allocator@D@2@@std@@QAE@ABV01@IIABV?$allocator@D@1@@Z DD 0ffffffffH
	DD	FLAT:__unwindfunclet$??0?$basic_string@DU?$char_traits@D@std@@V?$allocator@D@2@@std@@QAE@ABV01@IIABV?$allocator@D@1@@Z$0
	DD	00H
	DD	FLAT:__unwindfunclet$??0?$basic_string@DU?$char_traits@D@std@@V?$allocator@D@2@@std@@QAE@ABV01@IIABV?$allocator@D@1@@Z$1
__ehfuncinfo$??0?$basic_string@DU?$char_traits@D@std@@V?$allocator@D@2@@std@@QAE@ABV01@IIABV?$allocator@D@1@@Z DD 019930522H
	DD	02H
	DD	FLAT:__unwindtable$??0?$basic_string@DU?$char_traits@D@std@@V?$allocator@D@2@@std@@QAE@ABV01@IIABV?$allocator@D@1@@Z
	DD	2 DUP(00H)
	DD	2 DUP(00H)
	DD	00H
	DD	01H
xdata$x	ENDS
;	COMDAT voltbl
voltbl	SEGMENT
_volmd	DB	09H
voltbl	ENDS
;	COMDAT xdata$x
xdata$x	SEGMENT
__ehfuncinfo$??0?$basic_string@DU?$char_traits@D@std@@V?$allocator@D@2@@std@@QAE@XZ DD 019930522H
	DD	00H
	DD	00H
	DD	2 DUP(00H)
	DD	2 DUP(00H)
	DD	00H
	DD	05H
xdata$x	ENDS
;	COMDAT voltbl
voltbl	SEGMENT
_volmd	DB	024H
	DB	07aH
voltbl	ENDS
;	COMDAT voltbl
voltbl	SEGMENT
_volmd	DB	024H
	DB	076H
voltbl	ENDS
; Function compile flags: /Odt
;	COMDAT __JustMyCode_Default
_TEXT	SEGMENT
__JustMyCode_Default PROC				; COMDAT
  00000	55		 push	 ebp
  00001	8b ec		 mov	 ebp, esp
  00003	5d		 pop	 ebp
  00004	c3		 ret	 0
__JustMyCode_Default ENDP
_TEXT	ENDS
; Function compile flags: /Odtp /RTCsu /ZI
;	COMDAT ??1sentry@?$basic_istream@DU?$char_traits@D@std@@@std@@QAE@XZ
_TEXT	SEGMENT
_this$ = -8						; size = 4
??1sentry@?$basic_istream@DU?$char_traits@D@std@@@std@@QAE@XZ PROC ; std::basic_istream<char,std::char_traits<char> >::sentry::~sentry, COMDAT
; _this$ = ecx
  00000	55		 push	 ebp
  00001	8b ec		 mov	 ebp, esp
  00003	81 ec cc 00 00
	00		 sub	 esp, 204		; 000000ccH
  00009	53		 push	 ebx
  0000a	56		 push	 esi
  0000b	57		 push	 edi
  0000c	51		 push	 ecx
  0000d	8d 7d f4	 lea	 edi, DWORD PTR [ebp-12]
  00010	b9 03 00 00 00	 mov	 ecx, 3
  00015	b8 cc cc cc cc	 mov	 eax, -858993460		; ccccccccH
  0001a	f3 ab		 rep stosd
  0001c	59		 pop	 ecx
  0001d	89 4d f8	 mov	 DWORD PTR _this$[ebp], ecx
  00020	8b 4d f8	 mov	 ecx, DWORD PTR _this$[ebp]
  00023	e8 00 00 00 00	 call	 ??1_Sentry_base@?$basic_istream@DU?$char_traits@D@std@@@std@@QAE@XZ ; std::basic_istream<char,std::char_traits<char> >::_Sentry_base::~_Sentry_base
  00028	5f		 pop	 edi
  00029	5e		 pop	 esi
  0002a	5b		 pop	 ebx
  0002b	81 c4 cc 00 00
	00		 add	 esp, 204		; 000000ccH
  00031	3b ec		 cmp	 ebp, esp
  00033	e8 00 00 00 00	 call	 __RTC_CheckEsp
  00038	8b e5		 mov	 esp, ebp
  0003a	5d		 pop	 ebp
  0003b	c3		 ret	 0
??1sentry@?$basic_istream@DU?$char_traits@D@std@@@std@@QAE@XZ ENDP ; std::basic_istream<char,std::char_traits<char> >::sentry::~sentry
_TEXT	ENDS
; Function compile flags: /Odtp /RTCsu /ZI
; File C:\Program Files (x86)\Microsoft Visual Studio\2019\Community\VC\Tools\MSVC\14.29.30133\include\istream
;	COMDAT ??Bsentry@?$basic_istream@DU?$char_traits@D@std@@@std@@QBE_NXZ
_TEXT	SEGMENT
_this$ = -8						; size = 4
??Bsentry@?$basic_istream@DU?$char_traits@D@std@@@std@@QBE_NXZ PROC ; std::basic_istream<char,std::char_traits<char> >::sentry::operator bool, COMDAT
; _this$ = ecx

; 103  :         explicit __CLR_OR_THIS_CALL operator bool() const {

  00000	55		 push	 ebp
  00001	8b ec		 mov	 ebp, esp
  00003	81 ec cc 00 00
	00		 sub	 esp, 204		; 000000ccH
  00009	53		 push	 ebx
  0000a	56		 push	 esi
  0000b	57		 push	 edi
  0000c	51		 push	 ecx
  0000d	8d 7d f4	 lea	 edi, DWORD PTR [ebp-12]
  00010	b9 03 00 00 00	 mov	 ecx, 3
  00015	b8 cc cc cc cc	 mov	 eax, -858993460		; ccccccccH
  0001a	f3 ab		 rep stosd
  0001c	59		 pop	 ecx
  0001d	89 4d f8	 mov	 DWORD PTR _this$[ebp], ecx
  00020	b9 00 00 00 00	 mov	 ecx, OFFSET __A2FF0B9E_istream
  00025	e8 00 00 00 00	 call	 @__CheckForDebuggerJustMyCode@4

; 104  :             return _Ok;

  0002a	8b 45 f8	 mov	 eax, DWORD PTR _this$[ebp]
  0002d	8a 40 04	 mov	 al, BYTE PTR [eax+4]

; 105  :         }

  00030	5f		 pop	 edi
  00031	5e		 pop	 esi
  00032	5b		 pop	 ebx
  00033	81 c4 cc 00 00
	00		 add	 esp, 204		; 000000ccH
  00039	3b ec		 cmp	 ebp, esp
  0003b	e8 00 00 00 00	 call	 __RTC_CheckEsp
  00040	8b e5		 mov	 esp, ebp
  00042	5d		 pop	 ebp
  00043	c3		 ret	 0
??Bsentry@?$basic_istream@DU?$char_traits@D@std@@@std@@QBE_NXZ ENDP ; std::basic_istream<char,std::char_traits<char> >::sentry::operator bool
_TEXT	ENDS
; Function compile flags: /Odtp /RTCsu /ZI
; File C:\Program Files (x86)\Microsoft Visual Studio\2019\Community\VC\Tools\MSVC\14.29.30133\include\istream
;	COMDAT ??0sentry@?$basic_istream@DU?$char_traits@D@std@@@std@@QAE@AAV12@_N@Z
_TEXT	SEGMENT
_this$ = -20						; size = 4
__$EHRec$ = -12						; size = 12
__Istr$ = 8						; size = 4
__Noskip$ = 12						; size = 1
??0sentry@?$basic_istream@DU?$char_traits@D@std@@@std@@QAE@AAV12@_N@Z PROC ; std::basic_istream<char,std::char_traits<char> >::sentry::sentry, COMDAT
; _this$ = ecx

; 101  :             : _Sentry_base(_Istr), _Ok(_Sentry_base::_Myistr._Ipfx(_Noskip)) {}

  00000	55		 push	 ebp
  00001	8b ec		 mov	 ebp, esp
  00003	6a ff		 push	 -1
  00005	68 00 00 00 00	 push	 __ehhandler$??0sentry@?$basic_istream@DU?$char_traits@D@std@@@std@@QAE@AAV12@_N@Z
  0000a	64 a1 00 00 00
	00		 mov	 eax, DWORD PTR fs:0
  00010	50		 push	 eax
  00011	81 ec cc 00 00
	00		 sub	 esp, 204		; 000000ccH
  00017	53		 push	 ebx
  00018	56		 push	 esi
  00019	57		 push	 edi
  0001a	51		 push	 ecx
  0001b	8d 7d e8	 lea	 edi, DWORD PTR [ebp-24]
  0001e	b9 03 00 00 00	 mov	 ecx, 3
  00023	b8 cc cc cc cc	 mov	 eax, -858993460		; ccccccccH
  00028	f3 ab		 rep stosd
  0002a	59		 pop	 ecx
  0002b	a1 00 00 00 00	 mov	 eax, DWORD PTR ___security_cookie
  00030	33 c5		 xor	 eax, ebp
  00032	50		 push	 eax
  00033	8d 45 f4	 lea	 eax, DWORD PTR __$EHRec$[ebp]
  00036	64 a3 00 00 00
	00		 mov	 DWORD PTR fs:0, eax
  0003c	89 4d ec	 mov	 DWORD PTR _this$[ebp], ecx
  0003f	b9 00 00 00 00	 mov	 ecx, OFFSET __A2FF0B9E_istream
  00044	e8 00 00 00 00	 call	 @__CheckForDebuggerJustMyCode@4
  00049	8b 45 08	 mov	 eax, DWORD PTR __Istr$[ebp]
  0004c	50		 push	 eax
  0004d	8b 4d ec	 mov	 ecx, DWORD PTR _this$[ebp]
  00050	e8 00 00 00 00	 call	 ??0_Sentry_base@?$basic_istream@DU?$char_traits@D@std@@@std@@QAE@AAV12@@Z ; std::basic_istream<char,std::char_traits<char> >::_Sentry_base::_Sentry_base
  00055	c7 45 fc 00 00
	00 00		 mov	 DWORD PTR __$EHRec$[ebp+8], 0
  0005c	8b f4		 mov	 esi, esp
  0005e	0f b6 45 0c	 movzx	 eax, BYTE PTR __Noskip$[ebp]
  00062	50		 push	 eax
  00063	8b 4d ec	 mov	 ecx, DWORD PTR _this$[ebp]
  00066	8b 09		 mov	 ecx, DWORD PTR [ecx]
  00068	ff 15 00 00 00
	00		 call	 DWORD PTR __imp_?_Ipfx@?$basic_istream@DU?$char_traits@D@std@@@std@@QAE_N_N@Z
  0006e	3b f4		 cmp	 esi, esp
  00070	e8 00 00 00 00	 call	 __RTC_CheckEsp
  00075	8b 55 ec	 mov	 edx, DWORD PTR _this$[ebp]
  00078	88 42 04	 mov	 BYTE PTR [edx+4], al
  0007b	c7 45 fc ff ff
	ff ff		 mov	 DWORD PTR __$EHRec$[ebp+8], -1
  00082	8b 45 ec	 mov	 eax, DWORD PTR _this$[ebp]
  00085	8b 4d f4	 mov	 ecx, DWORD PTR __$EHRec$[ebp]
  00088	64 89 0d 00 00
	00 00		 mov	 DWORD PTR fs:0, ecx
  0008f	59		 pop	 ecx
  00090	5f		 pop	 edi
  00091	5e		 pop	 esi
  00092	5b		 pop	 ebx
  00093	81 c4 d8 00 00
	00		 add	 esp, 216		; 000000d8H
  00099	3b ec		 cmp	 ebp, esp
  0009b	e8 00 00 00 00	 call	 __RTC_CheckEsp
  000a0	8b e5		 mov	 esp, ebp
  000a2	5d		 pop	 ebp
  000a3	c2 08 00	 ret	 8
_TEXT	ENDS
;	COMDAT text$x
text$x	SEGMENT
__unwindfunclet$??0sentry@?$basic_istream@DU?$char_traits@D@std@@@std@@QAE@AAV12@_N@Z$0:
  00000	8b 4d ec	 mov	 ecx, DWORD PTR _this$[ebp]
  00003	e9 00 00 00 00	 jmp	 ??1_Sentry_base@?$basic_istream@DU?$char_traits@D@std@@@std@@QAE@XZ ; std::basic_istream<char,std::char_traits<char> >::_Sentry_base::~_Sentry_base
  00008	cc		 int	 3
  00009	cc		 int	 3
  0000a	cc		 int	 3
  0000b	cc		 int	 3
  0000c	cc		 int	 3
__ehhandler$??0sentry@?$basic_istream@DU?$char_traits@D@std@@@std@@QAE@AAV12@_N@Z:
  0000d	90		 npad	 1
  0000e	90		 npad	 1
  0000f	8b 54 24 08	 mov	 edx, DWORD PTR [esp+8]
  00013	8d 42 0c	 lea	 eax, DWORD PTR [edx+12]
  00016	8b 8a 24 ff ff
	ff		 mov	 ecx, DWORD PTR [edx-220]
  0001c	33 c8		 xor	 ecx, eax
  0001e	e8 00 00 00 00	 call	 @__security_check_cookie@4
  00023	b8 00 00 00 00	 mov	 eax, OFFSET __ehfuncinfo$??0sentry@?$basic_istream@DU?$char_traits@D@std@@@std@@QAE@AAV12@_N@Z
  00028	e9 00 00 00 00	 jmp	 ___CxxFrameHandler3
text$x	ENDS
??0sentry@?$basic_istream@DU?$char_traits@D@std@@@std@@QAE@AAV12@_N@Z ENDP ; std::basic_istream<char,std::char_traits<char> >::sentry::sentry
; Function compile flags: /Odtp /RTCsu /ZI
; File C:\Program Files (x86)\Microsoft Visual Studio\2019\Community\VC\Tools\MSVC\14.29.30133\include\istream
;	COMDAT ??1_Sentry_base@?$basic_istream@DU?$char_traits@D@std@@@std@@QAE@XZ
_TEXT	SEGMENT
tv72 = -232						; size = 4
__Rdbuf$ = -32						; size = 4
_this$ = -20						; size = 4
__$EHRec$ = -12						; size = 12
??1_Sentry_base@?$basic_istream@DU?$char_traits@D@std@@@std@@QAE@XZ PROC ; std::basic_istream<char,std::char_traits<char> >::_Sentry_base::~_Sentry_base, COMDAT
; _this$ = ecx

; 86   :         __CLR_OR_THIS_CALL ~_Sentry_base() noexcept {

  00000	55		 push	 ebp
  00001	8b ec		 mov	 ebp, esp
  00003	6a ff		 push	 -1
  00005	68 00 00 00 00	 push	 __ehhandler$??1_Sentry_base@?$basic_istream@DU?$char_traits@D@std@@@std@@QAE@XZ
  0000a	64 a1 00 00 00
	00		 mov	 eax, DWORD PTR fs:0
  00010	50		 push	 eax
  00011	81 ec dc 00 00
	00		 sub	 esp, 220		; 000000dcH
  00017	53		 push	 ebx
  00018	56		 push	 esi
  00019	57		 push	 edi
  0001a	51		 push	 ecx
  0001b	8d 7d d8	 lea	 edi, DWORD PTR [ebp-40]
  0001e	b9 07 00 00 00	 mov	 ecx, 7
  00023	b8 cc cc cc cc	 mov	 eax, -858993460		; ccccccccH
  00028	f3 ab		 rep stosd
  0002a	59		 pop	 ecx
  0002b	a1 00 00 00 00	 mov	 eax, DWORD PTR ___security_cookie
  00030	33 c5		 xor	 eax, ebp
  00032	50		 push	 eax
  00033	8d 45 f4	 lea	 eax, DWORD PTR __$EHRec$[ebp]
  00036	64 a3 00 00 00
	00		 mov	 DWORD PTR fs:0, eax
  0003c	89 4d ec	 mov	 DWORD PTR _this$[ebp], ecx
  0003f	b9 00 00 00 00	 mov	 ecx, OFFSET __A2FF0B9E_istream
  00044	e8 00 00 00 00	 call	 @__CheckForDebuggerJustMyCode@4

; 87   :             const auto _Rdbuf = _Myistr.rdbuf();

  00049	8b 45 ec	 mov	 eax, DWORD PTR _this$[ebp]
  0004c	8b 08		 mov	 ecx, DWORD PTR [eax]
  0004e	89 8d 18 ff ff
	ff		 mov	 DWORD PTR tv72[ebp], ecx
  00054	8b 95 18 ff ff
	ff		 mov	 edx, DWORD PTR tv72[ebp]
  0005a	8b 02		 mov	 eax, DWORD PTR [edx]
  0005c	8b 8d 18 ff ff
	ff		 mov	 ecx, DWORD PTR tv72[ebp]
  00062	03 48 04	 add	 ecx, DWORD PTR [eax+4]
  00065	8b f4		 mov	 esi, esp
  00067	ff 15 00 00 00
	00		 call	 DWORD PTR __imp_?rdbuf@?$basic_ios@DU?$char_traits@D@std@@@std@@QBEPAV?$basic_streambuf@DU?$char_traits@D@std@@@2@XZ
  0006d	3b f4		 cmp	 esi, esp
  0006f	e8 00 00 00 00	 call	 __RTC_CheckEsp
  00074	89 45 e0	 mov	 DWORD PTR __Rdbuf$[ebp], eax

; 88   :             if (_Rdbuf) {

  00077	83 7d e0 00	 cmp	 DWORD PTR __Rdbuf$[ebp], 0
  0007b	74 16		 je	 SHORT $LN3@Sentry_bas

; 89   :                 _Rdbuf->_Unlock();

  0007d	8b 45 e0	 mov	 eax, DWORD PTR __Rdbuf$[ebp]
  00080	8b 10		 mov	 edx, DWORD PTR [eax]
  00082	8b f4		 mov	 esi, esp
  00084	8b 4d e0	 mov	 ecx, DWORD PTR __Rdbuf$[ebp]
  00087	8b 42 08	 mov	 eax, DWORD PTR [edx+8]
  0008a	ff d0		 call	 eax
  0008c	3b f4		 cmp	 esi, esp
  0008e	e8 00 00 00 00	 call	 __RTC_CheckEsp
$LN3@Sentry_bas:

; 90   :             }
; 91   :         }

  00093	8b 4d f4	 mov	 ecx, DWORD PTR __$EHRec$[ebp]
  00096	64 89 0d 00 00
	00 00		 mov	 DWORD PTR fs:0, ecx
  0009d	59		 pop	 ecx
  0009e	5f		 pop	 edi
  0009f	5e		 pop	 esi
  000a0	5b		 pop	 ebx
  000a1	81 c4 e8 00 00
	00		 add	 esp, 232		; 000000e8H
  000a7	3b ec		 cmp	 ebp, esp
  000a9	e8 00 00 00 00	 call	 __RTC_CheckEsp
  000ae	8b e5		 mov	 esp, ebp
  000b0	5d		 pop	 ebp
  000b1	c3		 ret	 0
  000b2	cc		 int	 3
  000b3	cc		 int	 3
  000b4	cc		 int	 3
  000b5	cc		 int	 3
  000b6	cc		 int	 3
_TEXT	ENDS
;	COMDAT text$x
text$x	SEGMENT
__ehhandler$??1_Sentry_base@?$basic_istream@DU?$char_traits@D@std@@@std@@QAE@XZ:
  00000	90		 npad	 1
  00001	90		 npad	 1
  00002	8b 54 24 08	 mov	 edx, DWORD PTR [esp+8]
  00006	8d 42 0c	 lea	 eax, DWORD PTR [edx+12]
  00009	8b 8a 14 ff ff
	ff		 mov	 ecx, DWORD PTR [edx-236]
  0000f	33 c8		 xor	 ecx, eax
  00011	e8 00 00 00 00	 call	 @__security_check_cookie@4
  00016	b8 00 00 00 00	 mov	 eax, OFFSET __ehfuncinfo$??1_Sentry_base@?$basic_istream@DU?$char_traits@D@std@@@std@@QAE@XZ
  0001b	e9 00 00 00 00	 jmp	 ___CxxFrameHandler3
text$x	ENDS
??1_Sentry_base@?$basic_istream@DU?$char_traits@D@std@@@std@@QAE@XZ ENDP ; std::basic_istream<char,std::char_traits<char> >::_Sentry_base::~_Sentry_base
; Function compile flags: /Odtp /RTCsu /ZI
; File C:\Program Files (x86)\Microsoft Visual Studio\2019\Community\VC\Tools\MSVC\14.29.30133\include\istream
;	COMDAT ??0_Sentry_base@?$basic_istream@DU?$char_traits@D@std@@@std@@QAE@AAV12@@Z
_TEXT	SEGMENT
tv73 = -220						; size = 4
__Rdbuf$ = -20						; size = 4
_this$ = -8						; size = 4
__Istr$ = 8						; size = 4
??0_Sentry_base@?$basic_istream@DU?$char_traits@D@std@@@std@@QAE@AAV12@@Z PROC ; std::basic_istream<char,std::char_traits<char> >::_Sentry_base::_Sentry_base, COMDAT
; _this$ = ecx

; 79   :         __CLR_OR_THIS_CALL _Sentry_base(basic_istream& _Istr) : _Myistr(_Istr) {

  00000	55		 push	 ebp
  00001	8b ec		 mov	 ebp, esp
  00003	81 ec dc 00 00
	00		 sub	 esp, 220		; 000000dcH
  00009	53		 push	 ebx
  0000a	56		 push	 esi
  0000b	57		 push	 edi
  0000c	51		 push	 ecx
  0000d	8d 7d e4	 lea	 edi, DWORD PTR [ebp-28]
  00010	b9 07 00 00 00	 mov	 ecx, 7
  00015	b8 cc cc cc cc	 mov	 eax, -858993460		; ccccccccH
  0001a	f3 ab		 rep stosd
  0001c	59		 pop	 ecx
  0001d	89 4d f8	 mov	 DWORD PTR _this$[ebp], ecx
  00020	b9 00 00 00 00	 mov	 ecx, OFFSET __A2FF0B9E_istream
  00025	e8 00 00 00 00	 call	 @__CheckForDebuggerJustMyCode@4
  0002a	8b 45 f8	 mov	 eax, DWORD PTR _this$[ebp]
  0002d	8b 4d 08	 mov	 ecx, DWORD PTR __Istr$[ebp]
  00030	89 08		 mov	 DWORD PTR [eax], ecx

; 80   :             const auto _Rdbuf = _Myistr.rdbuf();

  00032	8b 45 f8	 mov	 eax, DWORD PTR _this$[ebp]
  00035	8b 08		 mov	 ecx, DWORD PTR [eax]
  00037	89 8d 24 ff ff
	ff		 mov	 DWORD PTR tv73[ebp], ecx
  0003d	8b 95 24 ff ff
	ff		 mov	 edx, DWORD PTR tv73[ebp]
  00043	8b 02		 mov	 eax, DWORD PTR [edx]
  00045	8b 8d 24 ff ff
	ff		 mov	 ecx, DWORD PTR tv73[ebp]
  0004b	03 48 04	 add	 ecx, DWORD PTR [eax+4]
  0004e	8b f4		 mov	 esi, esp
  00050	ff 15 00 00 00
	00		 call	 DWORD PTR __imp_?rdbuf@?$basic_ios@DU?$char_traits@D@std@@@std@@QBEPAV?$basic_streambuf@DU?$char_traits@D@std@@@2@XZ
  00056	3b f4		 cmp	 esi, esp
  00058	e8 00 00 00 00	 call	 __RTC_CheckEsp
  0005d	89 45 ec	 mov	 DWORD PTR __Rdbuf$[ebp], eax

; 81   :             if (_Rdbuf) {

  00060	83 7d ec 00	 cmp	 DWORD PTR __Rdbuf$[ebp], 0
  00064	74 16		 je	 SHORT $LN1@Sentry_bas

; 82   :                 _Rdbuf->_Lock();

  00066	8b 45 ec	 mov	 eax, DWORD PTR __Rdbuf$[ebp]
  00069	8b 10		 mov	 edx, DWORD PTR [eax]
  0006b	8b f4		 mov	 esi, esp
  0006d	8b 4d ec	 mov	 ecx, DWORD PTR __Rdbuf$[ebp]
  00070	8b 42 04	 mov	 eax, DWORD PTR [edx+4]
  00073	ff d0		 call	 eax
  00075	3b f4		 cmp	 esi, esp
  00077	e8 00 00 00 00	 call	 __RTC_CheckEsp
$LN1@Sentry_bas:

; 83   :             }
; 84   :         }

  0007c	8b 45 f8	 mov	 eax, DWORD PTR _this$[ebp]
  0007f	5f		 pop	 edi
  00080	5e		 pop	 esi
  00081	5b		 pop	 ebx
  00082	81 c4 dc 00 00
	00		 add	 esp, 220		; 000000dcH
  00088	3b ec		 cmp	 ebp, esp
  0008a	e8 00 00 00 00	 call	 __RTC_CheckEsp
  0008f	8b e5		 mov	 esp, ebp
  00091	5d		 pop	 ebp
  00092	c2 04 00	 ret	 4
??0_Sentry_base@?$basic_istream@DU?$char_traits@D@std@@@std@@QAE@AAV12@@Z ENDP ; std::basic_istream<char,std::char_traits<char> >::_Sentry_base::_Sentry_base
_TEXT	ENDS
; Function compile flags: /Odtp /RTCsu /ZI
; File C:\Program Files (x86)\Microsoft Visual Studio\2019\Community\VC\Tools\MSVC\14.29.30133\include\xstring
;	COMDAT ??$_Insert_string@DU?$char_traits@D@std@@I@std@@YAAAV?$basic_ostream@DU?$char_traits@D@std@@@0@AAV10@QBDI@Z
_TEXT	SEGMENT
tv405 = -332						; size = 8
tv290 = -324						; size = 4
tv287 = -324						; size = 8
tv285 = -324						; size = 4
tv324 = -320						; size = 8
tv289 = -320						; size = 4
tv284 = -320						; size = 4
tv286 = -316						; size = 4
tv135 = -316						; size = 4
tv288 = -313						; size = 1
tv283 = -313						; size = 1
$T2 = -308						; size = 4
$T3 = -296						; size = 4
$T4 = -284						; size = 4
$T5 = -272						; size = 4
$T6 = -260						; size = 4
__Ok$ = -56						; size = 8
__Pad$ = -40						; size = 4
__State$ = -28						; size = 4
__$ArrayPad$ = -20					; size = 4
__$EHRec$ = -16						; size = 16
__Ostr$ = 8						; size = 4
__Data$ = 12						; size = 4
__Size$ = 16						; size = 4
??$_Insert_string@DU?$char_traits@D@std@@I@std@@YAAAV?$basic_ostream@DU?$char_traits@D@std@@@0@AAV10@QBDI@Z PROC ; std::_Insert_string<char,std::char_traits<char>,unsigned int>, COMDAT

; 491  :     basic_ostream<_Elem, _Traits>& _Ostr, const _Elem* const _Data, const _SizeT _Size) {

  00000	55		 push	 ebp
  00001	8b ec		 mov	 ebp, esp
  00003	6a ff		 push	 -1
  00005	68 00 00 00 00	 push	 __ehhandler$??$_Insert_string@DU?$char_traits@D@std@@I@std@@YAAAV?$basic_ostream@DU?$char_traits@D@std@@@0@AAV10@QBDI@Z
  0000a	64 a1 00 00 00
	00		 mov	 eax, DWORD PTR fs:0
  00010	50		 push	 eax
  00011	51		 push	 ecx
  00012	81 ec 3c 01 00
	00		 sub	 esp, 316		; 0000013cH
  00018	53		 push	 ebx
  00019	56		 push	 esi
  0001a	57		 push	 edi
  0001b	8d bd 74 ff ff
	ff		 lea	 edi, DWORD PTR [ebp-140]
  00021	b9 1f 00 00 00	 mov	 ecx, 31			; 0000001fH
  00026	b8 cc cc cc cc	 mov	 eax, -858993460		; ccccccccH
  0002b	f3 ab		 rep stosd
  0002d	a1 00 00 00 00	 mov	 eax, DWORD PTR ___security_cookie
  00032	33 c5		 xor	 eax, ebp
  00034	89 45 ec	 mov	 DWORD PTR __$ArrayPad$[ebp], eax
  00037	50		 push	 eax
  00038	8d 45 f4	 lea	 eax, DWORD PTR __$EHRec$[ebp+4]
  0003b	64 a3 00 00 00
	00		 mov	 DWORD PTR fs:0, eax
  00041	89 65 f0	 mov	 DWORD PTR __$EHRec$[ebp], esp
  00044	b9 00 00 00 00	 mov	 ecx, OFFSET __0D019051_xstring
  00049	e8 00 00 00 00	 call	 @__CheckForDebuggerJustMyCode@4

; 492  :     // insert a character-type sequence into _Ostr as if through a basic_string copy
; 493  :     using _Ostr_t                    = basic_ostream<_Elem, _Traits>;
; 494  :     typename _Ostr_t::iostate _State = _Ostr_t::goodbit;

  0004e	c7 45 e4 00 00
	00 00		 mov	 DWORD PTR __State$[ebp], 0

; 495  : 
; 496  :     _SizeT _Pad;
; 497  :     if (_Ostr.width() <= 0 || static_cast<_SizeT>(_Ostr.width()) <= _Size) {

  00055	8b 45 08	 mov	 eax, DWORD PTR __Ostr$[ebp]
  00058	8b 08		 mov	 ecx, DWORD PTR [eax]
  0005a	8b 55 08	 mov	 edx, DWORD PTR __Ostr$[ebp]
  0005d	03 51 04	 add	 edx, DWORD PTR [ecx+4]
  00060	8b f4		 mov	 esi, esp
  00062	8b ca		 mov	 ecx, edx
  00064	ff 15 00 00 00
	00		 call	 DWORD PTR __imp_?width@ios_base@std@@QBE_JXZ
  0006a	3b f4		 cmp	 esi, esp
  0006c	e8 00 00 00 00	 call	 __RTC_CheckEsp
  00071	89 85 c0 fe ff
	ff		 mov	 DWORD PTR tv324[ebp], eax
  00077	89 95 c4 fe ff
	ff		 mov	 DWORD PTR tv324[ebp+4], edx
  0007d	83 bd c4 fe ff
	ff 00		 cmp	 DWORD PTR tv324[ebp+4], 0
  00084	7c 2c		 jl	 SHORT $LN10@Insert_str
  00086	7f 09		 jg	 SHORT $LN25@Insert_str
  00088	83 bd c0 fe ff
	ff 00		 cmp	 DWORD PTR tv324[ebp], 0
  0008f	76 21		 jbe	 SHORT $LN10@Insert_str
$LN25@Insert_str:
  00091	8b 45 08	 mov	 eax, DWORD PTR __Ostr$[ebp]
  00094	8b 08		 mov	 ecx, DWORD PTR [eax]
  00096	8b 55 08	 mov	 edx, DWORD PTR __Ostr$[ebp]
  00099	03 51 04	 add	 edx, DWORD PTR [ecx+4]
  0009c	8b f4		 mov	 esi, esp
  0009e	8b ca		 mov	 ecx, edx
  000a0	ff 15 00 00 00
	00		 call	 DWORD PTR __imp_?width@ios_base@std@@QBE_JXZ
  000a6	3b f4		 cmp	 esi, esp
  000a8	e8 00 00 00 00	 call	 __RTC_CheckEsp
  000ad	3b 45 10	 cmp	 eax, DWORD PTR __Size$[ebp]
  000b0	77 09		 ja	 SHORT $LN8@Insert_str
$LN10@Insert_str:

; 498  :         _Pad = 0;

  000b2	c7 45 d8 00 00
	00 00		 mov	 DWORD PTR __Pad$[ebp], 0

; 499  :     } else {

  000b9	eb 22		 jmp	 SHORT $LN9@Insert_str
$LN8@Insert_str:

; 500  :         _Pad = static_cast<_SizeT>(_Ostr.width()) - _Size;

  000bb	8b 45 08	 mov	 eax, DWORD PTR __Ostr$[ebp]
  000be	8b 08		 mov	 ecx, DWORD PTR [eax]
  000c0	8b 55 08	 mov	 edx, DWORD PTR __Ostr$[ebp]
  000c3	03 51 04	 add	 edx, DWORD PTR [ecx+4]
  000c6	8b f4		 mov	 esi, esp
  000c8	8b ca		 mov	 ecx, edx
  000ca	ff 15 00 00 00
	00		 call	 DWORD PTR __imp_?width@ios_base@std@@QBE_JXZ
  000d0	3b f4		 cmp	 esi, esp
  000d2	e8 00 00 00 00	 call	 __RTC_CheckEsp
  000d7	2b 45 10	 sub	 eax, DWORD PTR __Size$[ebp]
  000da	89 45 d8	 mov	 DWORD PTR __Pad$[ebp], eax
$LN9@Insert_str:

; 501  :     }
; 502  : 
; 503  :     const typename _Ostr_t::sentry _Ok(_Ostr);

  000dd	8b 45 08	 mov	 eax, DWORD PTR __Ostr$[ebp]
  000e0	50		 push	 eax
  000e1	8d 4d c8	 lea	 ecx, DWORD PTR __Ok$[ebp]
  000e4	e8 00 00 00 00	 call	 ??0sentry@?$basic_ostream@DU?$char_traits@D@std@@@std@@QAE@AAV12@@Z ; std::basic_ostream<char,std::char_traits<char> >::sentry::sentry
  000e9	c7 45 fc 00 00
	00 00		 mov	 DWORD PTR __$EHRec$[ebp+12], 0

; 504  : 
; 505  :     if (!_Ok) {

  000f0	8d 4d c8	 lea	 ecx, DWORD PTR __Ok$[ebp]
  000f3	e8 00 00 00 00	 call	 ??Bsentry@?$basic_ostream@DU?$char_traits@D@std@@@std@@QBE_NXZ ; std::basic_ostream<char,std::char_traits<char> >::sentry::operator bool
  000f8	0f b6 c0	 movzx	 eax, al
  000fb	85 c0		 test	 eax, eax
  000fd	75 0e		 jne	 SHORT $LN11@Insert_str

; 506  :         _State |= _Ostr_t::badbit;

  000ff	8b 45 e4	 mov	 eax, DWORD PTR __State$[ebp]
  00102	83 c8 04	 or	 eax, 4
  00105	89 45 e4	 mov	 DWORD PTR __State$[ebp], eax

; 507  :     } else { // state okay, insert characters

  00108	e9 a5 02 00 00	 jmp	 $LN12@Insert_str
$LN11@Insert_str:

; 508  :         _TRY_IO_BEGIN

  0010d	c6 45 fc 01	 mov	 BYTE PTR __$EHRec$[ebp+12], 1

; 509  :         if ((_Ostr.flags() & _Ostr_t::adjustfield) != _Ostr_t::left) {

  00111	8b 45 08	 mov	 eax, DWORD PTR __Ostr$[ebp]
  00114	8b 08		 mov	 ecx, DWORD PTR [eax]
  00116	8b 55 08	 mov	 edx, DWORD PTR __Ostr$[ebp]
  00119	03 51 04	 add	 edx, DWORD PTR [ecx+4]
  0011c	8b f4		 mov	 esi, esp
  0011e	8b ca		 mov	 ecx, edx
  00120	ff 15 00 00 00
	00		 call	 DWORD PTR __imp_?flags@ios_base@std@@QBEHXZ
  00126	3b f4		 cmp	 esi, esp
  00128	e8 00 00 00 00	 call	 __RTC_CheckEsp
  0012d	89 85 c4 fe ff
	ff		 mov	 DWORD PTR tv135[ebp], eax
  00133	8b 85 c4 fe ff
	ff		 mov	 eax, DWORD PTR tv135[ebp]
  00139	25 c0 01 00 00	 and	 eax, 448		; 000001c0H
  0013e	83 f8 40	 cmp	 eax, 64			; 00000040H
  00141	0f 84 c0 00 00
	00		 je	 $LN14@Insert_str

; 510  :             for (; 0 < _Pad; --_Pad) { // pad on left

  00147	eb 09		 jmp	 SHORT $LN4@Insert_str
$LN2@Insert_str:
  00149	8b 45 d8	 mov	 eax, DWORD PTR __Pad$[ebp]
  0014c	83 e8 01	 sub	 eax, 1
  0014f	89 45 d8	 mov	 DWORD PTR __Pad$[ebp], eax
$LN4@Insert_str:
  00152	83 7d d8 00	 cmp	 DWORD PTR __Pad$[ebp], 0
  00156	0f 86 ab 00 00
	00		 jbe	 $LN14@Insert_str

; 511  :                 if (_Traits::eq_int_type(_Traits::eof(), _Ostr.rdbuf()->sputc(_Ostr.fill()))) {

  0015c	8b 45 08	 mov	 eax, DWORD PTR __Ostr$[ebp]
  0015f	8b 08		 mov	 ecx, DWORD PTR [eax]
  00161	8b 55 08	 mov	 edx, DWORD PTR __Ostr$[ebp]
  00164	03 51 04	 add	 edx, DWORD PTR [ecx+4]
  00167	8b f4		 mov	 esi, esp
  00169	8b ca		 mov	 ecx, edx
  0016b	ff 15 00 00 00
	00		 call	 DWORD PTR __imp_?fill@?$basic_ios@DU?$char_traits@D@std@@@std@@QBEDXZ
  00171	3b f4		 cmp	 esi, esp
  00173	e8 00 00 00 00	 call	 __RTC_CheckEsp
  00178	88 85 c7 fe ff
	ff		 mov	 BYTE PTR tv283[ebp], al
  0017e	8b 45 08	 mov	 eax, DWORD PTR __Ostr$[ebp]
  00181	8b 08		 mov	 ecx, DWORD PTR [eax]
  00183	8b 55 08	 mov	 edx, DWORD PTR __Ostr$[ebp]
  00186	03 51 04	 add	 edx, DWORD PTR [ecx+4]
  00189	8b f4		 mov	 esi, esp
  0018b	8b ca		 mov	 ecx, edx
  0018d	ff 15 00 00 00
	00		 call	 DWORD PTR __imp_?rdbuf@?$basic_ios@DU?$char_traits@D@std@@@std@@QBEPAV?$basic_streambuf@DU?$char_traits@D@std@@@2@XZ
  00193	3b f4		 cmp	 esi, esp
  00195	e8 00 00 00 00	 call	 __RTC_CheckEsp
  0019a	89 85 c0 fe ff
	ff		 mov	 DWORD PTR tv284[ebp], eax
  001a0	8b f4		 mov	 esi, esp
  001a2	0f b6 85 c7 fe
	ff ff		 movzx	 eax, BYTE PTR tv283[ebp]
  001a9	50		 push	 eax
  001aa	8b 8d c0 fe ff
	ff		 mov	 ecx, DWORD PTR tv284[ebp]
  001b0	ff 15 00 00 00
	00		 call	 DWORD PTR __imp_?sputc@?$basic_streambuf@DU?$char_traits@D@std@@@std@@QAEHD@Z
  001b6	3b f4		 cmp	 esi, esp
  001b8	e8 00 00 00 00	 call	 __RTC_CheckEsp
  001bd	89 85 bc fe ff
	ff		 mov	 DWORD PTR tv285[ebp], eax
  001c3	8b 8d bc fe ff
	ff		 mov	 ecx, DWORD PTR tv285[ebp]
  001c9	89 8d fc fe ff
	ff		 mov	 DWORD PTR $T6[ebp], ecx
  001cf	e8 00 00 00 00	 call	 ?eof@?$_Narrow_char_traits@DH@std@@SAHXZ ; std::_Narrow_char_traits<char,int>::eof
  001d4	89 85 f0 fe ff
	ff		 mov	 DWORD PTR $T5[ebp], eax
  001da	8d 95 fc fe ff
	ff		 lea	 edx, DWORD PTR $T6[ebp]
  001e0	52		 push	 edx
  001e1	8d 85 f0 fe ff
	ff		 lea	 eax, DWORD PTR $T5[ebp]
  001e7	50		 push	 eax
  001e8	e8 00 00 00 00	 call	 ?eq_int_type@?$_Narrow_char_traits@DH@std@@SA_NABH0@Z ; std::_Narrow_char_traits<char,int>::eq_int_type
  001ed	83 c4 08	 add	 esp, 8
  001f0	0f b6 c8	 movzx	 ecx, al
  001f3	85 c9		 test	 ecx, ecx
  001f5	74 0b		 je	 SHORT $LN15@Insert_str

; 512  :                     _State |= _Ostr_t::badbit; // insertion failed, quit

  001f7	8b 45 e4	 mov	 eax, DWORD PTR __State$[ebp]
  001fa	83 c8 04	 or	 eax, 4
  001fd	89 45 e4	 mov	 DWORD PTR __State$[ebp], eax

; 513  :                     break;

  00200	eb 05		 jmp	 SHORT $LN14@Insert_str
$LN15@Insert_str:

; 514  :                 }
; 515  :             }

  00202	e9 42 ff ff ff	 jmp	 $LN2@Insert_str
$LN14@Insert_str:

; 516  :         }
; 517  : 
; 518  :         if (_State == _Ostr_t::goodbit
; 519  :             && _Ostr.rdbuf()->sputn(_Data, static_cast<streamsize>(_Size)) != static_cast<streamsize>(_Size)) {

  00207	83 7d e4 00	 cmp	 DWORD PTR __State$[ebp], 0
  0020b	0f 85 89 00 00
	00		 jne	 $LN16@Insert_str
  00211	8b 45 08	 mov	 eax, DWORD PTR __Ostr$[ebp]
  00214	8b 08		 mov	 ecx, DWORD PTR [eax]
  00216	8b 55 08	 mov	 edx, DWORD PTR __Ostr$[ebp]
  00219	03 51 04	 add	 edx, DWORD PTR [ecx+4]
  0021c	8b f4		 mov	 esi, esp
  0021e	8b ca		 mov	 ecx, edx
  00220	ff 15 00 00 00
	00		 call	 DWORD PTR __imp_?rdbuf@?$basic_ios@DU?$char_traits@D@std@@@std@@QBEPAV?$basic_streambuf@DU?$char_traits@D@std@@@2@XZ
  00226	3b f4		 cmp	 esi, esp
  00228	e8 00 00 00 00	 call	 __RTC_CheckEsp
  0022d	89 85 c4 fe ff
	ff		 mov	 DWORD PTR tv286[ebp], eax
  00233	8b 45 10	 mov	 eax, DWORD PTR __Size$[ebp]
  00236	33 c9		 xor	 ecx, ecx
  00238	8b f4		 mov	 esi, esp
  0023a	51		 push	 ecx
  0023b	50		 push	 eax
  0023c	8b 55 0c	 mov	 edx, DWORD PTR __Data$[ebp]
  0023f	52		 push	 edx
  00240	8b 8d c4 fe ff
	ff		 mov	 ecx, DWORD PTR tv286[ebp]
  00246	ff 15 00 00 00
	00		 call	 DWORD PTR __imp_?sputn@?$basic_streambuf@DU?$char_traits@D@std@@@std@@QAE_JPBD_J@Z
  0024c	3b f4		 cmp	 esi, esp
  0024e	e8 00 00 00 00	 call	 __RTC_CheckEsp
  00253	89 85 bc fe ff
	ff		 mov	 DWORD PTR tv287[ebp], eax
  00259	89 95 c0 fe ff
	ff		 mov	 DWORD PTR tv287[ebp+4], edx
  0025f	8b 45 10	 mov	 eax, DWORD PTR __Size$[ebp]
  00262	33 c9		 xor	 ecx, ecx
  00264	89 85 b4 fe ff
	ff		 mov	 DWORD PTR tv405[ebp], eax
  0026a	89 8d b8 fe ff
	ff		 mov	 DWORD PTR tv405[ebp+4], ecx
  00270	8b 95 bc fe ff
	ff		 mov	 edx, DWORD PTR tv287[ebp]
  00276	3b 95 b4 fe ff
	ff		 cmp	 edx, DWORD PTR tv405[ebp]
  0027c	75 0e		 jne	 SHORT $LN26@Insert_str
  0027e	8b 85 c0 fe ff
	ff		 mov	 eax, DWORD PTR tv287[ebp+4]
  00284	3b 85 b8 fe ff
	ff		 cmp	 eax, DWORD PTR tv405[ebp+4]
  0028a	74 0e		 je	 SHORT $LN16@Insert_str
$LN26@Insert_str:

; 520  :             _State |= _Ostr_t::badbit;

  0028c	8b 45 e4	 mov	 eax, DWORD PTR __State$[ebp]
  0028f	83 c8 04	 or	 eax, 4
  00292	89 45 e4	 mov	 DWORD PTR __State$[ebp], eax

; 521  :         } else {

  00295	e9 c0 00 00 00	 jmp	 $LN17@Insert_str
$LN16@Insert_str:

; 522  :             for (; 0 < _Pad; --_Pad) { // pad on right

  0029a	eb 09		 jmp	 SHORT $LN7@Insert_str
$LN5@Insert_str:
  0029c	8b 45 d8	 mov	 eax, DWORD PTR __Pad$[ebp]
  0029f	83 e8 01	 sub	 eax, 1
  002a2	89 45 d8	 mov	 DWORD PTR __Pad$[ebp], eax
$LN7@Insert_str:
  002a5	83 7d d8 00	 cmp	 DWORD PTR __Pad$[ebp], 0
  002a9	0f 86 ab 00 00
	00		 jbe	 $LN17@Insert_str

; 523  :                 if (_Traits::eq_int_type(_Traits::eof(), _Ostr.rdbuf()->sputc(_Ostr.fill()))) {

  002af	8b 45 08	 mov	 eax, DWORD PTR __Ostr$[ebp]
  002b2	8b 08		 mov	 ecx, DWORD PTR [eax]
  002b4	8b 55 08	 mov	 edx, DWORD PTR __Ostr$[ebp]
  002b7	03 51 04	 add	 edx, DWORD PTR [ecx+4]
  002ba	8b f4		 mov	 esi, esp
  002bc	8b ca		 mov	 ecx, edx
  002be	ff 15 00 00 00
	00		 call	 DWORD PTR __imp_?fill@?$basic_ios@DU?$char_traits@D@std@@@std@@QBEDXZ
  002c4	3b f4		 cmp	 esi, esp
  002c6	e8 00 00 00 00	 call	 __RTC_CheckEsp
  002cb	88 85 c7 fe ff
	ff		 mov	 BYTE PTR tv288[ebp], al
  002d1	8b 45 08	 mov	 eax, DWORD PTR __Ostr$[ebp]
  002d4	8b 08		 mov	 ecx, DWORD PTR [eax]
  002d6	8b 55 08	 mov	 edx, DWORD PTR __Ostr$[ebp]
  002d9	03 51 04	 add	 edx, DWORD PTR [ecx+4]
  002dc	8b f4		 mov	 esi, esp
  002de	8b ca		 mov	 ecx, edx
  002e0	ff 15 00 00 00
	00		 call	 DWORD PTR __imp_?rdbuf@?$basic_ios@DU?$char_traits@D@std@@@std@@QBEPAV?$basic_streambuf@DU?$char_traits@D@std@@@2@XZ
  002e6	3b f4		 cmp	 esi, esp
  002e8	e8 00 00 00 00	 call	 __RTC_CheckEsp
  002ed	89 85 c0 fe ff
	ff		 mov	 DWORD PTR tv289[ebp], eax
  002f3	8b f4		 mov	 esi, esp
  002f5	0f b6 85 c7 fe
	ff ff		 movzx	 eax, BYTE PTR tv288[ebp]
  002fc	50		 push	 eax
  002fd	8b 8d c0 fe ff
	ff		 mov	 ecx, DWORD PTR tv289[ebp]
  00303	ff 15 00 00 00
	00		 call	 DWORD PTR __imp_?sputc@?$basic_streambuf@DU?$char_traits@D@std@@@std@@QAEHD@Z
  00309	3b f4		 cmp	 esi, esp
  0030b	e8 00 00 00 00	 call	 __RTC_CheckEsp
  00310	89 85 bc fe ff
	ff		 mov	 DWORD PTR tv290[ebp], eax
  00316	8b 8d bc fe ff
	ff		 mov	 ecx, DWORD PTR tv290[ebp]
  0031c	89 8d e4 fe ff
	ff		 mov	 DWORD PTR $T4[ebp], ecx
  00322	e8 00 00 00 00	 call	 ?eof@?$_Narrow_char_traits@DH@std@@SAHXZ ; std::_Narrow_char_traits<char,int>::eof
  00327	89 85 d8 fe ff
	ff		 mov	 DWORD PTR $T3[ebp], eax
  0032d	8d 95 e4 fe ff
	ff		 lea	 edx, DWORD PTR $T4[ebp]
  00333	52		 push	 edx
  00334	8d 85 d8 fe ff
	ff		 lea	 eax, DWORD PTR $T3[ebp]
  0033a	50		 push	 eax
  0033b	e8 00 00 00 00	 call	 ?eq_int_type@?$_Narrow_char_traits@DH@std@@SA_NABH0@Z ; std::_Narrow_char_traits<char,int>::eq_int_type
  00340	83 c4 08	 add	 esp, 8
  00343	0f b6 c8	 movzx	 ecx, al
  00346	85 c9		 test	 ecx, ecx
  00348	74 0b		 je	 SHORT $LN18@Insert_str

; 524  :                     _State |= _Ostr_t::badbit; // insertion failed, quit

  0034a	8b 45 e4	 mov	 eax, DWORD PTR __State$[ebp]
  0034d	83 c8 04	 or	 eax, 4
  00350	89 45 e4	 mov	 DWORD PTR __State$[ebp], eax

; 525  :                     break;

  00353	eb 05		 jmp	 SHORT $LN17@Insert_str
$LN18@Insert_str:

; 526  :                 }
; 527  :             }

  00355	e9 42 ff ff ff	 jmp	 $LN5@Insert_str
$LN17@Insert_str:

; 528  :         }
; 529  : 
; 530  :         _Ostr.width(0);

  0035a	8b f4		 mov	 esi, esp
  0035c	6a 00		 push	 0
  0035e	6a 00		 push	 0
  00360	8b 45 08	 mov	 eax, DWORD PTR __Ostr$[ebp]
  00363	8b 08		 mov	 ecx, DWORD PTR [eax]
  00365	8b 55 08	 mov	 edx, DWORD PTR __Ostr$[ebp]
  00368	03 51 04	 add	 edx, DWORD PTR [ecx+4]
  0036b	8b ca		 mov	 ecx, edx
  0036d	ff 15 00 00 00
	00		 call	 DWORD PTR __imp_?width@ios_base@std@@QAE_J_J@Z
  00373	3b f4		 cmp	 esi, esp
  00375	e8 00 00 00 00	 call	 __RTC_CheckEsp
  0037a	eb 26		 jmp	 SHORT $LN20@Insert_str
__catch$??$_Insert_string@DU?$char_traits@D@std@@I@std@@YAAAV?$basic_ostream@DU?$char_traits@D@std@@@0@AAV10@QBDI@Z$0:

; 531  :         _CATCH_IO_(_Ostr_t, _Ostr)

  0037c	8b f4		 mov	 esi, esp
  0037e	6a 01		 push	 1
  00380	6a 04		 push	 4
  00382	8b 45 08	 mov	 eax, DWORD PTR __Ostr$[ebp]
  00385	8b 08		 mov	 ecx, DWORD PTR [eax]
  00387	8b 55 08	 mov	 edx, DWORD PTR __Ostr$[ebp]
  0038a	03 51 04	 add	 edx, DWORD PTR [ecx+4]
  0038d	8b ca		 mov	 ecx, edx
  0038f	ff 15 00 00 00
	00		 call	 DWORD PTR __imp_?setstate@?$basic_ios@DU?$char_traits@D@std@@@std@@QAEXH_N@Z
  00395	3b f4		 cmp	 esi, esp
  00397	e8 00 00 00 00	 call	 __RTC_CheckEsp
  0039c	b8 00 00 00 00	 mov	 eax, $LN24@Insert_str
  003a1	c3		 ret	 0
$LN20@Insert_str:
  003a2	c7 45 fc 00 00
	00 00		 mov	 DWORD PTR __$EHRec$[ebp+12], 0
  003a9	eb 07		 jmp	 SHORT $LN12@Insert_str
$LN24@Insert_str:
  003ab	c7 45 fc 00 00
	00 00		 mov	 DWORD PTR __$EHRec$[ebp+12], 0
$LN12@Insert_str:

; 532  :     }
; 533  : 
; 534  :     _Ostr.setstate(_State);

  003b2	8b f4		 mov	 esi, esp
  003b4	6a 00		 push	 0
  003b6	8b 45 e4	 mov	 eax, DWORD PTR __State$[ebp]
  003b9	50		 push	 eax
  003ba	8b 4d 08	 mov	 ecx, DWORD PTR __Ostr$[ebp]
  003bd	8b 11		 mov	 edx, DWORD PTR [ecx]
  003bf	8b 4d 08	 mov	 ecx, DWORD PTR __Ostr$[ebp]
  003c2	03 4a 04	 add	 ecx, DWORD PTR [edx+4]
  003c5	ff 15 00 00 00
	00		 call	 DWORD PTR __imp_?setstate@?$basic_ios@DU?$char_traits@D@std@@@std@@QAEXH_N@Z
  003cb	3b f4		 cmp	 esi, esp
  003cd	e8 00 00 00 00	 call	 __RTC_CheckEsp

; 535  :     return _Ostr;

  003d2	8b 45 08	 mov	 eax, DWORD PTR __Ostr$[ebp]
  003d5	89 85 cc fe ff
	ff		 mov	 DWORD PTR $T2[ebp], eax
  003db	c7 45 fc ff ff
	ff ff		 mov	 DWORD PTR __$EHRec$[ebp+12], -1
  003e2	8d 4d c8	 lea	 ecx, DWORD PTR __Ok$[ebp]
  003e5	e8 00 00 00 00	 call	 ??1sentry@?$basic_ostream@DU?$char_traits@D@std@@@std@@QAE@XZ ; std::basic_ostream<char,std::char_traits<char> >::sentry::~sentry
  003ea	8b 85 cc fe ff
	ff		 mov	 eax, DWORD PTR $T2[ebp]

; 536  : }

  003f0	52		 push	 edx
  003f1	8b cd		 mov	 ecx, ebp
  003f3	50		 push	 eax
  003f4	8d 15 00 00 00
	00		 lea	 edx, DWORD PTR $LN30@Insert_str
  003fa	e8 00 00 00 00	 call	 @_RTC_CheckStackVars@8
  003ff	58		 pop	 eax
  00400	5a		 pop	 edx
  00401	8b 4d f4	 mov	 ecx, DWORD PTR __$EHRec$[ebp+4]
  00404	64 89 0d 00 00
	00 00		 mov	 DWORD PTR fs:0, ecx
  0040b	59		 pop	 ecx
  0040c	5f		 pop	 edi
  0040d	5e		 pop	 esi
  0040e	5b		 pop	 ebx
  0040f	8b 4d ec	 mov	 ecx, DWORD PTR __$ArrayPad$[ebp]
  00412	33 cd		 xor	 ecx, ebp
  00414	e8 00 00 00 00	 call	 @__security_check_cookie@4
  00419	81 c4 4c 01 00
	00		 add	 esp, 332		; 0000014cH
  0041f	3b ec		 cmp	 ebp, esp
  00421	e8 00 00 00 00	 call	 __RTC_CheckEsp
  00426	8b e5		 mov	 esp, ebp
  00428	5d		 pop	 ebp
  00429	c3		 ret	 0
  0042a	66 90		 npad	 2
$LN30@Insert_str:
  0042c	01 00 00 00	 DD	 1
  00430	00 00 00 00	 DD	 $LN29@Insert_str
$LN29@Insert_str:
  00434	c8 ff ff ff	 DD	 -56			; ffffffc8H
  00438	08 00 00 00	 DD	 8
  0043c	00 00 00 00	 DD	 $LN27@Insert_str
$LN27@Insert_str:
  00440	5f		 DB	 95			; 0000005fH
  00441	4f		 DB	 79			; 0000004fH
  00442	6b		 DB	 107			; 0000006bH
  00443	00		 DB	 0
_TEXT	ENDS
;	COMDAT text$x
text$x	SEGMENT
__unwindfunclet$??$_Insert_string@DU?$char_traits@D@std@@I@std@@YAAAV?$basic_ostream@DU?$char_traits@D@std@@@0@AAV10@QBDI@Z$2:
  00000	8d 4d c8	 lea	 ecx, DWORD PTR __Ok$[ebp]
  00003	e9 00 00 00 00	 jmp	 ??1sentry@?$basic_ostream@DU?$char_traits@D@std@@@std@@QAE@XZ ; std::basic_ostream<char,std::char_traits<char> >::sentry::~sentry
  00008	cc		 int	 3
  00009	cc		 int	 3
  0000a	cc		 int	 3
  0000b	cc		 int	 3
  0000c	cc		 int	 3
__ehhandler$??$_Insert_string@DU?$char_traits@D@std@@I@std@@YAAAV?$basic_ostream@DU?$char_traits@D@std@@@0@AAV10@QBDI@Z:
  0000d	90		 npad	 1
  0000e	90		 npad	 1
  0000f	8b 54 24 08	 mov	 edx, DWORD PTR [esp+8]
  00013	8d 42 0c	 lea	 eax, DWORD PTR [edx+12]
  00016	8b 8a b0 fe ff
	ff		 mov	 ecx, DWORD PTR [edx-336]
  0001c	33 c8		 xor	 ecx, eax
  0001e	e8 00 00 00 00	 call	 @__security_check_cookie@4
  00023	8b 4a f8	 mov	 ecx, DWORD PTR [edx-8]
  00026	33 c8		 xor	 ecx, eax
  00028	e8 00 00 00 00	 call	 @__security_check_cookie@4
  0002d	b8 00 00 00 00	 mov	 eax, OFFSET __ehfuncinfo$??$_Insert_string@DU?$char_traits@D@std@@I@std@@YAAAV?$basic_ostream@DU?$char_traits@D@std@@@0@AAV10@QBDI@Z
  00032	e9 00 00 00 00	 jmp	 ___CxxFrameHandler3
text$x	ENDS
??$_Insert_string@DU?$char_traits@D@std@@I@std@@YAAAV?$basic_ostream@DU?$char_traits@D@std@@@0@AAV10@QBDI@Z ENDP ; std::_Insert_string<char,std::char_traits<char>,unsigned int>
; Function compile flags: /Odtp /RTCsu /ZI
; File C:\Program Files (x86)\Microsoft Visual Studio\2019\Community\VC\Tools\MSVC\14.29.30133\include\type_traits
;	COMDAT ??$move@AAV?$basic_istream@DU?$char_traits@D@std@@@std@@@std@@YA$$QAV?$basic_istream@DU?$char_traits@D@std@@@0@AAV10@@Z
_TEXT	SEGMENT
__Arg$ = 8						; size = 4
??$move@AAV?$basic_istream@DU?$char_traits@D@std@@@std@@@std@@YA$$QAV?$basic_istream@DU?$char_traits@D@std@@@0@AAV10@@Z PROC ; std::move<std::basic_istream<char,std::char_traits<char> > &>, COMDAT

; 1396 : _NODISCARD constexpr remove_reference_t<_Ty>&& move(_Ty&& _Arg) noexcept { // forward _Arg as movable

  00000	55		 push	 ebp
  00001	8b ec		 mov	 ebp, esp
  00003	81 ec c0 00 00
	00		 sub	 esp, 192		; 000000c0H
  00009	53		 push	 ebx
  0000a	56		 push	 esi
  0000b	57		 push	 edi
  0000c	8b fd		 mov	 edi, ebp
  0000e	33 c9		 xor	 ecx, ecx
  00010	b8 cc cc cc cc	 mov	 eax, -858993460		; ccccccccH
  00015	f3 ab		 rep stosd
  00017	b9 00 00 00 00	 mov	 ecx, OFFSET __589FA321_type_traits
  0001c	e8 00 00 00 00	 call	 @__CheckForDebuggerJustMyCode@4

; 1397 :     return static_cast<remove_reference_t<_Ty>&&>(_Arg);

  00021	8b 45 08	 mov	 eax, DWORD PTR __Arg$[ebp]

; 1398 : }

  00024	5f		 pop	 edi
  00025	5e		 pop	 esi
  00026	5b		 pop	 ebx
  00027	81 c4 c0 00 00
	00		 add	 esp, 192		; 000000c0H
  0002d	3b ec		 cmp	 ebp, esp
  0002f	e8 00 00 00 00	 call	 __RTC_CheckEsp
  00034	8b e5		 mov	 esp, ebp
  00036	5d		 pop	 ebp
  00037	c3		 ret	 0
??$move@AAV?$basic_istream@DU?$char_traits@D@std@@@std@@@std@@YA$$QAV?$basic_istream@DU?$char_traits@D@std@@@0@AAV10@@Z ENDP ; std::move<std::basic_istream<char,std::char_traits<char> > &>
_TEXT	ENDS
; Function compile flags: /Odtp /RTCsu /ZI
; File C:\Program Files (x86)\Microsoft Visual Studio\2019\Community\VC\Tools\MSVC\14.29.30133\include\ostream
;	COMDAT ??Bsentry@?$basic_ostream@DU?$char_traits@D@std@@@std@@QBE_NXZ
_TEXT	SEGMENT
_this$ = -8						; size = 4
??Bsentry@?$basic_ostream@DU?$char_traits@D@std@@@std@@QBE_NXZ PROC ; std::basic_ostream<char,std::char_traits<char> >::sentry::operator bool, COMDAT
; _this$ = ecx

; 123  :         explicit __CLR_OR_THIS_CALL operator bool() const {

  00000	55		 push	 ebp
  00001	8b ec		 mov	 ebp, esp
  00003	81 ec cc 00 00
	00		 sub	 esp, 204		; 000000ccH
  00009	53		 push	 ebx
  0000a	56		 push	 esi
  0000b	57		 push	 edi
  0000c	51		 push	 ecx
  0000d	8d 7d f4	 lea	 edi, DWORD PTR [ebp-12]
  00010	b9 03 00 00 00	 mov	 ecx, 3
  00015	b8 cc cc cc cc	 mov	 eax, -858993460		; ccccccccH
  0001a	f3 ab		 rep stosd
  0001c	59		 pop	 ecx
  0001d	89 4d f8	 mov	 DWORD PTR _this$[ebp], ecx
  00020	b9 00 00 00 00	 mov	 ecx, OFFSET __C12F3EA4_ostream
  00025	e8 00 00 00 00	 call	 @__CheckForDebuggerJustMyCode@4

; 124  :             return _Ok;

  0002a	8b 45 f8	 mov	 eax, DWORD PTR _this$[ebp]
  0002d	8a 40 04	 mov	 al, BYTE PTR [eax+4]

; 125  :         }

  00030	5f		 pop	 edi
  00031	5e		 pop	 esi
  00032	5b		 pop	 ebx
  00033	81 c4 cc 00 00
	00		 add	 esp, 204		; 000000ccH
  00039	3b ec		 cmp	 ebp, esp
  0003b	e8 00 00 00 00	 call	 __RTC_CheckEsp
  00040	8b e5		 mov	 esp, ebp
  00042	5d		 pop	 ebp
  00043	c3		 ret	 0
??Bsentry@?$basic_ostream@DU?$char_traits@D@std@@@std@@QBE_NXZ ENDP ; std::basic_ostream<char,std::char_traits<char> >::sentry::operator bool
_TEXT	ENDS
; Function compile flags: /Odtp /RTCsu /ZI
; File C:\Program Files (x86)\Microsoft Visual Studio\2019\Community\VC\Tools\MSVC\14.29.30133\include\ostream
;	COMDAT ??1sentry@?$basic_ostream@DU?$char_traits@D@std@@@std@@QAE@XZ
_TEXT	SEGMENT
tv72 = -229						; size = 1
__Zero_uncaught_exceptions$ = -29			; size = 1
_this$ = -20						; size = 4
__$EHRec$ = -12						; size = 12
??1sentry@?$basic_ostream@DU?$char_traits@D@std@@@std@@QAE@XZ PROC ; std::basic_ostream<char,std::char_traits<char> >::sentry::~sentry, COMDAT
; _this$ = ecx

; 108  :         __CLR_OR_THIS_CALL ~sentry() noexcept {

  00000	55		 push	 ebp
  00001	8b ec		 mov	 ebp, esp
  00003	6a ff		 push	 -1
  00005	68 00 00 00 00	 push	 __ehhandler$??1sentry@?$basic_ostream@DU?$char_traits@D@std@@@std@@QAE@XZ
  0000a	64 a1 00 00 00
	00		 mov	 eax, DWORD PTR fs:0
  00010	50		 push	 eax
  00011	81 ec dc 00 00
	00		 sub	 esp, 220		; 000000dcH
  00017	53		 push	 ebx
  00018	56		 push	 esi
  00019	57		 push	 edi
  0001a	51		 push	 ecx
  0001b	8d 7d d8	 lea	 edi, DWORD PTR [ebp-40]
  0001e	b9 07 00 00 00	 mov	 ecx, 7
  00023	b8 cc cc cc cc	 mov	 eax, -858993460		; ccccccccH
  00028	f3 ab		 rep stosd
  0002a	59		 pop	 ecx
  0002b	a1 00 00 00 00	 mov	 eax, DWORD PTR ___security_cookie
  00030	33 c5		 xor	 eax, ebp
  00032	50		 push	 eax
  00033	8d 45 f4	 lea	 eax, DWORD PTR __$EHRec$[ebp]
  00036	64 a3 00 00 00
	00		 mov	 DWORD PTR fs:0, eax
  0003c	89 4d ec	 mov	 DWORD PTR _this$[ebp], ecx
  0003f	b9 00 00 00 00	 mov	 ecx, OFFSET __C12F3EA4_ostream
  00044	e8 00 00 00 00	 call	 @__CheckForDebuggerJustMyCode@4

; 109  : #if !_HAS_EXCEPTIONS
; 110  :             const bool _Zero_uncaught_exceptions = true;
; 111  : #elif _HAS_DEPRECATED_UNCAUGHT_EXCEPTION
; 112  :             const bool _Zero_uncaught_exceptions = !_STD uncaught_exception(); // TRANSITION, ArchivedOS-12000909

  00049	e8 00 00 00 00	 call	 ?uncaught_exception@std@@YA_NXZ ; std::uncaught_exception
  0004e	0f b6 c0	 movzx	 eax, al
  00051	85 c0		 test	 eax, eax
  00053	75 09		 jne	 SHORT $LN4@sentry
  00055	c6 85 1b ff ff
	ff 01		 mov	 BYTE PTR tv72[ebp], 1
  0005c	eb 07		 jmp	 SHORT $LN5@sentry
$LN4@sentry:
  0005e	c6 85 1b ff ff
	ff 00		 mov	 BYTE PTR tv72[ebp], 0
$LN5@sentry:
  00065	8a 8d 1b ff ff
	ff		 mov	 cl, BYTE PTR tv72[ebp]
  0006b	88 4d e3	 mov	 BYTE PTR __Zero_uncaught_exceptions$[ebp], cl

; 113  : #else // ^^^ _HAS_DEPRECATED_UNCAUGHT_EXCEPTION / !_HAS_DEPRECATED_UNCAUGHT_EXCEPTION vvv
; 114  :             const bool _Zero_uncaught_exceptions = _STD uncaught_exceptions() == 0;
; 115  : #endif // !_HAS_DEPRECATED_UNCAUGHT_EXCEPTION
; 116  : 
; 117  :             if (_Zero_uncaught_exceptions) {

  0006e	0f b6 45 e3	 movzx	 eax, BYTE PTR __Zero_uncaught_exceptions$[ebp]
  00072	85 c0		 test	 eax, eax
  00074	74 14		 je	 SHORT $LN1@sentry

; 118  :                 this->_Myostr._Osfx();

  00076	8b f4		 mov	 esi, esp
  00078	8b 45 ec	 mov	 eax, DWORD PTR _this$[ebp]
  0007b	8b 08		 mov	 ecx, DWORD PTR [eax]
  0007d	ff 15 00 00 00
	00		 call	 DWORD PTR __imp_?_Osfx@?$basic_ostream@DU?$char_traits@D@std@@@std@@QAEXXZ
  00083	3b f4		 cmp	 esi, esp
  00085	e8 00 00 00 00	 call	 __RTC_CheckEsp
$LN1@sentry:

; 119  :             }
; 120  :         }

  0008a	8b 4d ec	 mov	 ecx, DWORD PTR _this$[ebp]
  0008d	e8 00 00 00 00	 call	 ??1_Sentry_base@?$basic_ostream@DU?$char_traits@D@std@@@std@@QAE@XZ ; std::basic_ostream<char,std::char_traits<char> >::_Sentry_base::~_Sentry_base
  00092	8b 4d f4	 mov	 ecx, DWORD PTR __$EHRec$[ebp]
  00095	64 89 0d 00 00
	00 00		 mov	 DWORD PTR fs:0, ecx
  0009c	59		 pop	 ecx
  0009d	5f		 pop	 edi
  0009e	5e		 pop	 esi
  0009f	5b		 pop	 ebx
  000a0	81 c4 e8 00 00
	00		 add	 esp, 232		; 000000e8H
  000a6	3b ec		 cmp	 ebp, esp
  000a8	e8 00 00 00 00	 call	 __RTC_CheckEsp
  000ad	8b e5		 mov	 esp, ebp
  000af	5d		 pop	 ebp
  000b0	c3		 ret	 0
  000b1	cc		 int	 3
  000b2	cc		 int	 3
  000b3	cc		 int	 3
  000b4	cc		 int	 3
  000b5	cc		 int	 3
_TEXT	ENDS
;	COMDAT text$x
text$x	SEGMENT
__ehhandler$??1sentry@?$basic_ostream@DU?$char_traits@D@std@@@std@@QAE@XZ:
  00000	90		 npad	 1
  00001	90		 npad	 1
  00002	8b 54 24 08	 mov	 edx, DWORD PTR [esp+8]
  00006	8d 42 0c	 lea	 eax, DWORD PTR [edx+12]
  00009	8b 8a 14 ff ff
	ff		 mov	 ecx, DWORD PTR [edx-236]
  0000f	33 c8		 xor	 ecx, eax
  00011	e8 00 00 00 00	 call	 @__security_check_cookie@4
  00016	b8 00 00 00 00	 mov	 eax, OFFSET __ehfuncinfo$??1sentry@?$basic_ostream@DU?$char_traits@D@std@@@std@@QAE@XZ
  0001b	e9 00 00 00 00	 jmp	 ___CxxFrameHandler3
text$x	ENDS
??1sentry@?$basic_ostream@DU?$char_traits@D@std@@@std@@QAE@XZ ENDP ; std::basic_ostream<char,std::char_traits<char> >::sentry::~sentry
; Function compile flags: /Odtp /RTCsu /ZI
; File C:\Program Files (x86)\Microsoft Visual Studio\2019\Community\VC\Tools\MSVC\14.29.30133\include\ostream
;	COMDAT ??0sentry@?$basic_ostream@DU?$char_traits@D@std@@@std@@QAE@AAV12@@Z
_TEXT	SEGMENT
__Tied$ = -32						; size = 4
_this$ = -20						; size = 4
__$EHRec$ = -12						; size = 12
__Ostr$ = 8						; size = 4
??0sentry@?$basic_ostream@DU?$char_traits@D@std@@@std@@QAE@AAV12@@Z PROC ; std::basic_ostream<char,std::char_traits<char> >::sentry::sentry, COMDAT
; _this$ = ecx

; 91   :         explicit __CLR_OR_THIS_CALL sentry(basic_ostream& _Ostr) : _Sentry_base(_Ostr) {

  00000	55		 push	 ebp
  00001	8b ec		 mov	 ebp, esp
  00003	6a ff		 push	 -1
  00005	68 00 00 00 00	 push	 __ehhandler$??0sentry@?$basic_ostream@DU?$char_traits@D@std@@@std@@QAE@AAV12@@Z
  0000a	64 a1 00 00 00
	00		 mov	 eax, DWORD PTR fs:0
  00010	50		 push	 eax
  00011	81 ec d8 00 00
	00		 sub	 esp, 216		; 000000d8H
  00017	53		 push	 ebx
  00018	56		 push	 esi
  00019	57		 push	 edi
  0001a	51		 push	 ecx
  0001b	8d 7d dc	 lea	 edi, DWORD PTR [ebp-36]
  0001e	b9 06 00 00 00	 mov	 ecx, 6
  00023	b8 cc cc cc cc	 mov	 eax, -858993460		; ccccccccH
  00028	f3 ab		 rep stosd
  0002a	59		 pop	 ecx
  0002b	a1 00 00 00 00	 mov	 eax, DWORD PTR ___security_cookie
  00030	33 c5		 xor	 eax, ebp
  00032	50		 push	 eax
  00033	8d 45 f4	 lea	 eax, DWORD PTR __$EHRec$[ebp]
  00036	64 a3 00 00 00
	00		 mov	 DWORD PTR fs:0, eax
  0003c	89 4d ec	 mov	 DWORD PTR _this$[ebp], ecx
  0003f	b9 00 00 00 00	 mov	 ecx, OFFSET __C12F3EA4_ostream
  00044	e8 00 00 00 00	 call	 @__CheckForDebuggerJustMyCode@4
  00049	8b 45 08	 mov	 eax, DWORD PTR __Ostr$[ebp]
  0004c	50		 push	 eax
  0004d	8b 4d ec	 mov	 ecx, DWORD PTR _this$[ebp]
  00050	e8 00 00 00 00	 call	 ??0_Sentry_base@?$basic_ostream@DU?$char_traits@D@std@@@std@@QAE@AAV12@@Z ; std::basic_ostream<char,std::char_traits<char> >::_Sentry_base::_Sentry_base
  00055	c7 45 fc 00 00
	00 00		 mov	 DWORD PTR __$EHRec$[ebp+8], 0

; 92   :             if (!_Ostr.good()) {

  0005c	8b 45 08	 mov	 eax, DWORD PTR __Ostr$[ebp]
  0005f	8b 08		 mov	 ecx, DWORD PTR [eax]
  00061	8b 55 08	 mov	 edx, DWORD PTR __Ostr$[ebp]
  00064	03 51 04	 add	 edx, DWORD PTR [ecx+4]
  00067	8b f4		 mov	 esi, esp
  00069	8b ca		 mov	 ecx, edx
  0006b	ff 15 00 00 00
	00		 call	 DWORD PTR __imp_?good@ios_base@std@@QBE_NXZ
  00071	3b f4		 cmp	 esi, esp
  00073	e8 00 00 00 00	 call	 __RTC_CheckEsp
  00078	0f b6 c0	 movzx	 eax, al
  0007b	85 c0		 test	 eax, eax
  0007d	75 09		 jne	 SHORT $LN2@sentry

; 93   :                 _Ok = false;

  0007f	8b 45 ec	 mov	 eax, DWORD PTR _this$[ebp]
  00082	c6 40 04 00	 mov	 BYTE PTR [eax+4], 0

; 94   :                 return;

  00086	eb 6a		 jmp	 SHORT $LN1@sentry
$LN2@sentry:

; 95   :             }
; 96   : 
; 97   :             const auto _Tied = _Ostr.tie();

  00088	8b 45 08	 mov	 eax, DWORD PTR __Ostr$[ebp]
  0008b	8b 08		 mov	 ecx, DWORD PTR [eax]
  0008d	8b 55 08	 mov	 edx, DWORD PTR __Ostr$[ebp]
  00090	03 51 04	 add	 edx, DWORD PTR [ecx+4]
  00093	8b f4		 mov	 esi, esp
  00095	8b ca		 mov	 ecx, edx
  00097	ff 15 00 00 00
	00		 call	 DWORD PTR __imp_?tie@?$basic_ios@DU?$char_traits@D@std@@@std@@QBEPAV?$basic_ostream@DU?$char_traits@D@std@@@2@XZ
  0009d	3b f4		 cmp	 esi, esp
  0009f	e8 00 00 00 00	 call	 __RTC_CheckEsp
  000a4	89 45 e0	 mov	 DWORD PTR __Tied$[ebp], eax

; 98   :             if (!_Tied || _Tied == &_Ostr) {

  000a7	83 7d e0 00	 cmp	 DWORD PTR __Tied$[ebp], 0
  000ab	74 08		 je	 SHORT $LN4@sentry
  000ad	8b 45 e0	 mov	 eax, DWORD PTR __Tied$[ebp]
  000b0	3b 45 08	 cmp	 eax, DWORD PTR __Ostr$[ebp]
  000b3	75 09		 jne	 SHORT $LN3@sentry
$LN4@sentry:

; 99   :                 _Ok = true;

  000b5	8b 45 ec	 mov	 eax, DWORD PTR _this$[ebp]
  000b8	c6 40 04 01	 mov	 BYTE PTR [eax+4], 1

; 100  :                 return;

  000bc	eb 34		 jmp	 SHORT $LN1@sentry
$LN3@sentry:

; 101  :             }
; 102  : 
; 103  :             _Tied->flush();

  000be	8b f4		 mov	 esi, esp
  000c0	8b 4d e0	 mov	 ecx, DWORD PTR __Tied$[ebp]
  000c3	ff 15 00 00 00
	00		 call	 DWORD PTR __imp_?flush@?$basic_ostream@DU?$char_traits@D@std@@@std@@QAEAAV12@XZ
  000c9	3b f4		 cmp	 esi, esp
  000cb	e8 00 00 00 00	 call	 __RTC_CheckEsp

; 104  :             _Ok = _Ostr.good(); // store test only after flushing tie

  000d0	8b 45 08	 mov	 eax, DWORD PTR __Ostr$[ebp]
  000d3	8b 08		 mov	 ecx, DWORD PTR [eax]
  000d5	8b 55 08	 mov	 edx, DWORD PTR __Ostr$[ebp]
  000d8	03 51 04	 add	 edx, DWORD PTR [ecx+4]
  000db	8b f4		 mov	 esi, esp
  000dd	8b ca		 mov	 ecx, edx
  000df	ff 15 00 00 00
	00		 call	 DWORD PTR __imp_?good@ios_base@std@@QBE_NXZ
  000e5	3b f4		 cmp	 esi, esp
  000e7	e8 00 00 00 00	 call	 __RTC_CheckEsp
  000ec	8b 4d ec	 mov	 ecx, DWORD PTR _this$[ebp]
  000ef	88 41 04	 mov	 BYTE PTR [ecx+4], al
$LN1@sentry:

; 105  :         }

  000f2	c7 45 fc ff ff
	ff ff		 mov	 DWORD PTR __$EHRec$[ebp+8], -1
  000f9	8b 45 ec	 mov	 eax, DWORD PTR _this$[ebp]
  000fc	8b 4d f4	 mov	 ecx, DWORD PTR __$EHRec$[ebp]
  000ff	64 89 0d 00 00
	00 00		 mov	 DWORD PTR fs:0, ecx
  00106	59		 pop	 ecx
  00107	5f		 pop	 edi
  00108	5e		 pop	 esi
  00109	5b		 pop	 ebx
  0010a	81 c4 e4 00 00
	00		 add	 esp, 228		; 000000e4H
  00110	3b ec		 cmp	 ebp, esp
  00112	e8 00 00 00 00	 call	 __RTC_CheckEsp
  00117	8b e5		 mov	 esp, ebp
  00119	5d		 pop	 ebp
  0011a	c2 04 00	 ret	 4
_TEXT	ENDS
;	COMDAT text$x
text$x	SEGMENT
__unwindfunclet$??0sentry@?$basic_ostream@DU?$char_traits@D@std@@@std@@QAE@AAV12@@Z$0:
  00000	8b 4d ec	 mov	 ecx, DWORD PTR _this$[ebp]
  00003	e9 00 00 00 00	 jmp	 ??1_Sentry_base@?$basic_ostream@DU?$char_traits@D@std@@@std@@QAE@XZ ; std::basic_ostream<char,std::char_traits<char> >::_Sentry_base::~_Sentry_base
  00008	cc		 int	 3
  00009	cc		 int	 3
  0000a	cc		 int	 3
  0000b	cc		 int	 3
  0000c	cc		 int	 3
__ehhandler$??0sentry@?$basic_ostream@DU?$char_traits@D@std@@@std@@QAE@AAV12@@Z:
  0000d	90		 npad	 1
  0000e	90		 npad	 1
  0000f	8b 54 24 08	 mov	 edx, DWORD PTR [esp+8]
  00013	8d 42 0c	 lea	 eax, DWORD PTR [edx+12]
  00016	8b 8a 18 ff ff
	ff		 mov	 ecx, DWORD PTR [edx-232]
  0001c	33 c8		 xor	 ecx, eax
  0001e	e8 00 00 00 00	 call	 @__security_check_cookie@4
  00023	b8 00 00 00 00	 mov	 eax, OFFSET __ehfuncinfo$??0sentry@?$basic_ostream@DU?$char_traits@D@std@@@std@@QAE@AAV12@@Z
  00028	e9 00 00 00 00	 jmp	 ___CxxFrameHandler3
text$x	ENDS
??0sentry@?$basic_ostream@DU?$char_traits@D@std@@@std@@QAE@AAV12@@Z ENDP ; std::basic_ostream<char,std::char_traits<char> >::sentry::sentry
; Function compile flags: /Odtp /RTCsu /ZI
; File C:\Program Files (x86)\Microsoft Visual Studio\2019\Community\VC\Tools\MSVC\14.29.30133\include\ostream
;	COMDAT ??1_Sentry_base@?$basic_ostream@DU?$char_traits@D@std@@@std@@QAE@XZ
_TEXT	SEGMENT
tv72 = -232						; size = 4
__Rdbuf$ = -32						; size = 4
_this$ = -20						; size = 4
__$EHRec$ = -12						; size = 12
??1_Sentry_base@?$basic_ostream@DU?$char_traits@D@std@@@std@@QAE@XZ PROC ; std::basic_ostream<char,std::char_traits<char> >::_Sentry_base::~_Sentry_base, COMDAT
; _this$ = ecx

; 77   :         __CLR_OR_THIS_CALL ~_Sentry_base() noexcept { // destroy after unlocking

  00000	55		 push	 ebp
  00001	8b ec		 mov	 ebp, esp
  00003	6a ff		 push	 -1
  00005	68 00 00 00 00	 push	 __ehhandler$??1_Sentry_base@?$basic_ostream@DU?$char_traits@D@std@@@std@@QAE@XZ
  0000a	64 a1 00 00 00
	00		 mov	 eax, DWORD PTR fs:0
  00010	50		 push	 eax
  00011	81 ec dc 00 00
	00		 sub	 esp, 220		; 000000dcH
  00017	53		 push	 ebx
  00018	56		 push	 esi
  00019	57		 push	 edi
  0001a	51		 push	 ecx
  0001b	8d 7d d8	 lea	 edi, DWORD PTR [ebp-40]
  0001e	b9 07 00 00 00	 mov	 ecx, 7
  00023	b8 cc cc cc cc	 mov	 eax, -858993460		; ccccccccH
  00028	f3 ab		 rep stosd
  0002a	59		 pop	 ecx
  0002b	a1 00 00 00 00	 mov	 eax, DWORD PTR ___security_cookie
  00030	33 c5		 xor	 eax, ebp
  00032	50		 push	 eax
  00033	8d 45 f4	 lea	 eax, DWORD PTR __$EHRec$[ebp]
  00036	64 a3 00 00 00
	00		 mov	 DWORD PTR fs:0, eax
  0003c	89 4d ec	 mov	 DWORD PTR _this$[ebp], ecx
  0003f	b9 00 00 00 00	 mov	 ecx, OFFSET __C12F3EA4_ostream
  00044	e8 00 00 00 00	 call	 @__CheckForDebuggerJustMyCode@4

; 78   :             const auto _Rdbuf = _Myostr.rdbuf();

  00049	8b 45 ec	 mov	 eax, DWORD PTR _this$[ebp]
  0004c	8b 08		 mov	 ecx, DWORD PTR [eax]
  0004e	89 8d 18 ff ff
	ff		 mov	 DWORD PTR tv72[ebp], ecx
  00054	8b 95 18 ff ff
	ff		 mov	 edx, DWORD PTR tv72[ebp]
  0005a	8b 02		 mov	 eax, DWORD PTR [edx]
  0005c	8b 8d 18 ff ff
	ff		 mov	 ecx, DWORD PTR tv72[ebp]
  00062	03 48 04	 add	 ecx, DWORD PTR [eax+4]
  00065	8b f4		 mov	 esi, esp
  00067	ff 15 00 00 00
	00		 call	 DWORD PTR __imp_?rdbuf@?$basic_ios@DU?$char_traits@D@std@@@std@@QBEPAV?$basic_streambuf@DU?$char_traits@D@std@@@2@XZ
  0006d	3b f4		 cmp	 esi, esp
  0006f	e8 00 00 00 00	 call	 __RTC_CheckEsp
  00074	89 45 e0	 mov	 DWORD PTR __Rdbuf$[ebp], eax

; 79   :             if (_Rdbuf) {

  00077	83 7d e0 00	 cmp	 DWORD PTR __Rdbuf$[ebp], 0
  0007b	74 16		 je	 SHORT $LN3@Sentry_bas

; 80   :                 _Rdbuf->_Unlock();

  0007d	8b 45 e0	 mov	 eax, DWORD PTR __Rdbuf$[ebp]
  00080	8b 10		 mov	 edx, DWORD PTR [eax]
  00082	8b f4		 mov	 esi, esp
  00084	8b 4d e0	 mov	 ecx, DWORD PTR __Rdbuf$[ebp]
  00087	8b 42 08	 mov	 eax, DWORD PTR [edx+8]
  0008a	ff d0		 call	 eax
  0008c	3b f4		 cmp	 esi, esp
  0008e	e8 00 00 00 00	 call	 __RTC_CheckEsp
$LN3@Sentry_bas:

; 81   :             }
; 82   :         }

  00093	8b 4d f4	 mov	 ecx, DWORD PTR __$EHRec$[ebp]
  00096	64 89 0d 00 00
	00 00		 mov	 DWORD PTR fs:0, ecx
  0009d	59		 pop	 ecx
  0009e	5f		 pop	 edi
  0009f	5e		 pop	 esi
  000a0	5b		 pop	 ebx
  000a1	81 c4 e8 00 00
	00		 add	 esp, 232		; 000000e8H
  000a7	3b ec		 cmp	 ebp, esp
  000a9	e8 00 00 00 00	 call	 __RTC_CheckEsp
  000ae	8b e5		 mov	 esp, ebp
  000b0	5d		 pop	 ebp
  000b1	c3		 ret	 0
  000b2	cc		 int	 3
  000b3	cc		 int	 3
  000b4	cc		 int	 3
  000b5	cc		 int	 3
  000b6	cc		 int	 3
_TEXT	ENDS
;	COMDAT text$x
text$x	SEGMENT
__ehhandler$??1_Sentry_base@?$basic_ostream@DU?$char_traits@D@std@@@std@@QAE@XZ:
  00000	90		 npad	 1
  00001	90		 npad	 1
  00002	8b 54 24 08	 mov	 edx, DWORD PTR [esp+8]
  00006	8d 42 0c	 lea	 eax, DWORD PTR [edx+12]
  00009	8b 8a 14 ff ff
	ff		 mov	 ecx, DWORD PTR [edx-236]
  0000f	33 c8		 xor	 ecx, eax
  00011	e8 00 00 00 00	 call	 @__security_check_cookie@4
  00016	b8 00 00 00 00	 mov	 eax, OFFSET __ehfuncinfo$??1_Sentry_base@?$basic_ostream@DU?$char_traits@D@std@@@std@@QAE@XZ
  0001b	e9 00 00 00 00	 jmp	 ___CxxFrameHandler3
text$x	ENDS
??1_Sentry_base@?$basic_ostream@DU?$char_traits@D@std@@@std@@QAE@XZ ENDP ; std::basic_ostream<char,std::char_traits<char> >::_Sentry_base::~_Sentry_base
; Function compile flags: /Odtp /RTCsu /ZI
; File C:\Program Files (x86)\Microsoft Visual Studio\2019\Community\VC\Tools\MSVC\14.29.30133\include\ostream
;	COMDAT ??0_Sentry_base@?$basic_ostream@DU?$char_traits@D@std@@@std@@QAE@AAV12@@Z
_TEXT	SEGMENT
tv73 = -220						; size = 4
__Rdbuf$ = -20						; size = 4
_this$ = -8						; size = 4
__Ostr$ = 8						; size = 4
??0_Sentry_base@?$basic_ostream@DU?$char_traits@D@std@@@std@@QAE@AAV12@@Z PROC ; std::basic_ostream<char,std::char_traits<char> >::_Sentry_base::_Sentry_base, COMDAT
; _this$ = ecx

; 70   :         __CLR_OR_THIS_CALL _Sentry_base(basic_ostream& _Ostr) : _Myostr(_Ostr) { // lock the stream buffer, if there

  00000	55		 push	 ebp
  00001	8b ec		 mov	 ebp, esp
  00003	81 ec dc 00 00
	00		 sub	 esp, 220		; 000000dcH
  00009	53		 push	 ebx
  0000a	56		 push	 esi
  0000b	57		 push	 edi
  0000c	51		 push	 ecx
  0000d	8d 7d e4	 lea	 edi, DWORD PTR [ebp-28]
  00010	b9 07 00 00 00	 mov	 ecx, 7
  00015	b8 cc cc cc cc	 mov	 eax, -858993460		; ccccccccH
  0001a	f3 ab		 rep stosd
  0001c	59		 pop	 ecx
  0001d	89 4d f8	 mov	 DWORD PTR _this$[ebp], ecx
  00020	b9 00 00 00 00	 mov	 ecx, OFFSET __C12F3EA4_ostream
  00025	e8 00 00 00 00	 call	 @__CheckForDebuggerJustMyCode@4
  0002a	8b 45 f8	 mov	 eax, DWORD PTR _this$[ebp]
  0002d	8b 4d 08	 mov	 ecx, DWORD PTR __Ostr$[ebp]
  00030	89 08		 mov	 DWORD PTR [eax], ecx

; 71   :             const auto _Rdbuf = _Myostr.rdbuf();

  00032	8b 45 f8	 mov	 eax, DWORD PTR _this$[ebp]
  00035	8b 08		 mov	 ecx, DWORD PTR [eax]
  00037	89 8d 24 ff ff
	ff		 mov	 DWORD PTR tv73[ebp], ecx
  0003d	8b 95 24 ff ff
	ff		 mov	 edx, DWORD PTR tv73[ebp]
  00043	8b 02		 mov	 eax, DWORD PTR [edx]
  00045	8b 8d 24 ff ff
	ff		 mov	 ecx, DWORD PTR tv73[ebp]
  0004b	03 48 04	 add	 ecx, DWORD PTR [eax+4]
  0004e	8b f4		 mov	 esi, esp
  00050	ff 15 00 00 00
	00		 call	 DWORD PTR __imp_?rdbuf@?$basic_ios@DU?$char_traits@D@std@@@std@@QBEPAV?$basic_streambuf@DU?$char_traits@D@std@@@2@XZ
  00056	3b f4		 cmp	 esi, esp
  00058	e8 00 00 00 00	 call	 __RTC_CheckEsp
  0005d	89 45 ec	 mov	 DWORD PTR __Rdbuf$[ebp], eax

; 72   :             if (_Rdbuf) {

  00060	83 7d ec 00	 cmp	 DWORD PTR __Rdbuf$[ebp], 0
  00064	74 16		 je	 SHORT $LN1@Sentry_bas

; 73   :                 _Rdbuf->_Lock();

  00066	8b 45 ec	 mov	 eax, DWORD PTR __Rdbuf$[ebp]
  00069	8b 10		 mov	 edx, DWORD PTR [eax]
  0006b	8b f4		 mov	 esi, esp
  0006d	8b 4d ec	 mov	 ecx, DWORD PTR __Rdbuf$[ebp]
  00070	8b 42 04	 mov	 eax, DWORD PTR [edx+4]
  00073	ff d0		 call	 eax
  00075	3b f4		 cmp	 esi, esp
  00077	e8 00 00 00 00	 call	 __RTC_CheckEsp
$LN1@Sentry_bas:

; 74   :             }
; 75   :         }

  0007c	8b 45 f8	 mov	 eax, DWORD PTR _this$[ebp]
  0007f	5f		 pop	 edi
  00080	5e		 pop	 esi
  00081	5b		 pop	 ebx
  00082	81 c4 dc 00 00
	00		 add	 esp, 220		; 000000dcH
  00088	3b ec		 cmp	 ebp, esp
  0008a	e8 00 00 00 00	 call	 __RTC_CheckEsp
  0008f	8b e5		 mov	 esp, ebp
  00091	5d		 pop	 ebp
  00092	c2 04 00	 ret	 4
??0_Sentry_base@?$basic_ostream@DU?$char_traits@D@std@@@std@@QAE@AAV12@@Z ENDP ; std::basic_ostream<char,std::char_traits<char> >::_Sentry_base::_Sentry_base
_TEXT	ENDS
; Function compile flags: /Odtp /RTCsu /ZI
; File C:\Program Files (x86)\Microsoft Visual Studio\2019\Community\VC\Tools\MSVC\14.29.30133\include\xstring
;	COMDAT ??$?6DU?$char_traits@D@std@@V?$allocator@D@1@@std@@YAAAV?$basic_ostream@DU?$char_traits@D@std@@@0@AAV10@ABV?$basic_string@DU?$char_traits@D@std@@V?$allocator@D@2@@0@@Z
_TEXT	SEGMENT
__Ostr$ = 8						; size = 4
__Str$ = 12						; size = 4
??$?6DU?$char_traits@D@std@@V?$allocator@D@1@@std@@YAAAV?$basic_ostream@DU?$char_traits@D@std@@@0@AAV10@ABV?$basic_string@DU?$char_traits@D@std@@V?$allocator@D@2@@0@@Z PROC ; std::operator<<<char,std::char_traits<char>,std::allocator<char> >, COMDAT

; 4946 :     basic_ostream<_Elem, _Traits>& _Ostr, const basic_string<_Elem, _Traits, _Alloc>& _Str) {

  00000	55		 push	 ebp
  00001	8b ec		 mov	 ebp, esp
  00003	81 ec c0 00 00
	00		 sub	 esp, 192		; 000000c0H
  00009	53		 push	 ebx
  0000a	56		 push	 esi
  0000b	57		 push	 edi
  0000c	8b fd		 mov	 edi, ebp
  0000e	33 c9		 xor	 ecx, ecx
  00010	b8 cc cc cc cc	 mov	 eax, -858993460		; ccccccccH
  00015	f3 ab		 rep stosd
  00017	b9 00 00 00 00	 mov	 ecx, OFFSET __0D019051_xstring
  0001c	e8 00 00 00 00	 call	 @__CheckForDebuggerJustMyCode@4

; 4947 :     return _Insert_string(_Ostr, _Str.data(), _Str.size());

  00021	8b 4d 0c	 mov	 ecx, DWORD PTR __Str$[ebp]
  00024	e8 00 00 00 00	 call	 ?size@?$basic_string@DU?$char_traits@D@std@@V?$allocator@D@2@@std@@QBEIXZ ; std::basic_string<char,std::char_traits<char>,std::allocator<char> >::size
  00029	50		 push	 eax
  0002a	8b 4d 0c	 mov	 ecx, DWORD PTR __Str$[ebp]
  0002d	e8 00 00 00 00	 call	 ?data@?$basic_string@DU?$char_traits@D@std@@V?$allocator@D@2@@std@@QBEPBDXZ ; std::basic_string<char,std::char_traits<char>,std::allocator<char> >::data
  00032	50		 push	 eax
  00033	8b 45 08	 mov	 eax, DWORD PTR __Ostr$[ebp]
  00036	50		 push	 eax
  00037	e8 00 00 00 00	 call	 ??$_Insert_string@DU?$char_traits@D@std@@I@std@@YAAAV?$basic_ostream@DU?$char_traits@D@std@@@0@AAV10@QBDI@Z ; std::_Insert_string<char,std::char_traits<char>,unsigned int>
  0003c	83 c4 0c	 add	 esp, 12			; 0000000cH

; 4948 : }

  0003f	5f		 pop	 edi
  00040	5e		 pop	 esi
  00041	5b		 pop	 ebx
  00042	81 c4 c0 00 00
	00		 add	 esp, 192		; 000000c0H
  00048	3b ec		 cmp	 ebp, esp
  0004a	e8 00 00 00 00	 call	 __RTC_CheckEsp
  0004f	8b e5		 mov	 esp, ebp
  00051	5d		 pop	 ebp
  00052	c3		 ret	 0
??$?6DU?$char_traits@D@std@@V?$allocator@D@1@@std@@YAAAV?$basic_ostream@DU?$char_traits@D@std@@@0@AAV10@ABV?$basic_string@DU?$char_traits@D@std@@V?$allocator@D@2@@0@@Z ENDP ; std::operator<<<char,std::char_traits<char>,std::allocator<char> >
_TEXT	ENDS
; Function compile flags: /Odtp /RTCsu /ZI
; File C:\Program Files (x86)\Microsoft Visual Studio\2019\Community\VC\Tools\MSVC\14.29.30133\include\ostream
;	COMDAT ??$endl@DU?$char_traits@D@std@@@std@@YAAAV?$basic_ostream@DU?$char_traits@D@std@@@0@AAV10@@Z
_TEXT	SEGMENT
__Ostr$ = 8						; size = 4
??$endl@DU?$char_traits@D@std@@@std@@YAAAV?$basic_ostream@DU?$char_traits@D@std@@@0@AAV10@@Z PROC ; std::endl<char,std::char_traits<char> >, COMDAT

; 974  :     basic_ostream<_Elem, _Traits>& _Ostr) { // insert newline and flush stream

  00000	55		 push	 ebp
  00001	8b ec		 mov	 ebp, esp
  00003	81 ec c0 00 00
	00		 sub	 esp, 192		; 000000c0H
  00009	53		 push	 ebx
  0000a	56		 push	 esi
  0000b	57		 push	 edi
  0000c	8b fd		 mov	 edi, ebp
  0000e	33 c9		 xor	 ecx, ecx
  00010	b8 cc cc cc cc	 mov	 eax, -858993460		; ccccccccH
  00015	f3 ab		 rep stosd
  00017	b9 00 00 00 00	 mov	 ecx, OFFSET __C12F3EA4_ostream
  0001c	e8 00 00 00 00	 call	 @__CheckForDebuggerJustMyCode@4

; 975  :     _Ostr.put(_Ostr.widen('\n'));

  00021	8b f4		 mov	 esi, esp
  00023	6a 0a		 push	 10			; 0000000aH
  00025	8b 45 08	 mov	 eax, DWORD PTR __Ostr$[ebp]
  00028	8b 08		 mov	 ecx, DWORD PTR [eax]
  0002a	8b 55 08	 mov	 edx, DWORD PTR __Ostr$[ebp]
  0002d	03 51 04	 add	 edx, DWORD PTR [ecx+4]
  00030	8b ca		 mov	 ecx, edx
  00032	ff 15 00 00 00
	00		 call	 DWORD PTR __imp_?widen@?$basic_ios@DU?$char_traits@D@std@@@std@@QBEDD@Z
  00038	3b f4		 cmp	 esi, esp
  0003a	e8 00 00 00 00	 call	 __RTC_CheckEsp
  0003f	8b f4		 mov	 esi, esp
  00041	0f b6 c0	 movzx	 eax, al
  00044	50		 push	 eax
  00045	8b 4d 08	 mov	 ecx, DWORD PTR __Ostr$[ebp]
  00048	ff 15 00 00 00
	00		 call	 DWORD PTR __imp_?put@?$basic_ostream@DU?$char_traits@D@std@@@std@@QAEAAV12@D@Z
  0004e	3b f4		 cmp	 esi, esp
  00050	e8 00 00 00 00	 call	 __RTC_CheckEsp

; 976  :     _Ostr.flush();

  00055	8b f4		 mov	 esi, esp
  00057	8b 4d 08	 mov	 ecx, DWORD PTR __Ostr$[ebp]
  0005a	ff 15 00 00 00
	00		 call	 DWORD PTR __imp_?flush@?$basic_ostream@DU?$char_traits@D@std@@@std@@QAEAAV12@XZ
  00060	3b f4		 cmp	 esi, esp
  00062	e8 00 00 00 00	 call	 __RTC_CheckEsp

; 977  :     return _Ostr;

  00067	8b 45 08	 mov	 eax, DWORD PTR __Ostr$[ebp]

; 978  : }

  0006a	5f		 pop	 edi
  0006b	5e		 pop	 esi
  0006c	5b		 pop	 ebx
  0006d	81 c4 c0 00 00
	00		 add	 esp, 192		; 000000c0H
  00073	3b ec		 cmp	 ebp, esp
  00075	e8 00 00 00 00	 call	 __RTC_CheckEsp
  0007a	8b e5		 mov	 esp, ebp
  0007c	5d		 pop	 ebp
  0007d	c3		 ret	 0
??$endl@DU?$char_traits@D@std@@@std@@YAAAV?$basic_ostream@DU?$char_traits@D@std@@@0@AAV10@@Z ENDP ; std::endl<char,std::char_traits<char> >
_TEXT	ENDS
; Function compile flags: /Odtp /RTCsu /ZI
; File C:\Program Files (x86)\Microsoft Visual Studio\2019\Community\VC\Tools\MSVC\14.29.30133\include\xutility
;	COMDAT ??$size@V?$basic_string@DU?$char_traits@D@std@@V?$allocator@D@2@@std@@@std@@YAIABV?$basic_string@DU?$char_traits@D@std@@V?$allocator@D@2@@0@@Z
_TEXT	SEGMENT
__Cont$ = 8						; size = 4
??$size@V?$basic_string@DU?$char_traits@D@std@@V?$allocator@D@2@@std@@@std@@YAIABV?$basic_string@DU?$char_traits@D@std@@V?$allocator@D@2@@0@@Z PROC ; std::size<std::basic_string<char,std::char_traits<char>,std::allocator<char> > >, COMDAT

; 1936 : _NODISCARD constexpr auto size(const _Container& _Cont) -> decltype(_Cont.size()) {

  00000	55		 push	 ebp
  00001	8b ec		 mov	 ebp, esp
  00003	81 ec c0 00 00
	00		 sub	 esp, 192		; 000000c0H
  00009	53		 push	 ebx
  0000a	56		 push	 esi
  0000b	57		 push	 edi
  0000c	8b fd		 mov	 edi, ebp
  0000e	33 c9		 xor	 ecx, ecx
  00010	b8 cc cc cc cc	 mov	 eax, -858993460		; ccccccccH
  00015	f3 ab		 rep stosd
  00017	b9 00 00 00 00	 mov	 ecx, OFFSET __12269DE6_xutility
  0001c	e8 00 00 00 00	 call	 @__CheckForDebuggerJustMyCode@4

; 1937 :     return _Cont.size();

  00021	8b 4d 08	 mov	 ecx, DWORD PTR __Cont$[ebp]
  00024	e8 00 00 00 00	 call	 ?size@?$basic_string@DU?$char_traits@D@std@@V?$allocator@D@2@@std@@QBEIXZ ; std::basic_string<char,std::char_traits<char>,std::allocator<char> >::size

; 1938 : }

  00029	5f		 pop	 edi
  0002a	5e		 pop	 esi
  0002b	5b		 pop	 ebx
  0002c	81 c4 c0 00 00
	00		 add	 esp, 192		; 000000c0H
  00032	3b ec		 cmp	 ebp, esp
  00034	e8 00 00 00 00	 call	 __RTC_CheckEsp
  00039	8b e5		 mov	 esp, ebp
  0003b	5d		 pop	 ebp
  0003c	c3		 ret	 0
??$size@V?$basic_string@DU?$char_traits@D@std@@V?$allocator@D@2@@std@@@std@@YAIABV?$basic_string@DU?$char_traits@D@std@@V?$allocator@D@2@@0@@Z ENDP ; std::size<std::basic_string<char,std::char_traits<char>,std::allocator<char> > >
_TEXT	ENDS
; Function compile flags: /Odtp /RTCsu /ZI
; File C:\Program Files (x86)\Microsoft Visual Studio\2019\Community\VC\Tools\MSVC\14.29.30133\include\xstring
;	COMDAT ??$?5DU?$char_traits@D@std@@V?$allocator@D@1@@std@@YAAAV?$basic_istream@DU?$char_traits@D@std@@@0@$$QAV10@AAV?$basic_string@DU?$char_traits@D@std@@V?$allocator@D@2@@0@@Z
_TEXT	SEGMENT
tv261 = -336						; size = 4
tv259 = -336						; size = 4
tv257 = -336						; size = 8
tv256 = -336						; size = 8
tv255 = -336						; size = 8
tv252 = -336						; size = 4
tv260 = -332						; size = 4
tv258 = -332						; size = 4
tv65 = -332						; size = 4
tv262 = -329						; size = 1
$T2 = -324						; size = 4
$T3 = -312						; size = 4
$T4 = -300						; size = 8
__Meta$5 = -92						; size = 4
__Size$6 = -80						; size = 4
__Ctype_fac$7 = -68					; size = 4
__Ok$ = -56						; size = 8
__Changed$ = -37					; size = 1
__State$ = -28						; size = 4
__$ArrayPad$ = -20					; size = 4
__$EHRec$ = -16						; size = 16
__Istr$ = 8						; size = 4
__Str$ = 12						; size = 4
??$?5DU?$char_traits@D@std@@V?$allocator@D@1@@std@@YAAAV?$basic_istream@DU?$char_traits@D@std@@@0@$$QAV10@AAV?$basic_string@DU?$char_traits@D@std@@V?$allocator@D@2@@0@@Z PROC ; std::operator>><char,std::char_traits<char>,std::allocator<char> >, COMDAT

; 4891 :     basic_istream<_Elem, _Traits>&& _Istr, basic_string<_Elem, _Traits, _Alloc>& _Str) {

  00000	55		 push	 ebp
  00001	8b ec		 mov	 ebp, esp
  00003	6a ff		 push	 -1
  00005	68 00 00 00 00	 push	 __ehhandler$??$?5DU?$char_traits@D@std@@V?$allocator@D@1@@std@@YAAAV?$basic_istream@DU?$char_traits@D@std@@@0@$$QAV10@AAV?$basic_string@DU?$char_traits@D@std@@V?$allocator@D@2@@0@@Z
  0000a	64 a1 00 00 00
	00		 mov	 eax, DWORD PTR fs:0
  00010	50		 push	 eax
  00011	51		 push	 ecx
  00012	81 ec 40 01 00
	00		 sub	 esp, 320		; 00000140H
  00018	53		 push	 ebx
  00019	56		 push	 esi
  0001a	57		 push	 edi
  0001b	8d bd 70 ff ff
	ff		 lea	 edi, DWORD PTR [ebp-144]
  00021	b9 20 00 00 00	 mov	 ecx, 32			; 00000020H
  00026	b8 cc cc cc cc	 mov	 eax, -858993460		; ccccccccH
  0002b	f3 ab		 rep stosd
  0002d	a1 00 00 00 00	 mov	 eax, DWORD PTR ___security_cookie
  00032	33 c5		 xor	 eax, ebp
  00034	89 45 ec	 mov	 DWORD PTR __$ArrayPad$[ebp], eax
  00037	50		 push	 eax
  00038	8d 45 f4	 lea	 eax, DWORD PTR __$EHRec$[ebp+4]
  0003b	64 a3 00 00 00
	00		 mov	 DWORD PTR fs:0, eax
  00041	89 65 f0	 mov	 DWORD PTR __$EHRec$[ebp], esp
  00044	b9 00 00 00 00	 mov	 ecx, OFFSET __0D019051_xstring
  00049	e8 00 00 00 00	 call	 @__CheckForDebuggerJustMyCode@4

; 4892 :     using _Myis   = basic_istream<_Elem, _Traits>;
; 4893 :     using _Ctype  = typename _Myis::_Ctype;
; 4894 :     using _Mystr  = basic_string<_Elem, _Traits, _Alloc>;
; 4895 :     using _Mysizt = typename _Mystr::size_type;
; 4896 : 
; 4897 :     typename _Myis::iostate _State = _Myis::goodbit;

  0004e	c7 45 e4 00 00
	00 00		 mov	 DWORD PTR __State$[ebp], 0

; 4898 :     bool _Changed                  = false;

  00055	c6 45 db 00	 mov	 BYTE PTR __Changed$[ebp], 0

; 4899 :     const typename _Myis::sentry _Ok(_Istr);

  00059	6a 00		 push	 0
  0005b	8b 45 08	 mov	 eax, DWORD PTR __Istr$[ebp]
  0005e	50		 push	 eax
  0005f	8d 4d c8	 lea	 ecx, DWORD PTR __Ok$[ebp]
  00062	e8 00 00 00 00	 call	 ??0sentry@?$basic_istream@DU?$char_traits@D@std@@@std@@QAE@AAV12@_N@Z ; std::basic_istream<char,std::char_traits<char> >::sentry::sentry
  00067	c7 45 fc 00 00
	00 00		 mov	 DWORD PTR __$EHRec$[ebp+12], 0

; 4900 : 
; 4901 :     if (_Ok) { // state okay, extract characters

  0006e	8d 4d c8	 lea	 ecx, DWORD PTR __Ok$[ebp]
  00071	e8 00 00 00 00	 call	 ??Bsentry@?$basic_istream@DU?$char_traits@D@std@@@std@@QBE_NXZ ; std::basic_istream<char,std::char_traits<char> >::sentry::operator bool
  00076	0f b6 c0	 movzx	 eax, al
  00079	85 c0		 test	 eax, eax
  0007b	0f 84 7b 02 00
	00		 je	 $LN5@operator

; 4902 :         const _Ctype& _Ctype_fac = _STD use_facet<_Ctype>(_Istr.getloc());

  00081	8b f4		 mov	 esi, esp
  00083	8d 85 d4 fe ff
	ff		 lea	 eax, DWORD PTR $T4[ebp]
  00089	50		 push	 eax
  0008a	8b 4d 08	 mov	 ecx, DWORD PTR __Istr$[ebp]
  0008d	8b 11		 mov	 edx, DWORD PTR [ecx]
  0008f	8b 4d 08	 mov	 ecx, DWORD PTR __Istr$[ebp]
  00092	03 4a 04	 add	 ecx, DWORD PTR [edx+4]
  00095	ff 15 00 00 00
	00		 call	 DWORD PTR __imp_?getloc@ios_base@std@@QBE?AVlocale@2@XZ
  0009b	3b f4		 cmp	 esi, esp
  0009d	e8 00 00 00 00	 call	 __RTC_CheckEsp
  000a2	89 85 b4 fe ff
	ff		 mov	 DWORD PTR tv65[ebp], eax
  000a8	8b 85 b4 fe ff
	ff		 mov	 eax, DWORD PTR tv65[ebp]
  000ae	89 85 b0 fe ff
	ff		 mov	 DWORD PTR tv252[ebp], eax
  000b4	c6 45 fc 01	 mov	 BYTE PTR __$EHRec$[ebp+12], 1
  000b8	8b 8d b0 fe ff
	ff		 mov	 ecx, DWORD PTR tv252[ebp]
  000be	51		 push	 ecx
  000bf	e8 00 00 00 00	 call	 ??$use_facet@V?$ctype@D@std@@@std@@YAABV?$ctype@D@0@ABVlocale@0@@Z ; std::use_facet<std::ctype<char> >
  000c4	83 c4 04	 add	 esp, 4
  000c7	89 45 bc	 mov	 DWORD PTR __Ctype_fac$7[ebp], eax
  000ca	c6 45 fc 00	 mov	 BYTE PTR __$EHRec$[ebp+12], 0
  000ce	8d 8d d4 fe ff
	ff		 lea	 ecx, DWORD PTR $T4[ebp]
  000d4	e8 00 00 00 00	 call	 ??1locale@std@@QAE@XZ	; std::locale::~locale

; 4903 :         _Str.erase();

  000d9	6a 00		 push	 0
  000db	8b 4d 0c	 mov	 ecx, DWORD PTR __Str$[ebp]
  000de	e8 00 00 00 00	 call	 ?erase@?$basic_string@DU?$char_traits@D@std@@V?$allocator@D@2@@std@@QAEAAV12@I@Z ; std::basic_string<char,std::char_traits<char>,std::allocator<char> >::erase

; 4904 : 
; 4905 :         _TRY_IO_BEGIN

  000e3	c6 45 fc 02	 mov	 BYTE PTR __$EHRec$[ebp+12], 2

; 4906 :         _Mysizt _Size;
; 4907 :         if (0 < _Istr.width() && static_cast<_Mysizt>(_Istr.width()) < _Str.max_size()) {

  000e7	8b 45 08	 mov	 eax, DWORD PTR __Istr$[ebp]
  000ea	8b 08		 mov	 ecx, DWORD PTR [eax]
  000ec	8b 55 08	 mov	 edx, DWORD PTR __Istr$[ebp]
  000ef	03 51 04	 add	 edx, DWORD PTR [ecx+4]
  000f2	8b f4		 mov	 esi, esp
  000f4	8b ca		 mov	 ecx, edx
  000f6	ff 15 00 00 00
	00		 call	 DWORD PTR __imp_?width@ios_base@std@@QBE_JXZ
  000fc	3b f4		 cmp	 esi, esp
  000fe	e8 00 00 00 00	 call	 __RTC_CheckEsp
  00103	89 85 b0 fe ff
	ff		 mov	 DWORD PTR tv255[ebp], eax
  00109	89 95 b4 fe ff
	ff		 mov	 DWORD PTR tv255[ebp+4], edx
  0010f	83 bd b4 fe ff
	ff 00		 cmp	 DWORD PTR tv255[ebp+4], 0
  00116	7c 76		 jl	 SHORT $LN7@operator
  00118	7f 09		 jg	 SHORT $LN21@operator
  0011a	83 bd b0 fe ff
	ff 00		 cmp	 DWORD PTR tv255[ebp], 0
  00121	76 6b		 jbe	 SHORT $LN7@operator
$LN21@operator:
  00123	8b 45 08	 mov	 eax, DWORD PTR __Istr$[ebp]
  00126	8b 08		 mov	 ecx, DWORD PTR [eax]
  00128	8b 55 08	 mov	 edx, DWORD PTR __Istr$[ebp]
  0012b	03 51 04	 add	 edx, DWORD PTR [ecx+4]
  0012e	8b f4		 mov	 esi, esp
  00130	8b ca		 mov	 ecx, edx
  00132	ff 15 00 00 00
	00		 call	 DWORD PTR __imp_?width@ios_base@std@@QBE_JXZ
  00138	3b f4		 cmp	 esi, esp
  0013a	e8 00 00 00 00	 call	 __RTC_CheckEsp
  0013f	89 85 b0 fe ff
	ff		 mov	 DWORD PTR tv256[ebp], eax
  00145	89 95 b4 fe ff
	ff		 mov	 DWORD PTR tv256[ebp+4], edx
  0014b	8b 4d 0c	 mov	 ecx, DWORD PTR __Str$[ebp]
  0014e	e8 00 00 00 00	 call	 ?max_size@?$basic_string@DU?$char_traits@D@std@@V?$allocator@D@2@@std@@QBEIXZ ; std::basic_string<char,std::char_traits<char>,std::allocator<char> >::max_size
  00153	39 85 b0 fe ff
	ff		 cmp	 DWORD PTR tv256[ebp], eax
  00159	73 33		 jae	 SHORT $LN7@operator

; 4908 :             _Size = static_cast<_Mysizt>(_Istr.width());

  0015b	8b 45 08	 mov	 eax, DWORD PTR __Istr$[ebp]
  0015e	8b 08		 mov	 ecx, DWORD PTR [eax]
  00160	8b 55 08	 mov	 edx, DWORD PTR __Istr$[ebp]
  00163	03 51 04	 add	 edx, DWORD PTR [ecx+4]
  00166	8b f4		 mov	 esi, esp
  00168	8b ca		 mov	 ecx, edx
  0016a	ff 15 00 00 00
	00		 call	 DWORD PTR __imp_?width@ios_base@std@@QBE_JXZ
  00170	3b f4		 cmp	 esi, esp
  00172	e8 00 00 00 00	 call	 __RTC_CheckEsp
  00177	89 85 b0 fe ff
	ff		 mov	 DWORD PTR tv257[ebp], eax
  0017d	89 95 b4 fe ff
	ff		 mov	 DWORD PTR tv257[ebp+4], edx
  00183	8b 85 b0 fe ff
	ff		 mov	 eax, DWORD PTR tv257[ebp]
  00189	89 45 b0	 mov	 DWORD PTR __Size$6[ebp], eax

; 4909 :         } else {

  0018c	eb 0b		 jmp	 SHORT $LN8@operator
$LN7@operator:

; 4910 :             _Size = _Str.max_size();

  0018e	8b 4d 0c	 mov	 ecx, DWORD PTR __Str$[ebp]
  00191	e8 00 00 00 00	 call	 ?max_size@?$basic_string@DU?$char_traits@D@std@@V?$allocator@D@2@@std@@QBEIXZ ; std::basic_string<char,std::char_traits<char>,std::allocator<char> >::max_size
  00196	89 45 b0	 mov	 DWORD PTR __Size$6[ebp], eax
$LN8@operator:

; 4911 :         }
; 4912 : 
; 4913 :         typename _Traits::int_type _Meta = _Istr.rdbuf()->sgetc();

  00199	8b 45 08	 mov	 eax, DWORD PTR __Istr$[ebp]
  0019c	8b 08		 mov	 ecx, DWORD PTR [eax]
  0019e	8b 55 08	 mov	 edx, DWORD PTR __Istr$[ebp]
  001a1	03 51 04	 add	 edx, DWORD PTR [ecx+4]
  001a4	8b f4		 mov	 esi, esp
  001a6	8b ca		 mov	 ecx, edx
  001a8	ff 15 00 00 00
	00		 call	 DWORD PTR __imp_?rdbuf@?$basic_ios@DU?$char_traits@D@std@@@std@@QBEPAV?$basic_streambuf@DU?$char_traits@D@std@@@2@XZ
  001ae	3b f4		 cmp	 esi, esp
  001b0	e8 00 00 00 00	 call	 __RTC_CheckEsp
  001b5	89 85 b4 fe ff
	ff		 mov	 DWORD PTR tv258[ebp], eax
  001bb	8b f4		 mov	 esi, esp
  001bd	8b 8d b4 fe ff
	ff		 mov	 ecx, DWORD PTR tv258[ebp]
  001c3	ff 15 00 00 00
	00		 call	 DWORD PTR __imp_?sgetc@?$basic_streambuf@DU?$char_traits@D@std@@@std@@QAEHXZ
  001c9	3b f4		 cmp	 esi, esp
  001cb	e8 00 00 00 00	 call	 __RTC_CheckEsp
  001d0	89 85 b0 fe ff
	ff		 mov	 DWORD PTR tv259[ebp], eax
  001d6	8b 85 b0 fe ff
	ff		 mov	 eax, DWORD PTR tv259[ebp]
  001dc	89 45 a4	 mov	 DWORD PTR __Meta$5[ebp], eax

; 4914 : 
; 4915 :         for (; 0 < _Size; --_Size, _Meta = _Istr.rdbuf()->snextc()) {

  001df	eb 4d		 jmp	 SHORT $LN4@operator
$LN2@operator:
  001e1	8b 45 b0	 mov	 eax, DWORD PTR __Size$6[ebp]
  001e4	83 e8 01	 sub	 eax, 1
  001e7	89 45 b0	 mov	 DWORD PTR __Size$6[ebp], eax
  001ea	8b 4d 08	 mov	 ecx, DWORD PTR __Istr$[ebp]
  001ed	8b 11		 mov	 edx, DWORD PTR [ecx]
  001ef	8b 4d 08	 mov	 ecx, DWORD PTR __Istr$[ebp]
  001f2	03 4a 04	 add	 ecx, DWORD PTR [edx+4]
  001f5	8b f4		 mov	 esi, esp
  001f7	ff 15 00 00 00
	00		 call	 DWORD PTR __imp_?rdbuf@?$basic_ios@DU?$char_traits@D@std@@@std@@QBEPAV?$basic_streambuf@DU?$char_traits@D@std@@@2@XZ
  001fd	3b f4		 cmp	 esi, esp
  001ff	e8 00 00 00 00	 call	 __RTC_CheckEsp
  00204	89 85 b4 fe ff
	ff		 mov	 DWORD PTR tv260[ebp], eax
  0020a	8b f4		 mov	 esi, esp
  0020c	8b 8d b4 fe ff
	ff		 mov	 ecx, DWORD PTR tv260[ebp]
  00212	ff 15 00 00 00
	00		 call	 DWORD PTR __imp_?snextc@?$basic_streambuf@DU?$char_traits@D@std@@@std@@QAEHXZ
  00218	3b f4		 cmp	 esi, esp
  0021a	e8 00 00 00 00	 call	 __RTC_CheckEsp
  0021f	89 85 b0 fe ff
	ff		 mov	 DWORD PTR tv261[ebp], eax
  00225	8b 85 b0 fe ff
	ff		 mov	 eax, DWORD PTR tv261[ebp]
  0022b	89 45 a4	 mov	 DWORD PTR __Meta$5[ebp], eax
$LN4@operator:
  0022e	83 7d b0 00	 cmp	 DWORD PTR __Size$6[ebp], 0
  00232	0f 86 8c 00 00
	00		 jbe	 $LN3@operator

; 4916 :             if (_Traits::eq_int_type(_Traits::eof(), _Meta)) { // end of file, quit

  00238	e8 00 00 00 00	 call	 ?eof@?$_Narrow_char_traits@DH@std@@SAHXZ ; std::_Narrow_char_traits<char,int>::eof
  0023d	89 85 c8 fe ff
	ff		 mov	 DWORD PTR $T3[ebp], eax
  00243	8d 45 a4	 lea	 eax, DWORD PTR __Meta$5[ebp]
  00246	50		 push	 eax
  00247	8d 8d c8 fe ff
	ff		 lea	 ecx, DWORD PTR $T3[ebp]
  0024d	51		 push	 ecx
  0024e	e8 00 00 00 00	 call	 ?eq_int_type@?$_Narrow_char_traits@DH@std@@SA_NABH0@Z ; std::_Narrow_char_traits<char,int>::eq_int_type
  00253	83 c4 08	 add	 esp, 8
  00256	0f b6 d0	 movzx	 edx, al
  00259	85 d2		 test	 edx, edx
  0025b	74 0d		 je	 SHORT $LN9@operator

; 4917 :                 _State |= _Myis::eofbit;

  0025d	8b 45 e4	 mov	 eax, DWORD PTR __State$[ebp]
  00260	83 c8 01	 or	 eax, 1
  00263	89 45 e4	 mov	 DWORD PTR __State$[ebp], eax

; 4918 :                 break;

  00266	eb 5c		 jmp	 SHORT $LN3@operator
  00268	eb 55		 jmp	 SHORT $LN10@operator
$LN9@operator:

; 4919 :             } else if (_Ctype_fac.is(_Ctype::space, _Traits::to_char_type(_Meta))) {

  0026a	8d 45 a4	 lea	 eax, DWORD PTR __Meta$5[ebp]
  0026d	50		 push	 eax
  0026e	e8 00 00 00 00	 call	 ?to_char_type@?$_Narrow_char_traits@DH@std@@SADABH@Z ; std::_Narrow_char_traits<char,int>::to_char_type
  00273	83 c4 04	 add	 esp, 4
  00276	8b f4		 mov	 esi, esp
  00278	0f b6 c8	 movzx	 ecx, al
  0027b	51		 push	 ecx
  0027c	6a 48		 push	 72			; 00000048H
  0027e	8b 4d bc	 mov	 ecx, DWORD PTR __Ctype_fac$7[ebp]
  00281	ff 15 00 00 00
	00		 call	 DWORD PTR __imp_?is@?$ctype@D@std@@QBE_NFD@Z
  00287	3b f4		 cmp	 esi, esp
  00289	e8 00 00 00 00	 call	 __RTC_CheckEsp
  0028e	88 85 b7 fe ff
	ff		 mov	 BYTE PTR tv262[ebp], al
  00294	0f b6 95 b7 fe
	ff ff		 movzx	 edx, BYTE PTR tv262[ebp]
  0029b	85 d2		 test	 edx, edx
  0029d	74 04		 je	 SHORT $LN11@operator

; 4920 :                 break; // whitespace, quit

  0029f	eb 23		 jmp	 SHORT $LN3@operator

; 4921 :             } else { // add character to string

  002a1	eb 1c		 jmp	 SHORT $LN10@operator
$LN11@operator:

; 4922 :                 _Str.push_back(_Traits::to_char_type(_Meta));

  002a3	8d 45 a4	 lea	 eax, DWORD PTR __Meta$5[ebp]
  002a6	50		 push	 eax
  002a7	e8 00 00 00 00	 call	 ?to_char_type@?$_Narrow_char_traits@DH@std@@SADABH@Z ; std::_Narrow_char_traits<char,int>::to_char_type
  002ac	83 c4 04	 add	 esp, 4
  002af	0f b6 c8	 movzx	 ecx, al
  002b2	51		 push	 ecx
  002b3	8b 4d 0c	 mov	 ecx, DWORD PTR __Str$[ebp]
  002b6	e8 00 00 00 00	 call	 ?push_back@?$basic_string@DU?$char_traits@D@std@@V?$allocator@D@2@@std@@QAEXD@Z ; std::basic_string<char,std::char_traits<char>,std::allocator<char> >::push_back

; 4923 :                 _Changed = true;

  002bb	c6 45 db 01	 mov	 BYTE PTR __Changed$[ebp], 1
$LN10@operator:

; 4924 :             }
; 4925 :         }

  002bf	e9 1d ff ff ff	 jmp	 $LN2@operator
$LN3@operator:
  002c4	eb 26		 jmp	 SHORT $LN15@operator
__catch$??$?5DU?$char_traits@D@std@@V?$allocator@D@1@@std@@YAAAV?$basic_istream@DU?$char_traits@D@std@@@0@$$QAV10@AAV?$basic_string@DU?$char_traits@D@std@@V?$allocator@D@2@@0@@Z$0:

; 4926 :         _CATCH_IO_(_Myis, _Istr)

  002c6	8b f4		 mov	 esi, esp
  002c8	6a 01		 push	 1
  002ca	6a 04		 push	 4
  002cc	8b 45 08	 mov	 eax, DWORD PTR __Istr$[ebp]
  002cf	8b 08		 mov	 ecx, DWORD PTR [eax]
  002d1	8b 55 08	 mov	 edx, DWORD PTR __Istr$[ebp]
  002d4	03 51 04	 add	 edx, DWORD PTR [ecx+4]
  002d7	8b ca		 mov	 ecx, edx
  002d9	ff 15 00 00 00
	00		 call	 DWORD PTR __imp_?setstate@?$basic_ios@DU?$char_traits@D@std@@@std@@QAEXH_N@Z
  002df	3b f4		 cmp	 esi, esp
  002e1	e8 00 00 00 00	 call	 __RTC_CheckEsp
  002e6	b8 00 00 00 00	 mov	 eax, $LN20@operator
  002eb	c3		 ret	 0
$LN15@operator:
  002ec	c7 45 fc 00 00
	00 00		 mov	 DWORD PTR __$EHRec$[ebp+12], 0
  002f3	eb 07		 jmp	 SHORT $LN5@operator
$LN20@operator:
  002f5	c7 45 fc 00 00
	00 00		 mov	 DWORD PTR __$EHRec$[ebp+12], 0
$LN5@operator:

; 4927 :     }
; 4928 : 
; 4929 :     _Istr.width(0);

  002fc	8b f4		 mov	 esi, esp
  002fe	6a 00		 push	 0
  00300	6a 00		 push	 0
  00302	8b 45 08	 mov	 eax, DWORD PTR __Istr$[ebp]
  00305	8b 08		 mov	 ecx, DWORD PTR [eax]
  00307	8b 55 08	 mov	 edx, DWORD PTR __Istr$[ebp]
  0030a	03 51 04	 add	 edx, DWORD PTR [ecx+4]
  0030d	8b ca		 mov	 ecx, edx
  0030f	ff 15 00 00 00
	00		 call	 DWORD PTR __imp_?width@ios_base@std@@QAE_J_J@Z
  00315	3b f4		 cmp	 esi, esp
  00317	e8 00 00 00 00	 call	 __RTC_CheckEsp

; 4930 :     if (!_Changed) {

  0031c	0f b6 45 db	 movzx	 eax, BYTE PTR __Changed$[ebp]
  00320	85 c0		 test	 eax, eax
  00322	75 09		 jne	 SHORT $LN13@operator

; 4931 :         _State |= _Myis::failbit;

  00324	8b 45 e4	 mov	 eax, DWORD PTR __State$[ebp]
  00327	83 c8 02	 or	 eax, 2
  0032a	89 45 e4	 mov	 DWORD PTR __State$[ebp], eax
$LN13@operator:

; 4932 :     }
; 4933 : 
; 4934 :     _Istr.setstate(_State);

  0032d	8b f4		 mov	 esi, esp
  0032f	6a 00		 push	 0
  00331	8b 45 e4	 mov	 eax, DWORD PTR __State$[ebp]
  00334	50		 push	 eax
  00335	8b 4d 08	 mov	 ecx, DWORD PTR __Istr$[ebp]
  00338	8b 11		 mov	 edx, DWORD PTR [ecx]
  0033a	8b 4d 08	 mov	 ecx, DWORD PTR __Istr$[ebp]
  0033d	03 4a 04	 add	 ecx, DWORD PTR [edx+4]
  00340	ff 15 00 00 00
	00		 call	 DWORD PTR __imp_?setstate@?$basic_ios@DU?$char_traits@D@std@@@std@@QAEXH_N@Z
  00346	3b f4		 cmp	 esi, esp
  00348	e8 00 00 00 00	 call	 __RTC_CheckEsp

; 4935 :     return _Istr;

  0034d	8b 45 08	 mov	 eax, DWORD PTR __Istr$[ebp]
  00350	89 85 bc fe ff
	ff		 mov	 DWORD PTR $T2[ebp], eax
  00356	c7 45 fc ff ff
	ff ff		 mov	 DWORD PTR __$EHRec$[ebp+12], -1
  0035d	8d 4d c8	 lea	 ecx, DWORD PTR __Ok$[ebp]
  00360	e8 00 00 00 00	 call	 ??1sentry@?$basic_istream@DU?$char_traits@D@std@@@std@@QAE@XZ
  00365	8b 85 bc fe ff
	ff		 mov	 eax, DWORD PTR $T2[ebp]

; 4936 : }

  0036b	52		 push	 edx
  0036c	8b cd		 mov	 ecx, ebp
  0036e	50		 push	 eax
  0036f	8d 15 00 00 00
	00		 lea	 edx, DWORD PTR $LN26@operator
  00375	e8 00 00 00 00	 call	 @_RTC_CheckStackVars@8
  0037a	58		 pop	 eax
  0037b	5a		 pop	 edx
  0037c	8b 4d f4	 mov	 ecx, DWORD PTR __$EHRec$[ebp+4]
  0037f	64 89 0d 00 00
	00 00		 mov	 DWORD PTR fs:0, ecx
  00386	59		 pop	 ecx
  00387	5f		 pop	 edi
  00388	5e		 pop	 esi
  00389	5b		 pop	 ebx
  0038a	8b 4d ec	 mov	 ecx, DWORD PTR __$ArrayPad$[ebp]
  0038d	33 cd		 xor	 ecx, ebp
  0038f	e8 00 00 00 00	 call	 @__security_check_cookie@4
  00394	81 c4 50 01 00
	00		 add	 esp, 336		; 00000150H
  0039a	3b ec		 cmp	 ebp, esp
  0039c	e8 00 00 00 00	 call	 __RTC_CheckEsp
  003a1	8b e5		 mov	 esp, ebp
  003a3	5d		 pop	 ebp
  003a4	c3		 ret	 0
  003a5	0f 1f 00	 npad	 3
$LN26@operator:
  003a8	02 00 00 00	 DD	 2
  003ac	00 00 00 00	 DD	 $LN25@operator
$LN25@operator:
  003b0	c8 ff ff ff	 DD	 -56			; ffffffc8H
  003b4	08 00 00 00	 DD	 8
  003b8	00 00 00 00	 DD	 $LN22@operator
  003bc	a4 ff ff ff	 DD	 -92			; ffffffa4H
  003c0	04 00 00 00	 DD	 4
  003c4	00 00 00 00	 DD	 $LN23@operator
$LN23@operator:
  003c8	5f		 DB	 95			; 0000005fH
  003c9	4d		 DB	 77			; 0000004dH
  003ca	65		 DB	 101			; 00000065H
  003cb	74		 DB	 116			; 00000074H
  003cc	61		 DB	 97			; 00000061H
  003cd	00		 DB	 0
$LN22@operator:
  003ce	5f		 DB	 95			; 0000005fH
  003cf	4f		 DB	 79			; 0000004fH
  003d0	6b		 DB	 107			; 0000006bH
  003d1	00		 DB	 0
_TEXT	ENDS
;	COMDAT text$x
text$x	SEGMENT
__unwindfunclet$??$?5DU?$char_traits@D@std@@V?$allocator@D@1@@std@@YAAAV?$basic_istream@DU?$char_traits@D@std@@@0@$$QAV10@AAV?$basic_string@DU?$char_traits@D@std@@V?$allocator@D@2@@0@@Z$2:
  00000	8d 4d c8	 lea	 ecx, DWORD PTR __Ok$[ebp]
  00003	e9 00 00 00 00	 jmp	 ??1sentry@?$basic_istream@DU?$char_traits@D@std@@@std@@QAE@XZ
__unwindfunclet$??$?5DU?$char_traits@D@std@@V?$allocator@D@1@@std@@YAAAV?$basic_istream@DU?$char_traits@D@std@@@0@$$QAV10@AAV?$basic_string@DU?$char_traits@D@std@@V?$allocator@D@2@@0@@Z$3:
  00008	8d 8d d4 fe ff
	ff		 lea	 ecx, DWORD PTR $T4[ebp]
  0000e	e9 00 00 00 00	 jmp	 ??1locale@std@@QAE@XZ	; std::locale::~locale
  00013	cc		 int	 3
  00014	cc		 int	 3
  00015	cc		 int	 3
  00016	cc		 int	 3
  00017	cc		 int	 3
__ehhandler$??$?5DU?$char_traits@D@std@@V?$allocator@D@1@@std@@YAAAV?$basic_istream@DU?$char_traits@D@std@@@0@$$QAV10@AAV?$basic_string@DU?$char_traits@D@std@@V?$allocator@D@2@@0@@Z:
  00018	90		 npad	 1
  00019	90		 npad	 1
  0001a	8b 54 24 08	 mov	 edx, DWORD PTR [esp+8]
  0001e	8d 42 0c	 lea	 eax, DWORD PTR [edx+12]
  00021	8b 8a ac fe ff
	ff		 mov	 ecx, DWORD PTR [edx-340]
  00027	33 c8		 xor	 ecx, eax
  00029	e8 00 00 00 00	 call	 @__security_check_cookie@4
  0002e	8b 4a f8	 mov	 ecx, DWORD PTR [edx-8]
  00031	33 c8		 xor	 ecx, eax
  00033	e8 00 00 00 00	 call	 @__security_check_cookie@4
  00038	b8 00 00 00 00	 mov	 eax, OFFSET __ehfuncinfo$??$?5DU?$char_traits@D@std@@V?$allocator@D@1@@std@@YAAAV?$basic_istream@DU?$char_traits@D@std@@@0@$$QAV10@AAV?$basic_string@DU?$char_traits@D@std@@V?$allocator@D@2@@0@@Z
  0003d	e9 00 00 00 00	 jmp	 ___CxxFrameHandler3
text$x	ENDS
??$?5DU?$char_traits@D@std@@V?$allocator@D@1@@std@@YAAAV?$basic_istream@DU?$char_traits@D@std@@@0@$$QAV10@AAV?$basic_string@DU?$char_traits@D@std@@V?$allocator@D@2@@0@@Z ENDP ; std::operator>><char,std::char_traits<char>,std::allocator<char> >
; Function compile flags: /Odtp /RTCsu /ZI
; File C:\Program Files (x86)\Microsoft Visual Studio\2019\Community\VC\Tools\MSVC\14.29.30133\include\xstring
;	COMDAT ??$?5DU?$char_traits@D@std@@V?$allocator@D@1@@std@@YAAAV?$basic_istream@DU?$char_traits@D@std@@@0@AAV10@AAV?$basic_string@DU?$char_traits@D@std@@V?$allocator@D@2@@0@@Z
_TEXT	SEGMENT
__Istr$ = 8						; size = 4
__Str$ = 12						; size = 4
??$?5DU?$char_traits@D@std@@V?$allocator@D@1@@std@@YAAAV?$basic_istream@DU?$char_traits@D@std@@@0@AAV10@AAV?$basic_string@DU?$char_traits@D@std@@V?$allocator@D@2@@0@@Z PROC ; std::operator>><char,std::char_traits<char>,std::allocator<char> >, COMDAT

; 4940 :     basic_istream<_Elem, _Traits>& _Istr, basic_string<_Elem, _Traits, _Alloc>& _Str) {

  00000	55		 push	 ebp
  00001	8b ec		 mov	 ebp, esp
  00003	81 ec c0 00 00
	00		 sub	 esp, 192		; 000000c0H
  00009	53		 push	 ebx
  0000a	56		 push	 esi
  0000b	57		 push	 edi
  0000c	8b fd		 mov	 edi, ebp
  0000e	33 c9		 xor	 ecx, ecx
  00010	b8 cc cc cc cc	 mov	 eax, -858993460		; ccccccccH
  00015	f3 ab		 rep stosd
  00017	b9 00 00 00 00	 mov	 ecx, OFFSET __0D019051_xstring
  0001c	e8 00 00 00 00	 call	 @__CheckForDebuggerJustMyCode@4

; 4941 :     return _STD move(_Istr) >> _Str;

  00021	8b 45 0c	 mov	 eax, DWORD PTR __Str$[ebp]
  00024	50		 push	 eax
  00025	8b 4d 08	 mov	 ecx, DWORD PTR __Istr$[ebp]
  00028	51		 push	 ecx
  00029	e8 00 00 00 00	 call	 ??$move@AAV?$basic_istream@DU?$char_traits@D@std@@@std@@@std@@YA$$QAV?$basic_istream@DU?$char_traits@D@std@@@0@AAV10@@Z ; std::move<std::basic_istream<char,std::char_traits<char> > &>
  0002e	83 c4 04	 add	 esp, 4
  00031	50		 push	 eax
  00032	e8 00 00 00 00	 call	 ??$?5DU?$char_traits@D@std@@V?$allocator@D@1@@std@@YAAAV?$basic_istream@DU?$char_traits@D@std@@@0@$$QAV10@AAV?$basic_string@DU?$char_traits@D@std@@V?$allocator@D@2@@0@@Z ; std::operator>><char,std::char_traits<char>,std::allocator<char> >
  00037	83 c4 08	 add	 esp, 8

; 4942 : }

  0003a	5f		 pop	 edi
  0003b	5e		 pop	 esi
  0003c	5b		 pop	 ebx
  0003d	81 c4 c0 00 00
	00		 add	 esp, 192		; 000000c0H
  00043	3b ec		 cmp	 ebp, esp
  00045	e8 00 00 00 00	 call	 __RTC_CheckEsp
  0004a	8b e5		 mov	 esp, ebp
  0004c	5d		 pop	 ebp
  0004d	c3		 ret	 0
??$?5DU?$char_traits@D@std@@V?$allocator@D@1@@std@@YAAAV?$basic_istream@DU?$char_traits@D@std@@@0@AAV10@AAV?$basic_string@DU?$char_traits@D@std@@V?$allocator@D@2@@0@@Z ENDP ; std::operator>><char,std::char_traits<char>,std::allocator<char> >
_TEXT	ENDS
; Function compile flags: /Odtp /RTCsu /ZI
; File C:\Program Files (x86)\Microsoft Visual Studio\2019\Community\VC\Tools\MSVC\14.29.30133\include\ostream
;	COMDAT ??$?6U?$char_traits@D@std@@@std@@YAAAV?$basic_ostream@DU?$char_traits@D@std@@@0@AAV10@PBD@Z
_TEXT	SEGMENT
tv135 = -356						; size = 8
tv343 = -348						; size = 8
tv291 = -344						; size = 4
tv288 = -344						; size = 8
tv286 = -344						; size = 4
tv329 = -340						; size = 8
tv290 = -340						; size = 4
tv285 = -340						; size = 4
tv287 = -336						; size = 4
tv137 = -336						; size = 4
tv289 = -333						; size = 1
tv284 = -333						; size = 1
$T2 = -328						; size = 4
$T3 = -316						; size = 4
$T4 = -304						; size = 4
$T5 = -292						; size = 4
$T6 = -280						; size = 4
__Ok$ = -76						; size = 8
__Pad$ = -60						; size = 8
__Count$ = -44						; size = 8
__State$ = -28						; size = 4
__$ArrayPad$ = -20					; size = 4
__$EHRec$ = -16						; size = 16
__Ostr$ = 8						; size = 4
__Val$ = 12						; size = 4
??$?6U?$char_traits@D@std@@@std@@YAAAV?$basic_ostream@DU?$char_traits@D@std@@@0@AAV10@PBD@Z PROC ; std::operator<<<std::char_traits<char> >, COMDAT

; 731  :     const char* _Val) { // insert NTBS into char stream

  00000	55		 push	 ebp
  00001	8b ec		 mov	 ebp, esp
  00003	6a ff		 push	 -1
  00005	68 00 00 00 00	 push	 __ehhandler$??$?6U?$char_traits@D@std@@@std@@YAAAV?$basic_ostream@DU?$char_traits@D@std@@@0@AAV10@PBD@Z
  0000a	64 a1 00 00 00
	00		 mov	 eax, DWORD PTR fs:0
  00010	50		 push	 eax
  00011	51		 push	 ecx
  00012	81 ec 54 01 00
	00		 sub	 esp, 340		; 00000154H
  00018	53		 push	 ebx
  00019	56		 push	 esi
  0001a	57		 push	 edi
  0001b	8d bd 5c ff ff
	ff		 lea	 edi, DWORD PTR [ebp-164]
  00021	b9 25 00 00 00	 mov	 ecx, 37			; 00000025H
  00026	b8 cc cc cc cc	 mov	 eax, -858993460		; ccccccccH
  0002b	f3 ab		 rep stosd
  0002d	a1 00 00 00 00	 mov	 eax, DWORD PTR ___security_cookie
  00032	33 c5		 xor	 eax, ebp
  00034	89 45 ec	 mov	 DWORD PTR __$ArrayPad$[ebp], eax
  00037	50		 push	 eax
  00038	8d 45 f4	 lea	 eax, DWORD PTR __$EHRec$[ebp+4]
  0003b	64 a3 00 00 00
	00		 mov	 DWORD PTR fs:0, eax
  00041	89 65 f0	 mov	 DWORD PTR __$EHRec$[ebp], esp
  00044	b9 00 00 00 00	 mov	 ecx, OFFSET __C12F3EA4_ostream
  00049	e8 00 00 00 00	 call	 @__CheckForDebuggerJustMyCode@4

; 732  :     using _Elem = char;
; 733  :     using _Myos = basic_ostream<_Elem, _Traits>;
; 734  : 
; 735  :     ios_base::iostate _State = ios_base::goodbit;

  0004e	c7 45 e4 00 00
	00 00		 mov	 DWORD PTR __State$[ebp], 0

; 736  :     streamsize _Count        = static_cast<streamsize>(_Traits::length(_Val));

  00055	8b 45 0c	 mov	 eax, DWORD PTR __Val$[ebp]
  00058	50		 push	 eax
  00059	e8 00 00 00 00	 call	 ?length@?$_Narrow_char_traits@DH@std@@SAIQBD@Z ; std::_Narrow_char_traits<char,int>::length
  0005e	83 c4 04	 add	 esp, 4
  00061	33 c9		 xor	 ecx, ecx
  00063	89 45 d4	 mov	 DWORD PTR __Count$[ebp], eax
  00066	89 4d d8	 mov	 DWORD PTR __Count$[ebp+4], ecx

; 737  :     streamsize _Pad          = _Ostr.width() <= 0 || _Ostr.width() <= _Count ? 0 : _Ostr.width() - _Count;

  00069	8b 45 08	 mov	 eax, DWORD PTR __Ostr$[ebp]
  0006c	8b 08		 mov	 ecx, DWORD PTR [eax]
  0006e	8b 55 08	 mov	 edx, DWORD PTR __Ostr$[ebp]
  00071	03 51 04	 add	 edx, DWORD PTR [ecx+4]
  00074	8b f4		 mov	 esi, esp
  00076	8b ca		 mov	 ecx, edx
  00078	ff 15 00 00 00
	00		 call	 DWORD PTR __imp_?width@ios_base@std@@QBE_JXZ
  0007e	3b f4		 cmp	 esi, esp
  00080	e8 00 00 00 00	 call	 __RTC_CheckEsp
  00085	89 85 ac fe ff
	ff		 mov	 DWORD PTR tv329[ebp], eax
  0008b	89 95 b0 fe ff
	ff		 mov	 DWORD PTR tv329[ebp+4], edx
  00091	83 bd b0 fe ff
	ff 00		 cmp	 DWORD PTR tv329[ebp+4], 0
  00098	7c 79		 jl	 SHORT $LN17@operator
  0009a	7f 09		 jg	 SHORT $LN24@operator
  0009c	83 bd ac fe ff
	ff 00		 cmp	 DWORD PTR tv329[ebp], 0
  000a3	76 6e		 jbe	 SHORT $LN17@operator
$LN24@operator:
  000a5	8b 45 08	 mov	 eax, DWORD PTR __Ostr$[ebp]
  000a8	8b 08		 mov	 ecx, DWORD PTR [eax]
  000aa	8b 55 08	 mov	 edx, DWORD PTR __Ostr$[ebp]
  000ad	03 51 04	 add	 edx, DWORD PTR [ecx+4]
  000b0	8b f4		 mov	 esi, esp
  000b2	8b ca		 mov	 ecx, edx
  000b4	ff 15 00 00 00
	00		 call	 DWORD PTR __imp_?width@ios_base@std@@QBE_JXZ
  000ba	3b f4		 cmp	 esi, esp
  000bc	e8 00 00 00 00	 call	 __RTC_CheckEsp
  000c1	89 85 a4 fe ff
	ff		 mov	 DWORD PTR tv343[ebp], eax
  000c7	89 95 a8 fe ff
	ff		 mov	 DWORD PTR tv343[ebp+4], edx
  000cd	8b 85 a8 fe ff
	ff		 mov	 eax, DWORD PTR tv343[ebp+4]
  000d3	3b 45 d8	 cmp	 eax, DWORD PTR __Count$[ebp+4]
  000d6	7c 3b		 jl	 SHORT $LN17@operator
  000d8	7f 0b		 jg	 SHORT $LN25@operator
  000da	8b 8d a4 fe ff
	ff		 mov	 ecx, DWORD PTR tv343[ebp]
  000e0	3b 4d d4	 cmp	 ecx, DWORD PTR __Count$[ebp]
  000e3	76 2e		 jbe	 SHORT $LN17@operator
$LN25@operator:
  000e5	8b 55 08	 mov	 edx, DWORD PTR __Ostr$[ebp]
  000e8	8b 02		 mov	 eax, DWORD PTR [edx]
  000ea	8b 4d 08	 mov	 ecx, DWORD PTR __Ostr$[ebp]
  000ed	03 48 04	 add	 ecx, DWORD PTR [eax+4]
  000f0	8b f4		 mov	 esi, esp
  000f2	ff 15 00 00 00
	00		 call	 DWORD PTR __imp_?width@ios_base@std@@QBE_JXZ
  000f8	3b f4		 cmp	 esi, esp
  000fa	e8 00 00 00 00	 call	 __RTC_CheckEsp
  000ff	2b 45 d4	 sub	 eax, DWORD PTR __Count$[ebp]
  00102	1b 55 d8	 sbb	 edx, DWORD PTR __Count$[ebp+4]
  00105	89 85 9c fe ff
	ff		 mov	 DWORD PTR tv135[ebp], eax
  0010b	89 95 a0 fe ff
	ff		 mov	 DWORD PTR tv135[ebp+4], edx
  00111	eb 0b		 jmp	 SHORT $LN18@operator
$LN17@operator:
  00113	0f 57 c0	 xorps	 xmm0, xmm0
  00116	66 0f 13 85 9c
	fe ff ff	 movlpd	 QWORD PTR tv135[ebp], xmm0
$LN18@operator:
  0011e	8b 8d 9c fe ff
	ff		 mov	 ecx, DWORD PTR tv135[ebp]
  00124	8b 95 a0 fe ff
	ff		 mov	 edx, DWORD PTR tv135[ebp+4]
  0012a	89 4d c4	 mov	 DWORD PTR __Pad$[ebp], ecx
  0012d	89 55 c8	 mov	 DWORD PTR __Pad$[ebp+4], edx

; 738  :     const typename _Myos::sentry _Ok(_Ostr);

  00130	8b 45 08	 mov	 eax, DWORD PTR __Ostr$[ebp]
  00133	50		 push	 eax
  00134	8d 4d b4	 lea	 ecx, DWORD PTR __Ok$[ebp]
  00137	e8 00 00 00 00	 call	 ??0sentry@?$basic_ostream@DU?$char_traits@D@std@@@std@@QAE@AAV12@@Z ; std::basic_ostream<char,std::char_traits<char> >::sentry::sentry
  0013c	c7 45 fc 00 00
	00 00		 mov	 DWORD PTR __$EHRec$[ebp+12], 0

; 739  : 
; 740  :     if (!_Ok) {

  00143	8d 4d b4	 lea	 ecx, DWORD PTR __Ok$[ebp]
  00146	e8 00 00 00 00	 call	 ??Bsentry@?$basic_ostream@DU?$char_traits@D@std@@@std@@QBE_NXZ ; std::basic_ostream<char,std::char_traits<char> >::sentry::operator bool
  0014b	0f b6 c0	 movzx	 eax, al
  0014e	85 c0		 test	 eax, eax
  00150	75 0e		 jne	 SHORT $LN8@operator

; 741  :         _State |= ios_base::badbit;

  00152	8b 45 e4	 mov	 eax, DWORD PTR __State$[ebp]
  00155	83 c8 04	 or	 eax, 4
  00158	89 45 e4	 mov	 DWORD PTR __State$[ebp], eax

; 742  :     } else { // state okay, insert

  0015b	e9 ba 02 00 00	 jmp	 $LN9@operator
$LN8@operator:

; 743  :         _TRY_IO_BEGIN

  00160	c6 45 fc 01	 mov	 BYTE PTR __$EHRec$[ebp+12], 1

; 744  :         if ((_Ostr.flags() & ios_base::adjustfield) != ios_base::left) {

  00164	8b 45 08	 mov	 eax, DWORD PTR __Ostr$[ebp]
  00167	8b 08		 mov	 ecx, DWORD PTR [eax]
  00169	8b 55 08	 mov	 edx, DWORD PTR __Ostr$[ebp]
  0016c	03 51 04	 add	 edx, DWORD PTR [ecx+4]
  0016f	8b f4		 mov	 esi, esp
  00171	8b ca		 mov	 ecx, edx
  00173	ff 15 00 00 00
	00		 call	 DWORD PTR __imp_?flags@ios_base@std@@QBEHXZ
  00179	3b f4		 cmp	 esi, esp
  0017b	e8 00 00 00 00	 call	 __RTC_CheckEsp
  00180	89 85 b0 fe ff
	ff		 mov	 DWORD PTR tv137[ebp], eax
  00186	8b 85 b0 fe ff
	ff		 mov	 eax, DWORD PTR tv137[ebp]
  0018c	25 c0 01 00 00	 and	 eax, 448		; 000001c0H
  00191	83 f8 40	 cmp	 eax, 64			; 00000040H
  00194	0f 84 d5 00 00
	00		 je	 $LN11@operator

; 745  :             for (; 0 < _Pad; --_Pad) { // pad on left

  0019a	eb 12		 jmp	 SHORT $LN4@operator
$LN2@operator:
  0019c	8b 45 c4	 mov	 eax, DWORD PTR __Pad$[ebp]
  0019f	83 e8 01	 sub	 eax, 1
  001a2	8b 4d c8	 mov	 ecx, DWORD PTR __Pad$[ebp+4]
  001a5	83 d9 00	 sbb	 ecx, 0
  001a8	89 45 c4	 mov	 DWORD PTR __Pad$[ebp], eax
  001ab	89 4d c8	 mov	 DWORD PTR __Pad$[ebp+4], ecx
$LN4@operator:
  001ae	83 7d c8 00	 cmp	 DWORD PTR __Pad$[ebp+4], 0
  001b2	0f 8c b7 00 00
	00		 jl	 $LN11@operator
  001b8	7f 0a		 jg	 SHORT $LN26@operator
  001ba	83 7d c4 00	 cmp	 DWORD PTR __Pad$[ebp], 0
  001be	0f 86 ab 00 00
	00		 jbe	 $LN11@operator
$LN26@operator:

; 746  :                 if (_Traits::eq_int_type(_Traits::eof(), _Ostr.rdbuf()->sputc(_Ostr.fill()))) {

  001c4	8b 45 08	 mov	 eax, DWORD PTR __Ostr$[ebp]
  001c7	8b 08		 mov	 ecx, DWORD PTR [eax]
  001c9	8b 55 08	 mov	 edx, DWORD PTR __Ostr$[ebp]
  001cc	03 51 04	 add	 edx, DWORD PTR [ecx+4]
  001cf	8b f4		 mov	 esi, esp
  001d1	8b ca		 mov	 ecx, edx
  001d3	ff 15 00 00 00
	00		 call	 DWORD PTR __imp_?fill@?$basic_ios@DU?$char_traits@D@std@@@std@@QBEDXZ
  001d9	3b f4		 cmp	 esi, esp
  001db	e8 00 00 00 00	 call	 __RTC_CheckEsp
  001e0	88 85 b3 fe ff
	ff		 mov	 BYTE PTR tv284[ebp], al
  001e6	8b 45 08	 mov	 eax, DWORD PTR __Ostr$[ebp]
  001e9	8b 08		 mov	 ecx, DWORD PTR [eax]
  001eb	8b 55 08	 mov	 edx, DWORD PTR __Ostr$[ebp]
  001ee	03 51 04	 add	 edx, DWORD PTR [ecx+4]
  001f1	8b f4		 mov	 esi, esp
  001f3	8b ca		 mov	 ecx, edx
  001f5	ff 15 00 00 00
	00		 call	 DWORD PTR __imp_?rdbuf@?$basic_ios@DU?$char_traits@D@std@@@std@@QBEPAV?$basic_streambuf@DU?$char_traits@D@std@@@2@XZ
  001fb	3b f4		 cmp	 esi, esp
  001fd	e8 00 00 00 00	 call	 __RTC_CheckEsp
  00202	89 85 ac fe ff
	ff		 mov	 DWORD PTR tv285[ebp], eax
  00208	8b f4		 mov	 esi, esp
  0020a	0f b6 85 b3 fe
	ff ff		 movzx	 eax, BYTE PTR tv284[ebp]
  00211	50		 push	 eax
  00212	8b 8d ac fe ff
	ff		 mov	 ecx, DWORD PTR tv285[ebp]
  00218	ff 15 00 00 00
	00		 call	 DWORD PTR __imp_?sputc@?$basic_streambuf@DU?$char_traits@D@std@@@std@@QAEHD@Z
  0021e	3b f4		 cmp	 esi, esp
  00220	e8 00 00 00 00	 call	 __RTC_CheckEsp
  00225	89 85 a8 fe ff
	ff		 mov	 DWORD PTR tv286[ebp], eax
  0022b	8b 8d a8 fe ff
	ff		 mov	 ecx, DWORD PTR tv286[ebp]
  00231	89 8d e8 fe ff
	ff		 mov	 DWORD PTR $T6[ebp], ecx
  00237	e8 00 00 00 00	 call	 ?eof@?$_Narrow_char_traits@DH@std@@SAHXZ ; std::_Narrow_char_traits<char,int>::eof
  0023c	89 85 dc fe ff
	ff		 mov	 DWORD PTR $T5[ebp], eax
  00242	8d 95 e8 fe ff
	ff		 lea	 edx, DWORD PTR $T6[ebp]
  00248	52		 push	 edx
  00249	8d 85 dc fe ff
	ff		 lea	 eax, DWORD PTR $T5[ebp]
  0024f	50		 push	 eax
  00250	e8 00 00 00 00	 call	 ?eq_int_type@?$_Narrow_char_traits@DH@std@@SA_NABH0@Z ; std::_Narrow_char_traits<char,int>::eq_int_type
  00255	83 c4 08	 add	 esp, 8
  00258	0f b6 c8	 movzx	 ecx, al
  0025b	85 c9		 test	 ecx, ecx
  0025d	74 0b		 je	 SHORT $LN12@operator

; 747  :                     _State |= ios_base::badbit; // insertion failed, quit

  0025f	8b 45 e4	 mov	 eax, DWORD PTR __State$[ebp]
  00262	83 c8 04	 or	 eax, 4
  00265	89 45 e4	 mov	 DWORD PTR __State$[ebp], eax

; 748  :                     break;

  00268	eb 05		 jmp	 SHORT $LN11@operator
$LN12@operator:

; 749  :                 }
; 750  :             }

  0026a	e9 2d ff ff ff	 jmp	 $LN2@operator
$LN11@operator:

; 751  :         }
; 752  : 
; 753  :         if (_State == ios_base::goodbit && _Ostr.rdbuf()->sputn(_Val, _Count) != _Count) {

  0026f	83 7d e4 00	 cmp	 DWORD PTR __State$[ebp], 0
  00273	75 6e		 jne	 SHORT $LN13@operator
  00275	8b 45 08	 mov	 eax, DWORD PTR __Ostr$[ebp]
  00278	8b 08		 mov	 ecx, DWORD PTR [eax]
  0027a	8b 55 08	 mov	 edx, DWORD PTR __Ostr$[ebp]
  0027d	03 51 04	 add	 edx, DWORD PTR [ecx+4]
  00280	8b f4		 mov	 esi, esp
  00282	8b ca		 mov	 ecx, edx
  00284	ff 15 00 00 00
	00		 call	 DWORD PTR __imp_?rdbuf@?$basic_ios@DU?$char_traits@D@std@@@std@@QBEPAV?$basic_streambuf@DU?$char_traits@D@std@@@2@XZ
  0028a	3b f4		 cmp	 esi, esp
  0028c	e8 00 00 00 00	 call	 __RTC_CheckEsp
  00291	89 85 b0 fe ff
	ff		 mov	 DWORD PTR tv287[ebp], eax
  00297	8b f4		 mov	 esi, esp
  00299	8b 45 d8	 mov	 eax, DWORD PTR __Count$[ebp+4]
  0029c	50		 push	 eax
  0029d	8b 4d d4	 mov	 ecx, DWORD PTR __Count$[ebp]
  002a0	51		 push	 ecx
  002a1	8b 55 0c	 mov	 edx, DWORD PTR __Val$[ebp]
  002a4	52		 push	 edx
  002a5	8b 8d b0 fe ff
	ff		 mov	 ecx, DWORD PTR tv287[ebp]
  002ab	ff 15 00 00 00
	00		 call	 DWORD PTR __imp_?sputn@?$basic_streambuf@DU?$char_traits@D@std@@@std@@QAE_JPBD_J@Z
  002b1	3b f4		 cmp	 esi, esp
  002b3	e8 00 00 00 00	 call	 __RTC_CheckEsp
  002b8	89 85 a8 fe ff
	ff		 mov	 DWORD PTR tv288[ebp], eax
  002be	89 95 ac fe ff
	ff		 mov	 DWORD PTR tv288[ebp+4], edx
  002c4	8b 85 a8 fe ff
	ff		 mov	 eax, DWORD PTR tv288[ebp]
  002ca	3b 45 d4	 cmp	 eax, DWORD PTR __Count$[ebp]
  002cd	75 0b		 jne	 SHORT $LN27@operator
  002cf	8b 8d ac fe ff
	ff		 mov	 ecx, DWORD PTR tv288[ebp+4]
  002d5	3b 4d d8	 cmp	 ecx, DWORD PTR __Count$[ebp+4]
  002d8	74 09		 je	 SHORT $LN13@operator
$LN27@operator:

; 754  :             _State |= ios_base::badbit;

  002da	8b 45 e4	 mov	 eax, DWORD PTR __State$[ebp]
  002dd	83 c8 04	 or	 eax, 4
  002e0	89 45 e4	 mov	 DWORD PTR __State$[ebp], eax
$LN13@operator:

; 755  :         }
; 756  : 
; 757  :         if (_State == ios_base::goodbit) {

  002e3	83 7d e4 00	 cmp	 DWORD PTR __State$[ebp], 0
  002e7	0f 85 d5 00 00
	00		 jne	 $LN14@operator

; 758  :             for (; 0 < _Pad; --_Pad) { // pad on right

  002ed	eb 12		 jmp	 SHORT $LN7@operator
$LN5@operator:
  002ef	8b 45 c4	 mov	 eax, DWORD PTR __Pad$[ebp]
  002f2	83 e8 01	 sub	 eax, 1
  002f5	8b 4d c8	 mov	 ecx, DWORD PTR __Pad$[ebp+4]
  002f8	83 d9 00	 sbb	 ecx, 0
  002fb	89 45 c4	 mov	 DWORD PTR __Pad$[ebp], eax
  002fe	89 4d c8	 mov	 DWORD PTR __Pad$[ebp+4], ecx
$LN7@operator:
  00301	83 7d c8 00	 cmp	 DWORD PTR __Pad$[ebp+4], 0
  00305	0f 8c b7 00 00
	00		 jl	 $LN14@operator
  0030b	7f 0a		 jg	 SHORT $LN28@operator
  0030d	83 7d c4 00	 cmp	 DWORD PTR __Pad$[ebp], 0
  00311	0f 86 ab 00 00
	00		 jbe	 $LN14@operator
$LN28@operator:

; 759  :                 if (_Traits::eq_int_type(_Traits::eof(), _Ostr.rdbuf()->sputc(_Ostr.fill()))) {

  00317	8b 45 08	 mov	 eax, DWORD PTR __Ostr$[ebp]
  0031a	8b 08		 mov	 ecx, DWORD PTR [eax]
  0031c	8b 55 08	 mov	 edx, DWORD PTR __Ostr$[ebp]
  0031f	03 51 04	 add	 edx, DWORD PTR [ecx+4]
  00322	8b f4		 mov	 esi, esp
  00324	8b ca		 mov	 ecx, edx
  00326	ff 15 00 00 00
	00		 call	 DWORD PTR __imp_?fill@?$basic_ios@DU?$char_traits@D@std@@@std@@QBEDXZ
  0032c	3b f4		 cmp	 esi, esp
  0032e	e8 00 00 00 00	 call	 __RTC_CheckEsp
  00333	88 85 b3 fe ff
	ff		 mov	 BYTE PTR tv289[ebp], al
  00339	8b 45 08	 mov	 eax, DWORD PTR __Ostr$[ebp]
  0033c	8b 08		 mov	 ecx, DWORD PTR [eax]
  0033e	8b 55 08	 mov	 edx, DWORD PTR __Ostr$[ebp]
  00341	03 51 04	 add	 edx, DWORD PTR [ecx+4]
  00344	8b f4		 mov	 esi, esp
  00346	8b ca		 mov	 ecx, edx
  00348	ff 15 00 00 00
	00		 call	 DWORD PTR __imp_?rdbuf@?$basic_ios@DU?$char_traits@D@std@@@std@@QBEPAV?$basic_streambuf@DU?$char_traits@D@std@@@2@XZ
  0034e	3b f4		 cmp	 esi, esp
  00350	e8 00 00 00 00	 call	 __RTC_CheckEsp
  00355	89 85 ac fe ff
	ff		 mov	 DWORD PTR tv290[ebp], eax
  0035b	8b f4		 mov	 esi, esp
  0035d	0f b6 85 b3 fe
	ff ff		 movzx	 eax, BYTE PTR tv289[ebp]
  00364	50		 push	 eax
  00365	8b 8d ac fe ff
	ff		 mov	 ecx, DWORD PTR tv290[ebp]
  0036b	ff 15 00 00 00
	00		 call	 DWORD PTR __imp_?sputc@?$basic_streambuf@DU?$char_traits@D@std@@@std@@QAEHD@Z
  00371	3b f4		 cmp	 esi, esp
  00373	e8 00 00 00 00	 call	 __RTC_CheckEsp
  00378	89 85 a8 fe ff
	ff		 mov	 DWORD PTR tv291[ebp], eax
  0037e	8b 8d a8 fe ff
	ff		 mov	 ecx, DWORD PTR tv291[ebp]
  00384	89 8d d0 fe ff
	ff		 mov	 DWORD PTR $T4[ebp], ecx
  0038a	e8 00 00 00 00	 call	 ?eof@?$_Narrow_char_traits@DH@std@@SAHXZ ; std::_Narrow_char_traits<char,int>::eof
  0038f	89 85 c4 fe ff
	ff		 mov	 DWORD PTR $T3[ebp], eax
  00395	8d 95 d0 fe ff
	ff		 lea	 edx, DWORD PTR $T4[ebp]
  0039b	52		 push	 edx
  0039c	8d 85 c4 fe ff
	ff		 lea	 eax, DWORD PTR $T3[ebp]
  003a2	50		 push	 eax
  003a3	e8 00 00 00 00	 call	 ?eq_int_type@?$_Narrow_char_traits@DH@std@@SA_NABH0@Z ; std::_Narrow_char_traits<char,int>::eq_int_type
  003a8	83 c4 08	 add	 esp, 8
  003ab	0f b6 c8	 movzx	 ecx, al
  003ae	85 c9		 test	 ecx, ecx
  003b0	74 0b		 je	 SHORT $LN15@operator

; 760  :                     _State |= ios_base::badbit; // insertion failed, quit

  003b2	8b 45 e4	 mov	 eax, DWORD PTR __State$[ebp]
  003b5	83 c8 04	 or	 eax, 4
  003b8	89 45 e4	 mov	 DWORD PTR __State$[ebp], eax

; 761  :                     break;

  003bb	eb 05		 jmp	 SHORT $LN14@operator
$LN15@operator:

; 762  :                 }
; 763  :             }

  003bd	e9 2d ff ff ff	 jmp	 $LN5@operator
$LN14@operator:

; 764  :         }
; 765  : 
; 766  :         _Ostr.width(0);

  003c2	8b f4		 mov	 esi, esp
  003c4	6a 00		 push	 0
  003c6	6a 00		 push	 0
  003c8	8b 45 08	 mov	 eax, DWORD PTR __Ostr$[ebp]
  003cb	8b 08		 mov	 ecx, DWORD PTR [eax]
  003cd	8b 55 08	 mov	 edx, DWORD PTR __Ostr$[ebp]
  003d0	03 51 04	 add	 edx, DWORD PTR [ecx+4]
  003d3	8b ca		 mov	 ecx, edx
  003d5	ff 15 00 00 00
	00		 call	 DWORD PTR __imp_?width@ios_base@std@@QAE_J_J@Z
  003db	3b f4		 cmp	 esi, esp
  003dd	e8 00 00 00 00	 call	 __RTC_CheckEsp
  003e2	eb 26		 jmp	 SHORT $LN19@operator
__catch$??$?6U?$char_traits@D@std@@@std@@YAAAV?$basic_ostream@DU?$char_traits@D@std@@@0@AAV10@PBD@Z$0:

; 767  :         _CATCH_IO_(ios_base, _Ostr)

  003e4	8b f4		 mov	 esi, esp
  003e6	6a 01		 push	 1
  003e8	6a 04		 push	 4
  003ea	8b 45 08	 mov	 eax, DWORD PTR __Ostr$[ebp]
  003ed	8b 08		 mov	 ecx, DWORD PTR [eax]
  003ef	8b 55 08	 mov	 edx, DWORD PTR __Ostr$[ebp]
  003f2	03 51 04	 add	 edx, DWORD PTR [ecx+4]
  003f5	8b ca		 mov	 ecx, edx
  003f7	ff 15 00 00 00
	00		 call	 DWORD PTR __imp_?setstate@?$basic_ios@DU?$char_traits@D@std@@@std@@QAEXH_N@Z
  003fd	3b f4		 cmp	 esi, esp
  003ff	e8 00 00 00 00	 call	 __RTC_CheckEsp
  00404	b8 00 00 00 00	 mov	 eax, $LN23@operator
  00409	c3		 ret	 0
$LN19@operator:
  0040a	c7 45 fc 00 00
	00 00		 mov	 DWORD PTR __$EHRec$[ebp+12], 0
  00411	eb 07		 jmp	 SHORT $LN9@operator
$LN23@operator:
  00413	c7 45 fc 00 00
	00 00		 mov	 DWORD PTR __$EHRec$[ebp+12], 0
$LN9@operator:

; 768  :     }
; 769  : 
; 770  :     _Ostr.setstate(_State);

  0041a	8b f4		 mov	 esi, esp
  0041c	6a 00		 push	 0
  0041e	8b 45 e4	 mov	 eax, DWORD PTR __State$[ebp]
  00421	50		 push	 eax
  00422	8b 4d 08	 mov	 ecx, DWORD PTR __Ostr$[ebp]
  00425	8b 11		 mov	 edx, DWORD PTR [ecx]
  00427	8b 4d 08	 mov	 ecx, DWORD PTR __Ostr$[ebp]
  0042a	03 4a 04	 add	 ecx, DWORD PTR [edx+4]
  0042d	ff 15 00 00 00
	00		 call	 DWORD PTR __imp_?setstate@?$basic_ios@DU?$char_traits@D@std@@@std@@QAEXH_N@Z
  00433	3b f4		 cmp	 esi, esp
  00435	e8 00 00 00 00	 call	 __RTC_CheckEsp

; 771  :     return _Ostr;

  0043a	8b 45 08	 mov	 eax, DWORD PTR __Ostr$[ebp]
  0043d	89 85 b8 fe ff
	ff		 mov	 DWORD PTR $T2[ebp], eax
  00443	c7 45 fc ff ff
	ff ff		 mov	 DWORD PTR __$EHRec$[ebp+12], -1
  0044a	8d 4d b4	 lea	 ecx, DWORD PTR __Ok$[ebp]
  0044d	e8 00 00 00 00	 call	 ??1sentry@?$basic_ostream@DU?$char_traits@D@std@@@std@@QAE@XZ ; std::basic_ostream<char,std::char_traits<char> >::sentry::~sentry
  00452	8b 85 b8 fe ff
	ff		 mov	 eax, DWORD PTR $T2[ebp]

; 772  : }

  00458	52		 push	 edx
  00459	8b cd		 mov	 ecx, ebp
  0045b	50		 push	 eax
  0045c	8d 15 00 00 00
	00		 lea	 edx, DWORD PTR $LN32@operator
  00462	e8 00 00 00 00	 call	 @_RTC_CheckStackVars@8
  00467	58		 pop	 eax
  00468	5a		 pop	 edx
  00469	8b 4d f4	 mov	 ecx, DWORD PTR __$EHRec$[ebp+4]
  0046c	64 89 0d 00 00
	00 00		 mov	 DWORD PTR fs:0, ecx
  00473	59		 pop	 ecx
  00474	5f		 pop	 edi
  00475	5e		 pop	 esi
  00476	5b		 pop	 ebx
  00477	8b 4d ec	 mov	 ecx, DWORD PTR __$ArrayPad$[ebp]
  0047a	33 cd		 xor	 ecx, ebp
  0047c	e8 00 00 00 00	 call	 @__security_check_cookie@4
  00481	81 c4 64 01 00
	00		 add	 esp, 356		; 00000164H
  00487	3b ec		 cmp	 ebp, esp
  00489	e8 00 00 00 00	 call	 __RTC_CheckEsp
  0048e	8b e5		 mov	 esp, ebp
  00490	5d		 pop	 ebp
  00491	c3		 ret	 0
  00492	66 90		 npad	 2
$LN32@operator:
  00494	01 00 00 00	 DD	 1
  00498	00 00 00 00	 DD	 $LN31@operator
$LN31@operator:
  0049c	b4 ff ff ff	 DD	 -76			; ffffffb4H
  004a0	08 00 00 00	 DD	 8
  004a4	00 00 00 00	 DD	 $LN29@operator
$LN29@operator:
  004a8	5f		 DB	 95			; 0000005fH
  004a9	4f		 DB	 79			; 0000004fH
  004aa	6b		 DB	 107			; 0000006bH
  004ab	00		 DB	 0
_TEXT	ENDS
;	COMDAT text$x
text$x	SEGMENT
__unwindfunclet$??$?6U?$char_traits@D@std@@@std@@YAAAV?$basic_ostream@DU?$char_traits@D@std@@@0@AAV10@PBD@Z$2:
  00000	8d 4d b4	 lea	 ecx, DWORD PTR __Ok$[ebp]
  00003	e9 00 00 00 00	 jmp	 ??1sentry@?$basic_ostream@DU?$char_traits@D@std@@@std@@QAE@XZ ; std::basic_ostream<char,std::char_traits<char> >::sentry::~sentry
  00008	cc		 int	 3
  00009	cc		 int	 3
  0000a	cc		 int	 3
  0000b	cc		 int	 3
  0000c	cc		 int	 3
__ehhandler$??$?6U?$char_traits@D@std@@@std@@YAAAV?$basic_ostream@DU?$char_traits@D@std@@@0@AAV10@PBD@Z:
  0000d	90		 npad	 1
  0000e	90		 npad	 1
  0000f	8b 54 24 08	 mov	 edx, DWORD PTR [esp+8]
  00013	8d 42 0c	 lea	 eax, DWORD PTR [edx+12]
  00016	8b 8a 98 fe ff
	ff		 mov	 ecx, DWORD PTR [edx-360]
  0001c	33 c8		 xor	 ecx, eax
  0001e	e8 00 00 00 00	 call	 @__security_check_cookie@4
  00023	8b 4a f8	 mov	 ecx, DWORD PTR [edx-8]
  00026	33 c8		 xor	 ecx, eax
  00028	e8 00 00 00 00	 call	 @__security_check_cookie@4
  0002d	b8 00 00 00 00	 mov	 eax, OFFSET __ehfuncinfo$??$?6U?$char_traits@D@std@@@std@@YAAAV?$basic_ostream@DU?$char_traits@D@std@@@0@AAV10@PBD@Z
  00032	e9 00 00 00 00	 jmp	 ___CxxFrameHandler3
text$x	ENDS
??$?6U?$char_traits@D@std@@@std@@YAAAV?$basic_ostream@DU?$char_traits@D@std@@@0@AAV10@PBD@Z ENDP ; std::operator<<<std::char_traits<char> >
; Function compile flags: /Odtp /RTCsu /ZI
; File D:\уник\кпо\лабораторные работы\лаба 1\laba1\laba1\laba1.cpp
;	COMDAT _main
_TEXT	SEGMENT
tv364 = -1004						; size = 4
tv362 = -1004						; size = 4
tv360 = -1004						; size = 4
tv358 = -1004						; size = 4
tv356 = -1004						; size = 4
tv354 = -1004						; size = 4
$T2 = -996						; size = 4
$T3 = -984						; size = 28
$T4 = -948						; size = 28
$T5 = -912						; size = 28
$T6 = -876						; size = 28
$T7 = -840						; size = 28
$T8 = -804						; size = 28
_i$ = -384						; size = 4
_N$ = -372						; size = 4
_counting2$ = -360					; size = 4
_counting1$ = -348					; size = 4
_BirthYear1$ = -336					; size = 4
_BirthMonth1$ = -324					; size = 4
_BirthDay1$ = -312					; size = 4
_BirthYear$ = -300					; size = 28
_BirthMonth$ = -264					; size = 28
_BirthDay$ = -228					; size = 28
_Birth$ = -192						; size = 28
_year$ = -156						; size = 28
_month$ = -120						; size = 28
_day$ = -84						; size = 28
_date$ = -48						; size = 28
__$ArrayPad$ = -16					; size = 4
__$EHRec$ = -12						; size = 12
_main	PROC						; COMDAT

; 9    : {

  00000	55		 push	 ebp
  00001	8b ec		 mov	 ebp, esp
  00003	6a ff		 push	 -1
  00005	68 00 00 00 00	 push	 __ehhandler$_main
  0000a	64 a1 00 00 00
	00		 mov	 eax, DWORD PTR fs:0
  00010	50		 push	 eax
  00011	81 ec e0 03 00
	00		 sub	 esp, 992		; 000003e0H
  00017	53		 push	 ebx
  00018	56		 push	 esi
  00019	57		 push	 edi
  0001a	8d bd 94 fd ff
	ff		 lea	 edi, DWORD PTR [ebp-620]
  00020	b9 98 00 00 00	 mov	 ecx, 152		; 00000098H
  00025	b8 cc cc cc cc	 mov	 eax, -858993460		; ccccccccH
  0002a	f3 ab		 rep stosd
  0002c	a1 00 00 00 00	 mov	 eax, DWORD PTR ___security_cookie
  00031	33 c5		 xor	 eax, ebp
  00033	89 45 f0	 mov	 DWORD PTR __$ArrayPad$[ebp], eax
  00036	50		 push	 eax
  00037	8d 45 f4	 lea	 eax, DWORD PTR __$EHRec$[ebp]
  0003a	64 a3 00 00 00
	00		 mov	 DWORD PTR fs:0, eax
  00040	b9 00 00 00 00	 mov	 ecx, OFFSET __92520C49_laba1@cpp
  00045	e8 00 00 00 00	 call	 @__CheckForDebuggerJustMyCode@4
$start$51:

; 10   : start:
; 11   : 
; 12   : 	setlocale(LC_ALL, "Ru");

  0004a	8b f4		 mov	 esi, esp
  0004c	68 00 00 00 00	 push	 OFFSET ??_C@_02DNMOFBIA@Ru@
  00051	6a 00		 push	 0
  00053	ff 15 00 00 00
	00		 call	 DWORD PTR __imp__setlocale
  00059	83 c4 08	 add	 esp, 8
  0005c	3b f4		 cmp	 esi, esp
  0005e	e8 00 00 00 00	 call	 __RTC_CheckEsp

; 13   : 	string date, day, month, year, Birth, BirthDay, BirthMonth, BirthYear;

  00063	8d 4d d0	 lea	 ecx, DWORD PTR _date$[ebp]
  00066	e8 00 00 00 00	 call	 ??0?$basic_string@DU?$char_traits@D@std@@V?$allocator@D@2@@std@@QAE@XZ ; std::basic_string<char,std::char_traits<char>,std::allocator<char> >::basic_string<char,std::char_traits<char>,std::allocator<char> >
  0006b	c7 45 fc 00 00
	00 00		 mov	 DWORD PTR __$EHRec$[ebp+8], 0
  00072	8d 4d ac	 lea	 ecx, DWORD PTR _day$[ebp]
  00075	e8 00 00 00 00	 call	 ??0?$basic_string@DU?$char_traits@D@std@@V?$allocator@D@2@@std@@QAE@XZ ; std::basic_string<char,std::char_traits<char>,std::allocator<char> >::basic_string<char,std::char_traits<char>,std::allocator<char> >
  0007a	c6 45 fc 01	 mov	 BYTE PTR __$EHRec$[ebp+8], 1
  0007e	8d 4d 88	 lea	 ecx, DWORD PTR _month$[ebp]
  00081	e8 00 00 00 00	 call	 ??0?$basic_string@DU?$char_traits@D@std@@V?$allocator@D@2@@std@@QAE@XZ ; std::basic_string<char,std::char_traits<char>,std::allocator<char> >::basic_string<char,std::char_traits<char>,std::allocator<char> >
  00086	c6 45 fc 02	 mov	 BYTE PTR __$EHRec$[ebp+8], 2
  0008a	8d 8d 64 ff ff
	ff		 lea	 ecx, DWORD PTR _year$[ebp]
  00090	e8 00 00 00 00	 call	 ??0?$basic_string@DU?$char_traits@D@std@@V?$allocator@D@2@@std@@QAE@XZ ; std::basic_string<char,std::char_traits<char>,std::allocator<char> >::basic_string<char,std::char_traits<char>,std::allocator<char> >
  00095	c6 45 fc 03	 mov	 BYTE PTR __$EHRec$[ebp+8], 3
  00099	8d 8d 40 ff ff
	ff		 lea	 ecx, DWORD PTR _Birth$[ebp]
  0009f	e8 00 00 00 00	 call	 ??0?$basic_string@DU?$char_traits@D@std@@V?$allocator@D@2@@std@@QAE@XZ ; std::basic_string<char,std::char_traits<char>,std::allocator<char> >::basic_string<char,std::char_traits<char>,std::allocator<char> >
  000a4	c6 45 fc 04	 mov	 BYTE PTR __$EHRec$[ebp+8], 4
  000a8	8d 8d 1c ff ff
	ff		 lea	 ecx, DWORD PTR _BirthDay$[ebp]
  000ae	e8 00 00 00 00	 call	 ??0?$basic_string@DU?$char_traits@D@std@@V?$allocator@D@2@@std@@QAE@XZ ; std::basic_string<char,std::char_traits<char>,std::allocator<char> >::basic_string<char,std::char_traits<char>,std::allocator<char> >
  000b3	c6 45 fc 05	 mov	 BYTE PTR __$EHRec$[ebp+8], 5
  000b7	8d 8d f8 fe ff
	ff		 lea	 ecx, DWORD PTR _BirthMonth$[ebp]
  000bd	e8 00 00 00 00	 call	 ??0?$basic_string@DU?$char_traits@D@std@@V?$allocator@D@2@@std@@QAE@XZ ; std::basic_string<char,std::char_traits<char>,std::allocator<char> >::basic_string<char,std::char_traits<char>,std::allocator<char> >
  000c2	c6 45 fc 06	 mov	 BYTE PTR __$EHRec$[ebp+8], 6
  000c6	8d 8d d4 fe ff
	ff		 lea	 ecx, DWORD PTR _BirthYear$[ebp]
  000cc	e8 00 00 00 00	 call	 ??0?$basic_string@DU?$char_traits@D@std@@V?$allocator@D@2@@std@@QAE@XZ ; std::basic_string<char,std::char_traits<char>,std::allocator<char> >::basic_string<char,std::char_traits<char>,std::allocator<char> >
  000d1	c6 45 fc 07	 mov	 BYTE PTR __$EHRec$[ebp+8], 7

; 14   : 	extern int day1, month1, year1, counting, months[12], leapmonths[12];
; 15   : 	int BirthDay1, BirthMonth1, BirthYear1, counting1, counting2, N(0), i(0);

  000d5	c7 85 8c fe ff
	ff 00 00 00 00	 mov	 DWORD PTR _N$[ebp], 0
  000df	c7 85 80 fe ff
	ff 00 00 00 00	 mov	 DWORD PTR _i$[ebp], 0

; 16   : 
; 17   : 	cout << "Р’РІРµРґРёС‚Рµ РґР°С‚Сѓ: ";

  000e9	68 00 00 00 00	 push	 OFFSET ??_C@_0P@OJFPMJEG@?B?b?e?d?h?r?e?5?d?$OA?r?s?3?5@
  000ee	a1 00 00 00 00	 mov	 eax, DWORD PTR __imp_?cout@std@@3V?$basic_ostream@DU?$char_traits@D@std@@@1@A
  000f3	50		 push	 eax
  000f4	e8 00 00 00 00	 call	 ??$?6U?$char_traits@D@std@@@std@@YAAAV?$basic_ostream@DU?$char_traits@D@std@@@0@AAV10@PBD@Z ; std::operator<<<std::char_traits<char> >
  000f9	83 c4 08	 add	 esp, 8

; 18   : 	cin >> date;

  000fc	8d 45 d0	 lea	 eax, DWORD PTR _date$[ebp]
  000ff	50		 push	 eax
  00100	8b 0d 00 00 00
	00		 mov	 ecx, DWORD PTR __imp_?cin@std@@3V?$basic_istream@DU?$char_traits@D@std@@@1@A
  00106	51		 push	 ecx
  00107	e8 00 00 00 00	 call	 ??$?5DU?$char_traits@D@std@@V?$allocator@D@1@@std@@YAAAV?$basic_istream@DU?$char_traits@D@std@@@0@AAV10@AAV?$basic_string@DU?$char_traits@D@std@@V?$allocator@D@2@@0@@Z ; std::operator>><char,std::char_traits<char>,std::allocator<char> >
  0010c	83 c4 08	 add	 esp, 8

; 19   : 
; 20   : 	if (size(date) != 8)

  0010f	8d 45 d0	 lea	 eax, DWORD PTR _date$[ebp]
  00112	50		 push	 eax
  00113	e8 00 00 00 00	 call	 ??$size@V?$basic_string@DU?$char_traits@D@std@@V?$allocator@D@2@@std@@@std@@YAIABV?$basic_string@DU?$char_traits@D@std@@V?$allocator@D@2@@0@@Z ; std::size<std::basic_string<char,std::char_traits<char>,std::allocator<char> > >
  00118	83 c4 04	 add	 esp, 4
  0011b	83 f8 08	 cmp	 eax, 8
  0011e	0f 84 a0 00 00
	00		 je	 $exit$52

; 21   : 	{
; 22   : 		cout << "\tР’РІРµРґРёС‚Рµ РґР°С‚Сѓ РєРѕСЂСЂРµРєС‚РЅРѕ" << endl;

  00124	8b f4		 mov	 esi, esp
  00126	68 00 00 00 00	 push	 OFFSET ??$endl@DU?$char_traits@D@std@@@std@@YAAAV?$basic_ostream@DU?$char_traits@D@std@@@0@AAV10@@Z ; std::endl<char,std::char_traits<char> >
  0012b	68 00 00 00 00	 push	 OFFSET ??_C@_0BI@MPECNJHM@?7?B?b?e?d?h?r?e?5?d?$OA?r?s?5?j?n?p?p?e?j?r?m?n@
  00130	a1 00 00 00 00	 mov	 eax, DWORD PTR __imp_?cout@std@@3V?$basic_ostream@DU?$char_traits@D@std@@@1@A
  00135	50		 push	 eax
  00136	e8 00 00 00 00	 call	 ??$?6U?$char_traits@D@std@@@std@@YAAAV?$basic_ostream@DU?$char_traits@D@std@@@0@AAV10@PBD@Z ; std::operator<<<std::char_traits<char> >
  0013b	83 c4 08	 add	 esp, 8
  0013e	8b c8		 mov	 ecx, eax
  00140	ff 15 00 00 00
	00		 call	 DWORD PTR __imp_??6?$basic_ostream@DU?$char_traits@D@std@@@std@@QAEAAV01@P6AAAV01@AAV01@@Z@Z
  00146	3b f4		 cmp	 esi, esp
  00148	e8 00 00 00 00	 call	 __RTC_CheckEsp

; 23   : 		goto start;

  0014d	c6 45 fc 06	 mov	 BYTE PTR __$EHRec$[ebp+8], 6
  00151	8d 8d d4 fe ff
	ff		 lea	 ecx, DWORD PTR _BirthYear$[ebp]
  00157	e8 00 00 00 00	 call	 ??1?$basic_string@DU?$char_traits@D@std@@V?$allocator@D@2@@std@@QAE@XZ ; std::basic_string<char,std::char_traits<char>,std::allocator<char> >::~basic_string<char,std::char_traits<char>,std::allocator<char> >
  0015c	c6 45 fc 05	 mov	 BYTE PTR __$EHRec$[ebp+8], 5
  00160	8d 8d f8 fe ff
	ff		 lea	 ecx, DWORD PTR _BirthMonth$[ebp]
  00166	e8 00 00 00 00	 call	 ??1?$basic_string@DU?$char_traits@D@std@@V?$allocator@D@2@@std@@QAE@XZ ; std::basic_string<char,std::char_traits<char>,std::allocator<char> >::~basic_string<char,std::char_traits<char>,std::allocator<char> >
  0016b	c6 45 fc 04	 mov	 BYTE PTR __$EHRec$[ebp+8], 4
  0016f	8d 8d 1c ff ff
	ff		 lea	 ecx, DWORD PTR _BirthDay$[ebp]
  00175	e8 00 00 00 00	 call	 ??1?$basic_string@DU?$char_traits@D@std@@V?$allocator@D@2@@std@@QAE@XZ ; std::basic_string<char,std::char_traits<char>,std::allocator<char> >::~basic_string<char,std::char_traits<char>,std::allocator<char> >
  0017a	c6 45 fc 03	 mov	 BYTE PTR __$EHRec$[ebp+8], 3
  0017e	8d 8d 40 ff ff
	ff		 lea	 ecx, DWORD PTR _Birth$[ebp]
  00184	e8 00 00 00 00	 call	 ??1?$basic_string@DU?$char_traits@D@std@@V?$allocator@D@2@@std@@QAE@XZ ; std::basic_string<char,std::char_traits<char>,std::allocator<char> >::~basic_string<char,std::char_traits<char>,std::allocator<char> >
  00189	c6 45 fc 02	 mov	 BYTE PTR __$EHRec$[ebp+8], 2
  0018d	8d 8d 64 ff ff
	ff		 lea	 ecx, DWORD PTR _year$[ebp]
  00193	e8 00 00 00 00	 call	 ??1?$basic_string@DU?$char_traits@D@std@@V?$allocator@D@2@@std@@QAE@XZ ; std::basic_string<char,std::char_traits<char>,std::allocator<char> >::~basic_string<char,std::char_traits<char>,std::allocator<char> >
  00198	c6 45 fc 01	 mov	 BYTE PTR __$EHRec$[ebp+8], 1
  0019c	8d 4d 88	 lea	 ecx, DWORD PTR _month$[ebp]
  0019f	e8 00 00 00 00	 call	 ??1?$basic_string@DU?$char_traits@D@std@@V?$allocator@D@2@@std@@QAE@XZ ; std::basic_string<char,std::char_traits<char>,std::allocator<char> >::~basic_string<char,std::char_traits<char>,std::allocator<char> >
  001a4	c6 45 fc 00	 mov	 BYTE PTR __$EHRec$[ebp+8], 0
  001a8	8d 4d ac	 lea	 ecx, DWORD PTR _day$[ebp]
  001ab	e8 00 00 00 00	 call	 ??1?$basic_string@DU?$char_traits@D@std@@V?$allocator@D@2@@std@@QAE@XZ ; std::basic_string<char,std::char_traits<char>,std::allocator<char> >::~basic_string<char,std::char_traits<char>,std::allocator<char> >
  001b0	c7 45 fc ff ff
	ff ff		 mov	 DWORD PTR __$EHRec$[ebp+8], -1
  001b7	8d 4d d0	 lea	 ecx, DWORD PTR _date$[ebp]
  001ba	e8 00 00 00 00	 call	 ??1?$basic_string@DU?$char_traits@D@std@@V?$allocator@D@2@@std@@QAE@XZ ; std::basic_string<char,std::char_traits<char>,std::allocator<char> >::~basic_string<char,std::char_traits<char>,std::allocator<char> >
  001bf	e9 86 fe ff ff	 jmp	 $start$51
$exit$52:

; 24   : 
; 25   : 	}
; 26   : 	else
; 27   : 	{
; 28   : 		goto exit;
; 29   : 	}
; 30   : exit:
; 31   : 
; 32   : 	day = date.substr(0, 2);

  001c4	6a 02		 push	 2
  001c6	6a 00		 push	 0
  001c8	8d 85 dc fc ff
	ff		 lea	 eax, DWORD PTR $T8[ebp]
  001ce	50		 push	 eax
  001cf	8d 4d d0	 lea	 ecx, DWORD PTR _date$[ebp]
  001d2	e8 00 00 00 00	 call	 ?substr@?$basic_string@DU?$char_traits@D@std@@V?$allocator@D@2@@std@@QBE?AV12@II@Z ; std::basic_string<char,std::char_traits<char>,std::allocator<char> >::substr
  001d7	89 85 14 fc ff
	ff		 mov	 DWORD PTR tv354[ebp], eax
  001dd	8b 8d 14 fc ff
	ff		 mov	 ecx, DWORD PTR tv354[ebp]
  001e3	51		 push	 ecx
  001e4	8d 4d ac	 lea	 ecx, DWORD PTR _day$[ebp]
  001e7	e8 00 00 00 00	 call	 ??4?$basic_string@DU?$char_traits@D@std@@V?$allocator@D@2@@std@@QAEAAV01@$$QAV01@@Z ; std::basic_string<char,std::char_traits<char>,std::allocator<char> >::operator=
  001ec	8d 8d dc fc ff
	ff		 lea	 ecx, DWORD PTR $T8[ebp]
  001f2	e8 00 00 00 00	 call	 ??1?$basic_string@DU?$char_traits@D@std@@V?$allocator@D@2@@std@@QAE@XZ ; std::basic_string<char,std::char_traits<char>,std::allocator<char> >::~basic_string<char,std::char_traits<char>,std::allocator<char> >

; 33   : 	day1 = stoi(day);

  001f7	6a 0a		 push	 10			; 0000000aH
  001f9	6a 00		 push	 0
  001fb	8d 45 ac	 lea	 eax, DWORD PTR _day$[ebp]
  001fe	50		 push	 eax
  001ff	e8 00 00 00 00	 call	 ?stoi@std@@YAHABV?$basic_string@DU?$char_traits@D@std@@V?$allocator@D@2@@1@PAIH@Z ; std::stoi
  00204	83 c4 0c	 add	 esp, 12			; 0000000cH
  00207	a3 00 00 00 00	 mov	 DWORD PTR ?day1@@3HA, eax ; day1

; 34   : 	cout << day << ".";

  0020c	68 00 00 00 00	 push	 OFFSET ??_C@_01LFCBOECM@?4@
  00211	8d 45 ac	 lea	 eax, DWORD PTR _day$[ebp]
  00214	50		 push	 eax
  00215	8b 0d 00 00 00
	00		 mov	 ecx, DWORD PTR __imp_?cout@std@@3V?$basic_ostream@DU?$char_traits@D@std@@@1@A
  0021b	51		 push	 ecx
  0021c	e8 00 00 00 00	 call	 ??$?6DU?$char_traits@D@std@@V?$allocator@D@1@@std@@YAAAV?$basic_ostream@DU?$char_traits@D@std@@@0@AAV10@ABV?$basic_string@DU?$char_traits@D@std@@V?$allocator@D@2@@0@@Z ; std::operator<<<char,std::char_traits<char>,std::allocator<char> >
  00221	83 c4 08	 add	 esp, 8
  00224	50		 push	 eax
  00225	e8 00 00 00 00	 call	 ??$?6U?$char_traits@D@std@@@std@@YAAAV?$basic_ostream@DU?$char_traits@D@std@@@0@AAV10@PBD@Z ; std::operator<<<std::char_traits<char> >
  0022a	83 c4 08	 add	 esp, 8

; 35   : 	month = date.substr(2, 2);

  0022d	6a 02		 push	 2
  0022f	6a 02		 push	 2
  00231	8d 85 b8 fc ff
	ff		 lea	 eax, DWORD PTR $T7[ebp]
  00237	50		 push	 eax
  00238	8d 4d d0	 lea	 ecx, DWORD PTR _date$[ebp]
  0023b	e8 00 00 00 00	 call	 ?substr@?$basic_string@DU?$char_traits@D@std@@V?$allocator@D@2@@std@@QBE?AV12@II@Z ; std::basic_string<char,std::char_traits<char>,std::allocator<char> >::substr
  00240	89 85 14 fc ff
	ff		 mov	 DWORD PTR tv356[ebp], eax
  00246	8b 8d 14 fc ff
	ff		 mov	 ecx, DWORD PTR tv356[ebp]
  0024c	51		 push	 ecx
  0024d	8d 4d 88	 lea	 ecx, DWORD PTR _month$[ebp]
  00250	e8 00 00 00 00	 call	 ??4?$basic_string@DU?$char_traits@D@std@@V?$allocator@D@2@@std@@QAEAAV01@$$QAV01@@Z ; std::basic_string<char,std::char_traits<char>,std::allocator<char> >::operator=
  00255	8d 8d b8 fc ff
	ff		 lea	 ecx, DWORD PTR $T7[ebp]
  0025b	e8 00 00 00 00	 call	 ??1?$basic_string@DU?$char_traits@D@std@@V?$allocator@D@2@@std@@QAE@XZ ; std::basic_string<char,std::char_traits<char>,std::allocator<char> >::~basic_string<char,std::char_traits<char>,std::allocator<char> >

; 36   : 	month1 = stoi(month);

  00260	6a 0a		 push	 10			; 0000000aH
  00262	6a 00		 push	 0
  00264	8d 45 88	 lea	 eax, DWORD PTR _month$[ebp]
  00267	50		 push	 eax
  00268	e8 00 00 00 00	 call	 ?stoi@std@@YAHABV?$basic_string@DU?$char_traits@D@std@@V?$allocator@D@2@@1@PAIH@Z ; std::stoi
  0026d	83 c4 0c	 add	 esp, 12			; 0000000cH
  00270	a3 00 00 00 00	 mov	 DWORD PTR ?month1@@3HA, eax ; month1

; 37   : 	cout << month << ".";

  00275	68 00 00 00 00	 push	 OFFSET ??_C@_01LFCBOECM@?4@
  0027a	8d 45 88	 lea	 eax, DWORD PTR _month$[ebp]
  0027d	50		 push	 eax
  0027e	8b 0d 00 00 00
	00		 mov	 ecx, DWORD PTR __imp_?cout@std@@3V?$basic_ostream@DU?$char_traits@D@std@@@1@A
  00284	51		 push	 ecx
  00285	e8 00 00 00 00	 call	 ??$?6DU?$char_traits@D@std@@V?$allocator@D@1@@std@@YAAAV?$basic_ostream@DU?$char_traits@D@std@@@0@AAV10@ABV?$basic_string@DU?$char_traits@D@std@@V?$allocator@D@2@@0@@Z ; std::operator<<<char,std::char_traits<char>,std::allocator<char> >
  0028a	83 c4 08	 add	 esp, 8
  0028d	50		 push	 eax
  0028e	e8 00 00 00 00	 call	 ??$?6U?$char_traits@D@std@@@std@@YAAAV?$basic_ostream@DU?$char_traits@D@std@@@0@AAV10@PBD@Z ; std::operator<<<std::char_traits<char> >
  00293	83 c4 08	 add	 esp, 8

; 38   : 	year = date.substr(4, 8);

  00296	6a 08		 push	 8
  00298	6a 04		 push	 4
  0029a	8d 85 94 fc ff
	ff		 lea	 eax, DWORD PTR $T6[ebp]
  002a0	50		 push	 eax
  002a1	8d 4d d0	 lea	 ecx, DWORD PTR _date$[ebp]
  002a4	e8 00 00 00 00	 call	 ?substr@?$basic_string@DU?$char_traits@D@std@@V?$allocator@D@2@@std@@QBE?AV12@II@Z ; std::basic_string<char,std::char_traits<char>,std::allocator<char> >::substr
  002a9	89 85 14 fc ff
	ff		 mov	 DWORD PTR tv358[ebp], eax
  002af	8b 8d 14 fc ff
	ff		 mov	 ecx, DWORD PTR tv358[ebp]
  002b5	51		 push	 ecx
  002b6	8d 8d 64 ff ff
	ff		 lea	 ecx, DWORD PTR _year$[ebp]
  002bc	e8 00 00 00 00	 call	 ??4?$basic_string@DU?$char_traits@D@std@@V?$allocator@D@2@@std@@QAEAAV01@$$QAV01@@Z ; std::basic_string<char,std::char_traits<char>,std::allocator<char> >::operator=
  002c1	8d 8d 94 fc ff
	ff		 lea	 ecx, DWORD PTR $T6[ebp]
  002c7	e8 00 00 00 00	 call	 ??1?$basic_string@DU?$char_traits@D@std@@V?$allocator@D@2@@std@@QAE@XZ ; std::basic_string<char,std::char_traits<char>,std::allocator<char> >::~basic_string<char,std::char_traits<char>,std::allocator<char> >

; 39   : 	year1 = stoi(year);

  002cc	6a 0a		 push	 10			; 0000000aH
  002ce	6a 00		 push	 0
  002d0	8d 85 64 ff ff
	ff		 lea	 eax, DWORD PTR _year$[ebp]
  002d6	50		 push	 eax
  002d7	e8 00 00 00 00	 call	 ?stoi@std@@YAHABV?$basic_string@DU?$char_traits@D@std@@V?$allocator@D@2@@1@PAIH@Z ; std::stoi
  002dc	83 c4 0c	 add	 esp, 12			; 0000000cH
  002df	a3 00 00 00 00	 mov	 DWORD PTR ?year1@@3HA, eax ; year1

; 40   : 	cout << year << endl;

  002e4	8b f4		 mov	 esi, esp
  002e6	68 00 00 00 00	 push	 OFFSET ??$endl@DU?$char_traits@D@std@@@std@@YAAAV?$basic_ostream@DU?$char_traits@D@std@@@0@AAV10@@Z ; std::endl<char,std::char_traits<char> >
  002eb	8d 85 64 ff ff
	ff		 lea	 eax, DWORD PTR _year$[ebp]
  002f1	50		 push	 eax
  002f2	8b 0d 00 00 00
	00		 mov	 ecx, DWORD PTR __imp_?cout@std@@3V?$basic_ostream@DU?$char_traits@D@std@@@1@A
  002f8	51		 push	 ecx
  002f9	e8 00 00 00 00	 call	 ??$?6DU?$char_traits@D@std@@V?$allocator@D@1@@std@@YAAAV?$basic_ostream@DU?$char_traits@D@std@@@0@AAV10@ABV?$basic_string@DU?$char_traits@D@std@@V?$allocator@D@2@@0@@Z ; std::operator<<<char,std::char_traits<char>,std::allocator<char> >
  002fe	83 c4 08	 add	 esp, 8
  00301	8b c8		 mov	 ecx, eax
  00303	ff 15 00 00 00
	00		 call	 DWORD PTR __imp_??6?$basic_ostream@DU?$char_traits@D@std@@@std@@QAEAAV01@P6AAAV01@AAV01@@Z@Z
  00309	3b f4		 cmp	 esi, esp
  0030b	e8 00 00 00 00	 call	 __RTC_CheckEsp

; 41   : 
; 42   : 	LeapYear();

  00310	e8 00 00 00 00	 call	 ?LeapYear@@YAXXZ	; LeapYear

; 43   : 	CountDay();

  00315	e8 00 00 00 00	 call	 ?CountDay@@YAXXZ	; CountDay

; 44   : 
; 45   : 	cout << "Р’РІРµРґРёС‚Рµ РєРѕРіРґР° Сѓ РІР°СЃ РґРµРЅСЊ СЂРѕР¶РґРµРЅРёСЏ ";

  0031a	68 00 00 00 00	 push	 OFFSET ??_C@_0CD@BDOPLCLO@?B?b?e?d?h?r?e?5?j?n?c?d?$OA?5?s?5?b?$OA?q?5?d?e?m?$PM?5?p?n?f?d?e?m@
  0031f	a1 00 00 00 00	 mov	 eax, DWORD PTR __imp_?cout@std@@3V?$basic_ostream@DU?$char_traits@D@std@@@1@A
  00324	50		 push	 eax
  00325	e8 00 00 00 00	 call	 ??$?6U?$char_traits@D@std@@@std@@YAAAV?$basic_ostream@DU?$char_traits@D@std@@@0@AAV10@PBD@Z ; std::operator<<<std::char_traits<char> >
  0032a	83 c4 08	 add	 esp, 8

; 46   : 	cin >> Birth;

  0032d	8d 85 40 ff ff
	ff		 lea	 eax, DWORD PTR _Birth$[ebp]
  00333	50		 push	 eax
  00334	8b 0d 00 00 00
	00		 mov	 ecx, DWORD PTR __imp_?cin@std@@3V?$basic_istream@DU?$char_traits@D@std@@@1@A
  0033a	51		 push	 ecx
  0033b	e8 00 00 00 00	 call	 ??$?5DU?$char_traits@D@std@@V?$allocator@D@1@@std@@YAAAV?$basic_istream@DU?$char_traits@D@std@@@0@AAV10@AAV?$basic_string@DU?$char_traits@D@std@@V?$allocator@D@2@@0@@Z ; std::operator>><char,std::char_traits<char>,std::allocator<char> >
  00340	83 c4 08	 add	 esp, 8

; 47   : 
; 48   : 	BirthDay = Birth.substr(0, 2);

  00343	6a 02		 push	 2
  00345	6a 00		 push	 0
  00347	8d 85 70 fc ff
	ff		 lea	 eax, DWORD PTR $T5[ebp]
  0034d	50		 push	 eax
  0034e	8d 8d 40 ff ff
	ff		 lea	 ecx, DWORD PTR _Birth$[ebp]
  00354	e8 00 00 00 00	 call	 ?substr@?$basic_string@DU?$char_traits@D@std@@V?$allocator@D@2@@std@@QBE?AV12@II@Z ; std::basic_string<char,std::char_traits<char>,std::allocator<char> >::substr
  00359	89 85 14 fc ff
	ff		 mov	 DWORD PTR tv360[ebp], eax
  0035f	8b 8d 14 fc ff
	ff		 mov	 ecx, DWORD PTR tv360[ebp]
  00365	51		 push	 ecx
  00366	8d 8d 1c ff ff
	ff		 lea	 ecx, DWORD PTR _BirthDay$[ebp]
  0036c	e8 00 00 00 00	 call	 ??4?$basic_string@DU?$char_traits@D@std@@V?$allocator@D@2@@std@@QAEAAV01@$$QAV01@@Z ; std::basic_string<char,std::char_traits<char>,std::allocator<char> >::operator=
  00371	8d 8d 70 fc ff
	ff		 lea	 ecx, DWORD PTR $T5[ebp]
  00377	e8 00 00 00 00	 call	 ??1?$basic_string@DU?$char_traits@D@std@@V?$allocator@D@2@@std@@QAE@XZ ; std::basic_string<char,std::char_traits<char>,std::allocator<char> >::~basic_string<char,std::char_traits<char>,std::allocator<char> >

; 49   : 	BirthDay1 = stoi(BirthDay);

  0037c	6a 0a		 push	 10			; 0000000aH
  0037e	6a 00		 push	 0
  00380	8d 85 1c ff ff
	ff		 lea	 eax, DWORD PTR _BirthDay$[ebp]
  00386	50		 push	 eax
  00387	e8 00 00 00 00	 call	 ?stoi@std@@YAHABV?$basic_string@DU?$char_traits@D@std@@V?$allocator@D@2@@1@PAIH@Z ; std::stoi
  0038c	83 c4 0c	 add	 esp, 12			; 0000000cH
  0038f	89 85 c8 fe ff
	ff		 mov	 DWORD PTR _BirthDay1$[ebp], eax

; 50   : 	cout << BirthDay << ".";

  00395	68 00 00 00 00	 push	 OFFSET ??_C@_01LFCBOECM@?4@
  0039a	8d 85 1c ff ff
	ff		 lea	 eax, DWORD PTR _BirthDay$[ebp]
  003a0	50		 push	 eax
  003a1	8b 0d 00 00 00
	00		 mov	 ecx, DWORD PTR __imp_?cout@std@@3V?$basic_ostream@DU?$char_traits@D@std@@@1@A
  003a7	51		 push	 ecx
  003a8	e8 00 00 00 00	 call	 ??$?6DU?$char_traits@D@std@@V?$allocator@D@1@@std@@YAAAV?$basic_ostream@DU?$char_traits@D@std@@@0@AAV10@ABV?$basic_string@DU?$char_traits@D@std@@V?$allocator@D@2@@0@@Z ; std::operator<<<char,std::char_traits<char>,std::allocator<char> >
  003ad	83 c4 08	 add	 esp, 8
  003b0	50		 push	 eax
  003b1	e8 00 00 00 00	 call	 ??$?6U?$char_traits@D@std@@@std@@YAAAV?$basic_ostream@DU?$char_traits@D@std@@@0@AAV10@PBD@Z ; std::operator<<<std::char_traits<char> >
  003b6	83 c4 08	 add	 esp, 8

; 51   : 	BirthMonth = Birth.substr(2, 2);

  003b9	6a 02		 push	 2
  003bb	6a 02		 push	 2
  003bd	8d 85 4c fc ff
	ff		 lea	 eax, DWORD PTR $T4[ebp]
  003c3	50		 push	 eax
  003c4	8d 8d 40 ff ff
	ff		 lea	 ecx, DWORD PTR _Birth$[ebp]
  003ca	e8 00 00 00 00	 call	 ?substr@?$basic_string@DU?$char_traits@D@std@@V?$allocator@D@2@@std@@QBE?AV12@II@Z ; std::basic_string<char,std::char_traits<char>,std::allocator<char> >::substr
  003cf	89 85 14 fc ff
	ff		 mov	 DWORD PTR tv362[ebp], eax
  003d5	8b 8d 14 fc ff
	ff		 mov	 ecx, DWORD PTR tv362[ebp]
  003db	51		 push	 ecx
  003dc	8d 8d f8 fe ff
	ff		 lea	 ecx, DWORD PTR _BirthMonth$[ebp]
  003e2	e8 00 00 00 00	 call	 ??4?$basic_string@DU?$char_traits@D@std@@V?$allocator@D@2@@std@@QAEAAV01@$$QAV01@@Z ; std::basic_string<char,std::char_traits<char>,std::allocator<char> >::operator=
  003e7	8d 8d 4c fc ff
	ff		 lea	 ecx, DWORD PTR $T4[ebp]
  003ed	e8 00 00 00 00	 call	 ??1?$basic_string@DU?$char_traits@D@std@@V?$allocator@D@2@@std@@QAE@XZ ; std::basic_string<char,std::char_traits<char>,std::allocator<char> >::~basic_string<char,std::char_traits<char>,std::allocator<char> >

; 52   : 	BirthMonth1 = stoi(BirthMonth);

  003f2	6a 0a		 push	 10			; 0000000aH
  003f4	6a 00		 push	 0
  003f6	8d 85 f8 fe ff
	ff		 lea	 eax, DWORD PTR _BirthMonth$[ebp]
  003fc	50		 push	 eax
  003fd	e8 00 00 00 00	 call	 ?stoi@std@@YAHABV?$basic_string@DU?$char_traits@D@std@@V?$allocator@D@2@@1@PAIH@Z ; std::stoi
  00402	83 c4 0c	 add	 esp, 12			; 0000000cH
  00405	89 85 bc fe ff
	ff		 mov	 DWORD PTR _BirthMonth1$[ebp], eax

; 53   : 	cout << BirthMonth << ".";

  0040b	68 00 00 00 00	 push	 OFFSET ??_C@_01LFCBOECM@?4@
  00410	8d 85 f8 fe ff
	ff		 lea	 eax, DWORD PTR _BirthMonth$[ebp]
  00416	50		 push	 eax
  00417	8b 0d 00 00 00
	00		 mov	 ecx, DWORD PTR __imp_?cout@std@@3V?$basic_ostream@DU?$char_traits@D@std@@@1@A
  0041d	51		 push	 ecx
  0041e	e8 00 00 00 00	 call	 ??$?6DU?$char_traits@D@std@@V?$allocator@D@1@@std@@YAAAV?$basic_ostream@DU?$char_traits@D@std@@@0@AAV10@ABV?$basic_string@DU?$char_traits@D@std@@V?$allocator@D@2@@0@@Z ; std::operator<<<char,std::char_traits<char>,std::allocator<char> >
  00423	83 c4 08	 add	 esp, 8
  00426	50		 push	 eax
  00427	e8 00 00 00 00	 call	 ??$?6U?$char_traits@D@std@@@std@@YAAAV?$basic_ostream@DU?$char_traits@D@std@@@0@AAV10@PBD@Z ; std::operator<<<std::char_traits<char> >
  0042c	83 c4 08	 add	 esp, 8

; 54   : 	BirthYear = Birth.substr(4, 8);

  0042f	6a 08		 push	 8
  00431	6a 04		 push	 4
  00433	8d 85 28 fc ff
	ff		 lea	 eax, DWORD PTR $T3[ebp]
  00439	50		 push	 eax
  0043a	8d 8d 40 ff ff
	ff		 lea	 ecx, DWORD PTR _Birth$[ebp]
  00440	e8 00 00 00 00	 call	 ?substr@?$basic_string@DU?$char_traits@D@std@@V?$allocator@D@2@@std@@QBE?AV12@II@Z ; std::basic_string<char,std::char_traits<char>,std::allocator<char> >::substr
  00445	89 85 14 fc ff
	ff		 mov	 DWORD PTR tv364[ebp], eax
  0044b	8b 8d 14 fc ff
	ff		 mov	 ecx, DWORD PTR tv364[ebp]
  00451	51		 push	 ecx
  00452	8d 8d d4 fe ff
	ff		 lea	 ecx, DWORD PTR _BirthYear$[ebp]
  00458	e8 00 00 00 00	 call	 ??4?$basic_string@DU?$char_traits@D@std@@V?$allocator@D@2@@std@@QAEAAV01@$$QAV01@@Z ; std::basic_string<char,std::char_traits<char>,std::allocator<char> >::operator=
  0045d	8d 8d 28 fc ff
	ff		 lea	 ecx, DWORD PTR $T3[ebp]
  00463	e8 00 00 00 00	 call	 ??1?$basic_string@DU?$char_traits@D@std@@V?$allocator@D@2@@std@@QAE@XZ ; std::basic_string<char,std::char_traits<char>,std::allocator<char> >::~basic_string<char,std::char_traits<char>,std::allocator<char> >

; 55   : 	BirthYear1 = stoi(BirthYear);

  00468	6a 0a		 push	 10			; 0000000aH
  0046a	6a 00		 push	 0
  0046c	8d 85 d4 fe ff
	ff		 lea	 eax, DWORD PTR _BirthYear$[ebp]
  00472	50		 push	 eax
  00473	e8 00 00 00 00	 call	 ?stoi@std@@YAHABV?$basic_string@DU?$char_traits@D@std@@V?$allocator@D@2@@1@PAIH@Z ; std::stoi
  00478	83 c4 0c	 add	 esp, 12			; 0000000cH
  0047b	89 85 b0 fe ff
	ff		 mov	 DWORD PTR _BirthYear1$[ebp], eax

; 56   : 	cout << BirthYear << endl;

  00481	8b f4		 mov	 esi, esp
  00483	68 00 00 00 00	 push	 OFFSET ??$endl@DU?$char_traits@D@std@@@std@@YAAAV?$basic_ostream@DU?$char_traits@D@std@@@0@AAV10@@Z ; std::endl<char,std::char_traits<char> >
  00488	8d 85 d4 fe ff
	ff		 lea	 eax, DWORD PTR _BirthYear$[ebp]
  0048e	50		 push	 eax
  0048f	8b 0d 00 00 00
	00		 mov	 ecx, DWORD PTR __imp_?cout@std@@3V?$basic_ostream@DU?$char_traits@D@std@@@1@A
  00495	51		 push	 ecx
  00496	e8 00 00 00 00	 call	 ??$?6DU?$char_traits@D@std@@V?$allocator@D@1@@std@@YAAAV?$basic_ostream@DU?$char_traits@D@std@@@0@AAV10@ABV?$basic_string@DU?$char_traits@D@std@@V?$allocator@D@2@@0@@Z ; std::operator<<<char,std::char_traits<char>,std::allocator<char> >
  0049b	83 c4 08	 add	 esp, 8
  0049e	8b c8		 mov	 ecx, eax
  004a0	ff 15 00 00 00
	00		 call	 DWORD PTR __imp_??6?$basic_ostream@DU?$char_traits@D@std@@@std@@QAEAAV01@P6AAAV01@AAV01@@Z@Z
  004a6	3b f4		 cmp	 esi, esp
  004a8	e8 00 00 00 00	 call	 __RTC_CheckEsp

; 57   : 
; 58   : 	if (year1 % 4 == 0)

  004ad	a1 00 00 00 00	 mov	 eax, DWORD PTR ?year1@@3HA ; year1
  004b2	25 03 00 00 80	 and	 eax, -2147483645	; 80000003H
  004b7	79 05		 jns	 SHORT $LN49@main
  004b9	48		 dec	 eax
  004ba	83 c8 fc	 or	 eax, -4			; fffffffcH
  004bd	40		 inc	 eax
$LN49@main:
  004be	85 c0		 test	 eax, eax
  004c0	75 3d		 jne	 SHORT $LN4@main
$LN2@main:

; 59   : 	{
; 60   : 		while (i != BirthMonth1 - 1)

  004c2	8b 85 bc fe ff
	ff		 mov	 eax, DWORD PTR _BirthMonth1$[ebp]
  004c8	83 e8 01	 sub	 eax, 1
  004cb	39 85 80 fe ff
	ff		 cmp	 DWORD PTR _i$[ebp], eax
  004d1	74 2a		 je	 SHORT $LN3@main

; 61   : 		{
; 62   : 			N += leapmonths[i];

  004d3	8b 85 80 fe ff
	ff		 mov	 eax, DWORD PTR _i$[ebp]
  004d9	8b 8d 8c fe ff
	ff		 mov	 ecx, DWORD PTR _N$[ebp]
  004df	03 0c 85 00 00
	00 00		 add	 ecx, DWORD PTR ?leapmonths@@3PAHA[eax*4]
  004e6	89 8d 8c fe ff
	ff		 mov	 DWORD PTR _N$[ebp], ecx

; 63   : 			i++;

  004ec	8b 85 80 fe ff
	ff		 mov	 eax, DWORD PTR _i$[ebp]
  004f2	83 c0 01	 add	 eax, 1
  004f5	89 85 80 fe ff
	ff		 mov	 DWORD PTR _i$[ebp], eax

; 64   : 		}

  004fb	eb c5		 jmp	 SHORT $LN2@main
$LN3@main:

; 65   : 	}

  004fd	eb 3b		 jmp	 SHORT $LN10@main
$LN4@main:

; 66   : 	else
; 67   : 	{
; 68   : 		while (i != BirthMonth1 - 1)

  004ff	8b 85 bc fe ff
	ff		 mov	 eax, DWORD PTR _BirthMonth1$[ebp]
  00505	83 e8 01	 sub	 eax, 1
  00508	39 85 80 fe ff
	ff		 cmp	 DWORD PTR _i$[ebp], eax
  0050e	74 2a		 je	 SHORT $LN10@main

; 69   : 		{
; 70   : 			N += months[i];

  00510	8b 85 80 fe ff
	ff		 mov	 eax, DWORD PTR _i$[ebp]
  00516	8b 8d 8c fe ff
	ff		 mov	 ecx, DWORD PTR _N$[ebp]
  0051c	03 0c 85 00 00
	00 00		 add	 ecx, DWORD PTR ?months@@3PAHA[eax*4]
  00523	89 8d 8c fe ff
	ff		 mov	 DWORD PTR _N$[ebp], ecx

; 71   : 			i++;

  00529	8b 85 80 fe ff
	ff		 mov	 eax, DWORD PTR _i$[ebp]
  0052f	83 c0 01	 add	 eax, 1
  00532	89 85 80 fe ff
	ff		 mov	 DWORD PTR _i$[ebp], eax

; 72   : 		}

  00538	eb c5		 jmp	 SHORT $LN4@main
$LN10@main:

; 73   : 	}
; 74   : 	counting1 = N + BirthDay1;

  0053a	8b 85 8c fe ff
	ff		 mov	 eax, DWORD PTR _N$[ebp]
  00540	03 85 c8 fe ff
	ff		 add	 eax, DWORD PTR _BirthDay1$[ebp]
  00546	89 85 a4 fe ff
	ff		 mov	 DWORD PTR _counting1$[ebp], eax

; 75   : 	cout << "\tРџРѕСЂСЏРґРєРѕРІС‹Р№ РЅРѕРІРµСЂ РґРЅСЏ РІ РіРѕРґСѓ : " << counting1 << endl;

  0054c	8b f4		 mov	 esi, esp
  0054e	68 00 00 00 00	 push	 OFFSET ??$endl@DU?$char_traits@D@std@@@std@@YAAAV?$basic_ostream@DU?$char_traits@D@std@@@0@AAV10@@Z ; std::endl<char,std::char_traits<char> >
  00553	8b fc		 mov	 edi, esp
  00555	8b 85 a4 fe ff
	ff		 mov	 eax, DWORD PTR _counting1$[ebp]
  0055b	50		 push	 eax
  0055c	68 00 00 00 00	 push	 OFFSET ??_C@_0CA@BCFAJOKN@?7?O?n?p?$PP?d?j?n?b?$PL?i?5?m?n?b?e?p?5?d?m?$PP?5?b?5?c?n?d?s?5?3?5@
  00561	8b 0d 00 00 00
	00		 mov	 ecx, DWORD PTR __imp_?cout@std@@3V?$basic_ostream@DU?$char_traits@D@std@@@1@A
  00567	51		 push	 ecx
  00568	e8 00 00 00 00	 call	 ??$?6U?$char_traits@D@std@@@std@@YAAAV?$basic_ostream@DU?$char_traits@D@std@@@0@AAV10@PBD@Z ; std::operator<<<std::char_traits<char> >
  0056d	83 c4 08	 add	 esp, 8
  00570	8b c8		 mov	 ecx, eax
  00572	ff 15 00 00 00
	00		 call	 DWORD PTR __imp_??6?$basic_ostream@DU?$char_traits@D@std@@@std@@QAEAAV01@H@Z
  00578	3b fc		 cmp	 edi, esp
  0057a	e8 00 00 00 00	 call	 __RTC_CheckEsp
  0057f	8b c8		 mov	 ecx, eax
  00581	ff 15 00 00 00
	00		 call	 DWORD PTR __imp_??6?$basic_ostream@DU?$char_traits@D@std@@@std@@QAEAAV01@P6AAAV01@AAV01@@Z@Z
  00587	3b f4		 cmp	 esi, esp
  00589	e8 00 00 00 00	 call	 __RTC_CheckEsp

; 76   : 	
; 77   : 	if (year1 % 4 == 0)

  0058e	a1 00 00 00 00	 mov	 eax, DWORD PTR ?year1@@3HA ; year1
  00593	25 03 00 00 80	 and	 eax, -2147483645	; 80000003H
  00598	79 05		 jns	 SHORT $LN50@main
  0059a	48		 dec	 eax
  0059b	83 c8 fc	 or	 eax, -4			; fffffffcH
  0059e	40		 inc	 eax
$LN50@main:
  0059f	85 c0		 test	 eax, eax
  005a1	0f 85 42 01 00
	00		 jne	 $LN11@main

; 78   : 	{
; 79   : 		if (BirthMonth1 > month1)

  005a7	8b 85 bc fe ff
	ff		 mov	 eax, DWORD PTR _BirthMonth1$[ebp]
  005ad	3b 05 00 00 00
	00		 cmp	 eax, DWORD PTR ?month1@@3HA ; month1
  005b3	7e 59		 jle	 SHORT $LN13@main

; 80   : 		{
; 81   : 			counting2 = counting1 - counting;

  005b5	8b 85 a4 fe ff
	ff		 mov	 eax, DWORD PTR _counting1$[ebp]
  005bb	2b 05 00 00 00
	00		 sub	 eax, DWORD PTR ?counting@@3HA ; counting
  005c1	89 85 98 fe ff
	ff		 mov	 DWORD PTR _counting2$[ebp], eax

; 82   : 			cout << "Р”РЅРµР№ РґРѕ РІР°С€РµРіРѕ РґРЅСЏ СЂРѕР¶РґРµРЅРёСЏ РѕСЃС‚Р°Р»РѕСЃСЊ: " << counting2 << endl;

  005c7	8b f4		 mov	 esi, esp
  005c9	68 00 00 00 00	 push	 OFFSET ??$endl@DU?$char_traits@D@std@@@std@@YAAAV?$basic_ostream@DU?$char_traits@D@std@@@0@AAV10@@Z ; std::endl<char,std::char_traits<char> >
  005ce	8b fc		 mov	 edi, esp
  005d0	8b 85 98 fe ff
	ff		 mov	 eax, DWORD PTR _counting2$[ebp]
  005d6	50		 push	 eax
  005d7	68 00 00 00 00	 push	 OFFSET ??_C@_0CH@KHPLGJFP@?D?m?e?i?5?d?n?5?b?$OA?x?e?c?n?5?d?m?$PP?5?p?n?f?d?e?m?h?$PP?5?n?q?r@
  005dc	8b 0d 00 00 00
	00		 mov	 ecx, DWORD PTR __imp_?cout@std@@3V?$basic_ostream@DU?$char_traits@D@std@@@1@A
  005e2	51		 push	 ecx
  005e3	e8 00 00 00 00	 call	 ??$?6U?$char_traits@D@std@@@std@@YAAAV?$basic_ostream@DU?$char_traits@D@std@@@0@AAV10@PBD@Z ; std::operator<<<std::char_traits<char> >
  005e8	83 c4 08	 add	 esp, 8
  005eb	8b c8		 mov	 ecx, eax
  005ed	ff 15 00 00 00
	00		 call	 DWORD PTR __imp_??6?$basic_ostream@DU?$char_traits@D@std@@@std@@QAEAAV01@H@Z
  005f3	3b fc		 cmp	 edi, esp
  005f5	e8 00 00 00 00	 call	 __RTC_CheckEsp
  005fa	8b c8		 mov	 ecx, eax
  005fc	ff 15 00 00 00
	00		 call	 DWORD PTR __imp_??6?$basic_ostream@DU?$char_traits@D@std@@@std@@QAEAAV01@P6AAAV01@AAV01@@Z@Z
  00602	3b f4		 cmp	 esi, esp
  00604	e8 00 00 00 00	 call	 __RTC_CheckEsp

; 83   : 		}

  00609	e9 d6 00 00 00	 jmp	 $LN14@main
$LN13@main:

; 84   : 		else if (BirthMonth1 < month1)

  0060e	8b 85 bc fe ff
	ff		 mov	 eax, DWORD PTR _BirthMonth1$[ebp]
  00614	3b 05 00 00 00
	00		 cmp	 eax, DWORD PTR ?month1@@3HA ; month1
  0061a	7d 5b		 jge	 SHORT $LN15@main

; 85   : 		{
; 86   : 			counting2 = 366 + counting1 - counting;

  0061c	8b 85 a4 fe ff
	ff		 mov	 eax, DWORD PTR _counting1$[ebp]
  00622	05 6e 01 00 00	 add	 eax, 366		; 0000016eH
  00627	2b 05 00 00 00
	00		 sub	 eax, DWORD PTR ?counting@@3HA ; counting
  0062d	89 85 98 fe ff
	ff		 mov	 DWORD PTR _counting2$[ebp], eax

; 87   : 			cout << "Р”РЅРµР№ РґРѕ РІР°С€РµРіРѕ РґРЅСЏ СЂРѕР¶РґРµРЅРёСЏ РѕСЃС‚Р°Р»РѕСЃСЊ: " << counting2 << endl;

  00633	8b f4		 mov	 esi, esp
  00635	68 00 00 00 00	 push	 OFFSET ??$endl@DU?$char_traits@D@std@@@std@@YAAAV?$basic_ostream@DU?$char_traits@D@std@@@0@AAV10@@Z ; std::endl<char,std::char_traits<char> >
  0063a	8b fc		 mov	 edi, esp
  0063c	8b 85 98 fe ff
	ff		 mov	 eax, DWORD PTR _counting2$[ebp]
  00642	50		 push	 eax
  00643	68 00 00 00 00	 push	 OFFSET ??_C@_0CH@KHPLGJFP@?D?m?e?i?5?d?n?5?b?$OA?x?e?c?n?5?d?m?$PP?5?p?n?f?d?e?m?h?$PP?5?n?q?r@
  00648	8b 0d 00 00 00
	00		 mov	 ecx, DWORD PTR __imp_?cout@std@@3V?$basic_ostream@DU?$char_traits@D@std@@@1@A
  0064e	51		 push	 ecx
  0064f	e8 00 00 00 00	 call	 ??$?6U?$char_traits@D@std@@@std@@YAAAV?$basic_ostream@DU?$char_traits@D@std@@@0@AAV10@PBD@Z ; std::operator<<<std::char_traits<char> >
  00654	83 c4 08	 add	 esp, 8
  00657	8b c8		 mov	 ecx, eax
  00659	ff 15 00 00 00
	00		 call	 DWORD PTR __imp_??6?$basic_ostream@DU?$char_traits@D@std@@@std@@QAEAAV01@H@Z
  0065f	3b fc		 cmp	 edi, esp
  00661	e8 00 00 00 00	 call	 __RTC_CheckEsp
  00666	8b c8		 mov	 ecx, eax
  00668	ff 15 00 00 00
	00		 call	 DWORD PTR __imp_??6?$basic_ostream@DU?$char_traits@D@std@@@std@@QAEAAV01@P6AAAV01@AAV01@@Z@Z
  0066e	3b f4		 cmp	 esi, esp
  00670	e8 00 00 00 00	 call	 __RTC_CheckEsp

; 88   : 		}

  00675	eb 6d		 jmp	 SHORT $LN14@main
$LN15@main:

; 89   : 		else if (BirthMonth1 = month1)

  00677	a1 00 00 00 00	 mov	 eax, DWORD PTR ?month1@@3HA ; month1
  0067c	89 85 bc fe ff
	ff		 mov	 DWORD PTR _BirthMonth1$[ebp], eax
  00682	83 bd bc fe ff
	ff 00		 cmp	 DWORD PTR _BirthMonth1$[ebp], 0
  00689	74 59		 je	 SHORT $LN14@main

; 90   : 		{
; 91   : 			counting2 = 366 + counting1 - counting;

  0068b	8b 85 a4 fe ff
	ff		 mov	 eax, DWORD PTR _counting1$[ebp]
  00691	05 6e 01 00 00	 add	 eax, 366		; 0000016eH
  00696	2b 05 00 00 00
	00		 sub	 eax, DWORD PTR ?counting@@3HA ; counting
  0069c	89 85 98 fe ff
	ff		 mov	 DWORD PTR _counting2$[ebp], eax

; 92   : 			cout << "Р”РЅРµР№ РґРѕ РІР°С€РµРіРѕ РґРЅСЏ СЂРѕР¶РґРµРЅРёСЏ РѕСЃС‚Р°Р»РѕСЃСЊ: " << counting2 << endl;

  006a2	8b f4		 mov	 esi, esp
  006a4	68 00 00 00 00	 push	 OFFSET ??$endl@DU?$char_traits@D@std@@@std@@YAAAV?$basic_ostream@DU?$char_traits@D@std@@@0@AAV10@@Z ; std::endl<char,std::char_traits<char> >
  006a9	8b fc		 mov	 edi, esp
  006ab	8b 85 98 fe ff
	ff		 mov	 eax, DWORD PTR _counting2$[ebp]
  006b1	50		 push	 eax
  006b2	68 00 00 00 00	 push	 OFFSET ??_C@_0CH@KHPLGJFP@?D?m?e?i?5?d?n?5?b?$OA?x?e?c?n?5?d?m?$PP?5?p?n?f?d?e?m?h?$PP?5?n?q?r@
  006b7	8b 0d 00 00 00
	00		 mov	 ecx, DWORD PTR __imp_?cout@std@@3V?$basic_ostream@DU?$char_traits@D@std@@@1@A
  006bd	51		 push	 ecx
  006be	e8 00 00 00 00	 call	 ??$?6U?$char_traits@D@std@@@std@@YAAAV?$basic_ostream@DU?$char_traits@D@std@@@0@AAV10@PBD@Z ; std::operator<<<std::char_traits<char> >
  006c3	83 c4 08	 add	 esp, 8
  006c6	8b c8		 mov	 ecx, eax
  006c8	ff 15 00 00 00
	00		 call	 DWORD PTR __imp_??6?$basic_ostream@DU?$char_traits@D@std@@@std@@QAEAAV01@H@Z
  006ce	3b fc		 cmp	 edi, esp
  006d0	e8 00 00 00 00	 call	 __RTC_CheckEsp
  006d5	8b c8		 mov	 ecx, eax
  006d7	ff 15 00 00 00
	00		 call	 DWORD PTR __imp_??6?$basic_ostream@DU?$char_traits@D@std@@@std@@QAEAAV01@P6AAAV01@AAV01@@Z@Z
  006dd	3b f4		 cmp	 esi, esp
  006df	e8 00 00 00 00	 call	 __RTC_CheckEsp
$LN14@main:

; 93   : 		}
; 94   : 	}

  006e4	e9 3d 01 00 00	 jmp	 $LN12@main
$LN11@main:

; 95   : 	else
; 96   : 	{
; 97   : 		if (BirthMonth1 > month1)

  006e9	8b 85 bc fe ff
	ff		 mov	 eax, DWORD PTR _BirthMonth1$[ebp]
  006ef	3b 05 00 00 00
	00		 cmp	 eax, DWORD PTR ?month1@@3HA ; month1
  006f5	7e 59		 jle	 SHORT $LN18@main

; 98   : 		{
; 99   : 			counting2 = counting1 - counting;

  006f7	8b 85 a4 fe ff
	ff		 mov	 eax, DWORD PTR _counting1$[ebp]
  006fd	2b 05 00 00 00
	00		 sub	 eax, DWORD PTR ?counting@@3HA ; counting
  00703	89 85 98 fe ff
	ff		 mov	 DWORD PTR _counting2$[ebp], eax

; 100  : 			cout << "Р”РЅРµР№ РґРѕ РІР°С€РµРіРѕ РґРЅСЏ СЂРѕР¶РґРµРЅРёСЏ РѕСЃС‚Р°Р»РѕСЃСЊ: " << counting2 << endl;

  00709	8b f4		 mov	 esi, esp
  0070b	68 00 00 00 00	 push	 OFFSET ??$endl@DU?$char_traits@D@std@@@std@@YAAAV?$basic_ostream@DU?$char_traits@D@std@@@0@AAV10@@Z ; std::endl<char,std::char_traits<char> >
  00710	8b fc		 mov	 edi, esp
  00712	8b 85 98 fe ff
	ff		 mov	 eax, DWORD PTR _counting2$[ebp]
  00718	50		 push	 eax
  00719	68 00 00 00 00	 push	 OFFSET ??_C@_0CH@KHPLGJFP@?D?m?e?i?5?d?n?5?b?$OA?x?e?c?n?5?d?m?$PP?5?p?n?f?d?e?m?h?$PP?5?n?q?r@
  0071e	8b 0d 00 00 00
	00		 mov	 ecx, DWORD PTR __imp_?cout@std@@3V?$basic_ostream@DU?$char_traits@D@std@@@1@A
  00724	51		 push	 ecx
  00725	e8 00 00 00 00	 call	 ??$?6U?$char_traits@D@std@@@std@@YAAAV?$basic_ostream@DU?$char_traits@D@std@@@0@AAV10@PBD@Z ; std::operator<<<std::char_traits<char> >
  0072a	83 c4 08	 add	 esp, 8
  0072d	8b c8		 mov	 ecx, eax
  0072f	ff 15 00 00 00
	00		 call	 DWORD PTR __imp_??6?$basic_ostream@DU?$char_traits@D@std@@@std@@QAEAAV01@H@Z
  00735	3b fc		 cmp	 edi, esp
  00737	e8 00 00 00 00	 call	 __RTC_CheckEsp
  0073c	8b c8		 mov	 ecx, eax
  0073e	ff 15 00 00 00
	00		 call	 DWORD PTR __imp_??6?$basic_ostream@DU?$char_traits@D@std@@@std@@QAEAAV01@P6AAAV01@AAV01@@Z@Z
  00744	3b f4		 cmp	 esi, esp
  00746	e8 00 00 00 00	 call	 __RTC_CheckEsp

; 101  : 		}

  0074b	e9 d6 00 00 00	 jmp	 $LN12@main
$LN18@main:

; 102  : 		else if (BirthMonth1 < month1)

  00750	8b 85 bc fe ff
	ff		 mov	 eax, DWORD PTR _BirthMonth1$[ebp]
  00756	3b 05 00 00 00
	00		 cmp	 eax, DWORD PTR ?month1@@3HA ; month1
  0075c	7d 5b		 jge	 SHORT $LN20@main

; 103  : 		{
; 104  : 			counting2 = 365 + counting1 - counting;

  0075e	8b 85 a4 fe ff
	ff		 mov	 eax, DWORD PTR _counting1$[ebp]
  00764	05 6d 01 00 00	 add	 eax, 365		; 0000016dH
  00769	2b 05 00 00 00
	00		 sub	 eax, DWORD PTR ?counting@@3HA ; counting
  0076f	89 85 98 fe ff
	ff		 mov	 DWORD PTR _counting2$[ebp], eax

; 105  : 			cout << "Р”РЅРµР№ РґРѕ РІР°С€РµРіРѕ РґРЅСЏ СЂРѕР¶РґРµРЅРёСЏ РѕСЃС‚Р°Р»РѕСЃСЊ: " << counting2 << endl;

  00775	8b f4		 mov	 esi, esp
  00777	68 00 00 00 00	 push	 OFFSET ??$endl@DU?$char_traits@D@std@@@std@@YAAAV?$basic_ostream@DU?$char_traits@D@std@@@0@AAV10@@Z ; std::endl<char,std::char_traits<char> >
  0077c	8b fc		 mov	 edi, esp
  0077e	8b 85 98 fe ff
	ff		 mov	 eax, DWORD PTR _counting2$[ebp]
  00784	50		 push	 eax
  00785	68 00 00 00 00	 push	 OFFSET ??_C@_0CH@KHPLGJFP@?D?m?e?i?5?d?n?5?b?$OA?x?e?c?n?5?d?m?$PP?5?p?n?f?d?e?m?h?$PP?5?n?q?r@
  0078a	8b 0d 00 00 00
	00		 mov	 ecx, DWORD PTR __imp_?cout@std@@3V?$basic_ostream@DU?$char_traits@D@std@@@1@A
  00790	51		 push	 ecx
  00791	e8 00 00 00 00	 call	 ??$?6U?$char_traits@D@std@@@std@@YAAAV?$basic_ostream@DU?$char_traits@D@std@@@0@AAV10@PBD@Z ; std::operator<<<std::char_traits<char> >
  00796	83 c4 08	 add	 esp, 8
  00799	8b c8		 mov	 ecx, eax
  0079b	ff 15 00 00 00
	00		 call	 DWORD PTR __imp_??6?$basic_ostream@DU?$char_traits@D@std@@@std@@QAEAAV01@H@Z
  007a1	3b fc		 cmp	 edi, esp
  007a3	e8 00 00 00 00	 call	 __RTC_CheckEsp
  007a8	8b c8		 mov	 ecx, eax
  007aa	ff 15 00 00 00
	00		 call	 DWORD PTR __imp_??6?$basic_ostream@DU?$char_traits@D@std@@@std@@QAEAAV01@P6AAAV01@AAV01@@Z@Z
  007b0	3b f4		 cmp	 esi, esp
  007b2	e8 00 00 00 00	 call	 __RTC_CheckEsp

; 106  : 		}

  007b7	eb 6d		 jmp	 SHORT $LN12@main
$LN20@main:

; 107  : 		else if(BirthMonth1 = month1)

  007b9	a1 00 00 00 00	 mov	 eax, DWORD PTR ?month1@@3HA ; month1
  007be	89 85 bc fe ff
	ff		 mov	 DWORD PTR _BirthMonth1$[ebp], eax
  007c4	83 bd bc fe ff
	ff 00		 cmp	 DWORD PTR _BirthMonth1$[ebp], 0
  007cb	74 59		 je	 SHORT $LN12@main

; 108  : 		{
; 109  : 			counting2 = 365 + counting1 - counting;

  007cd	8b 85 a4 fe ff
	ff		 mov	 eax, DWORD PTR _counting1$[ebp]
  007d3	05 6d 01 00 00	 add	 eax, 365		; 0000016dH
  007d8	2b 05 00 00 00
	00		 sub	 eax, DWORD PTR ?counting@@3HA ; counting
  007de	89 85 98 fe ff
	ff		 mov	 DWORD PTR _counting2$[ebp], eax

; 110  : 			cout << "Р”РЅРµР№ РґРѕ РІР°С€РµРіРѕ РґРЅСЏ СЂРѕР¶РґРµРЅРёСЏ РѕСЃС‚Р°Р»РѕСЃСЊ: " << counting2 << endl;

  007e4	8b f4		 mov	 esi, esp
  007e6	68 00 00 00 00	 push	 OFFSET ??$endl@DU?$char_traits@D@std@@@std@@YAAAV?$basic_ostream@DU?$char_traits@D@std@@@0@AAV10@@Z ; std::endl<char,std::char_traits<char> >
  007eb	8b fc		 mov	 edi, esp
  007ed	8b 85 98 fe ff
	ff		 mov	 eax, DWORD PTR _counting2$[ebp]
  007f3	50		 push	 eax
  007f4	68 00 00 00 00	 push	 OFFSET ??_C@_0CH@KHPLGJFP@?D?m?e?i?5?d?n?5?b?$OA?x?e?c?n?5?d?m?$PP?5?p?n?f?d?e?m?h?$PP?5?n?q?r@
  007f9	8b 0d 00 00 00
	00		 mov	 ecx, DWORD PTR __imp_?cout@std@@3V?$basic_ostream@DU?$char_traits@D@std@@@1@A
  007ff	51		 push	 ecx
  00800	e8 00 00 00 00	 call	 ??$?6U?$char_traits@D@std@@@std@@YAAAV?$basic_ostream@DU?$char_traits@D@std@@@0@AAV10@PBD@Z ; std::operator<<<std::char_traits<char> >
  00805	83 c4 08	 add	 esp, 8
  00808	8b c8		 mov	 ecx, eax
  0080a	ff 15 00 00 00
	00		 call	 DWORD PTR __imp_??6?$basic_ostream@DU?$char_traits@D@std@@@std@@QAEAAV01@H@Z
  00810	3b fc		 cmp	 edi, esp
  00812	e8 00 00 00 00	 call	 __RTC_CheckEsp
  00817	8b c8		 mov	 ecx, eax
  00819	ff 15 00 00 00
	00		 call	 DWORD PTR __imp_??6?$basic_ostream@DU?$char_traits@D@std@@@std@@QAEAAV01@P6AAAV01@AAV01@@Z@Z
  0081f	3b f4		 cmp	 esi, esp
  00821	e8 00 00 00 00	 call	 __RTC_CheckEsp
$LN12@main:

; 111  : 		}
; 112  : 	}
; 113  : 	system("pause");

  00826	8b f4		 mov	 esi, esp
  00828	68 00 00 00 00	 push	 OFFSET ??_C@_05PDJBBECF@pause@
  0082d	ff 15 00 00 00
	00		 call	 DWORD PTR __imp__system
  00833	83 c4 04	 add	 esp, 4
  00836	3b f4		 cmp	 esi, esp
  00838	e8 00 00 00 00	 call	 __RTC_CheckEsp

; 114  : 	return 0;

  0083d	c7 85 1c fc ff
	ff 00 00 00 00	 mov	 DWORD PTR $T2[ebp], 0
  00847	c6 45 fc 06	 mov	 BYTE PTR __$EHRec$[ebp+8], 6
  0084b	8d 8d d4 fe ff
	ff		 lea	 ecx, DWORD PTR _BirthYear$[ebp]
  00851	e8 00 00 00 00	 call	 ??1?$basic_string@DU?$char_traits@D@std@@V?$allocator@D@2@@std@@QAE@XZ ; std::basic_string<char,std::char_traits<char>,std::allocator<char> >::~basic_string<char,std::char_traits<char>,std::allocator<char> >
  00856	c6 45 fc 05	 mov	 BYTE PTR __$EHRec$[ebp+8], 5
  0085a	8d 8d f8 fe ff
	ff		 lea	 ecx, DWORD PTR _BirthMonth$[ebp]
  00860	e8 00 00 00 00	 call	 ??1?$basic_string@DU?$char_traits@D@std@@V?$allocator@D@2@@std@@QAE@XZ ; std::basic_string<char,std::char_traits<char>,std::allocator<char> >::~basic_string<char,std::char_traits<char>,std::allocator<char> >
  00865	c6 45 fc 04	 mov	 BYTE PTR __$EHRec$[ebp+8], 4
  00869	8d 8d 1c ff ff
	ff		 lea	 ecx, DWORD PTR _BirthDay$[ebp]
  0086f	e8 00 00 00 00	 call	 ??1?$basic_string@DU?$char_traits@D@std@@V?$allocator@D@2@@std@@QAE@XZ ; std::basic_string<char,std::char_traits<char>,std::allocator<char> >::~basic_string<char,std::char_traits<char>,std::allocator<char> >
  00874	c6 45 fc 03	 mov	 BYTE PTR __$EHRec$[ebp+8], 3
  00878	8d 8d 40 ff ff
	ff		 lea	 ecx, DWORD PTR _Birth$[ebp]
  0087e	e8 00 00 00 00	 call	 ??1?$basic_string@DU?$char_traits@D@std@@V?$allocator@D@2@@std@@QAE@XZ ; std::basic_string<char,std::char_traits<char>,std::allocator<char> >::~basic_string<char,std::char_traits<char>,std::allocator<char> >
  00883	c6 45 fc 02	 mov	 BYTE PTR __$EHRec$[ebp+8], 2
  00887	8d 8d 64 ff ff
	ff		 lea	 ecx, DWORD PTR _year$[ebp]
  0088d	e8 00 00 00 00	 call	 ??1?$basic_string@DU?$char_traits@D@std@@V?$allocator@D@2@@std@@QAE@XZ ; std::basic_string<char,std::char_traits<char>,std::allocator<char> >::~basic_string<char,std::char_traits<char>,std::allocator<char> >
  00892	c6 45 fc 01	 mov	 BYTE PTR __$EHRec$[ebp+8], 1
  00896	8d 4d 88	 lea	 ecx, DWORD PTR _month$[ebp]
  00899	e8 00 00 00 00	 call	 ??1?$basic_string@DU?$char_traits@D@std@@V?$allocator@D@2@@std@@QAE@XZ ; std::basic_string<char,std::char_traits<char>,std::allocator<char> >::~basic_string<char,std::char_traits<char>,std::allocator<char> >
  0089e	c6 45 fc 00	 mov	 BYTE PTR __$EHRec$[ebp+8], 0
  008a2	8d 4d ac	 lea	 ecx, DWORD PTR _day$[ebp]
  008a5	e8 00 00 00 00	 call	 ??1?$basic_string@DU?$char_traits@D@std@@V?$allocator@D@2@@std@@QAE@XZ ; std::basic_string<char,std::char_traits<char>,std::allocator<char> >::~basic_string<char,std::char_traits<char>,std::allocator<char> >
  008aa	c7 45 fc ff ff
	ff ff		 mov	 DWORD PTR __$EHRec$[ebp+8], -1
  008b1	8d 4d d0	 lea	 ecx, DWORD PTR _date$[ebp]
  008b4	e8 00 00 00 00	 call	 ??1?$basic_string@DU?$char_traits@D@std@@V?$allocator@D@2@@std@@QAE@XZ ; std::basic_string<char,std::char_traits<char>,std::allocator<char> >::~basic_string<char,std::char_traits<char>,std::allocator<char> >
  008b9	8b 85 1c fc ff
	ff		 mov	 eax, DWORD PTR $T2[ebp]

; 115  : }

  008bf	52		 push	 edx
  008c0	8b cd		 mov	 ecx, ebp
  008c2	50		 push	 eax
  008c3	8d 15 00 00 00
	00		 lea	 edx, DWORD PTR $LN48@main
  008c9	e8 00 00 00 00	 call	 @_RTC_CheckStackVars@8
  008ce	58		 pop	 eax
  008cf	5a		 pop	 edx
  008d0	8b 4d f4	 mov	 ecx, DWORD PTR __$EHRec$[ebp]
  008d3	64 89 0d 00 00
	00 00		 mov	 DWORD PTR fs:0, ecx
  008da	59		 pop	 ecx
  008db	5f		 pop	 edi
  008dc	5e		 pop	 esi
  008dd	5b		 pop	 ebx
  008de	8b 4d f0	 mov	 ecx, DWORD PTR __$ArrayPad$[ebp]
  008e1	33 cd		 xor	 ecx, ebp
  008e3	e8 00 00 00 00	 call	 @__security_check_cookie@4
  008e8	81 c4 ec 03 00
	00		 add	 esp, 1004		; 000003ecH
  008ee	3b ec		 cmp	 ebp, esp
  008f0	e8 00 00 00 00	 call	 __RTC_CheckEsp
  008f5	8b e5		 mov	 esp, ebp
  008f7	5d		 pop	 ebp
  008f8	c3		 ret	 0
  008f9	0f 1f 00	 npad	 3
$LN48@main:
  008fc	08 00 00 00	 DD	 8
  00900	00 00 00 00	 DD	 $LN47@main
$LN47@main:
  00904	d0 ff ff ff	 DD	 -48			; ffffffd0H
  00908	1c 00 00 00	 DD	 28			; 0000001cH
  0090c	00 00 00 00	 DD	 $LN38@main
  00910	ac ff ff ff	 DD	 -84			; ffffffacH
  00914	1c 00 00 00	 DD	 28			; 0000001cH
  00918	00 00 00 00	 DD	 $LN39@main
  0091c	88 ff ff ff	 DD	 -120			; ffffff88H
  00920	1c 00 00 00	 DD	 28			; 0000001cH
  00924	00 00 00 00	 DD	 $LN40@main
  00928	64 ff ff ff	 DD	 -156			; ffffff64H
  0092c	1c 00 00 00	 DD	 28			; 0000001cH
  00930	00 00 00 00	 DD	 $LN41@main
  00934	40 ff ff ff	 DD	 -192			; ffffff40H
  00938	1c 00 00 00	 DD	 28			; 0000001cH
  0093c	00 00 00 00	 DD	 $LN42@main
  00940	1c ff ff ff	 DD	 -228			; ffffff1cH
  00944	1c 00 00 00	 DD	 28			; 0000001cH
  00948	00 00 00 00	 DD	 $LN43@main
  0094c	f8 fe ff ff	 DD	 -264			; fffffef8H
  00950	1c 00 00 00	 DD	 28			; 0000001cH
  00954	00 00 00 00	 DD	 $LN44@main
  00958	d4 fe ff ff	 DD	 -300			; fffffed4H
  0095c	1c 00 00 00	 DD	 28			; 0000001cH
  00960	00 00 00 00	 DD	 $LN45@main
$LN45@main:
  00964	42		 DB	 66			; 00000042H
  00965	69		 DB	 105			; 00000069H
  00966	72		 DB	 114			; 00000072H
  00967	74		 DB	 116			; 00000074H
  00968	68		 DB	 104			; 00000068H
  00969	59		 DB	 89			; 00000059H
  0096a	65		 DB	 101			; 00000065H
  0096b	61		 DB	 97			; 00000061H
  0096c	72		 DB	 114			; 00000072H
  0096d	00		 DB	 0
$LN44@main:
  0096e	42		 DB	 66			; 00000042H
  0096f	69		 DB	 105			; 00000069H
  00970	72		 DB	 114			; 00000072H
  00971	74		 DB	 116			; 00000074H
  00972	68		 DB	 104			; 00000068H
  00973	4d		 DB	 77			; 0000004dH
  00974	6f		 DB	 111			; 0000006fH
  00975	6e		 DB	 110			; 0000006eH
  00976	74		 DB	 116			; 00000074H
  00977	68		 DB	 104			; 00000068H
  00978	00		 DB	 0
$LN43@main:
  00979	42		 DB	 66			; 00000042H
  0097a	69		 DB	 105			; 00000069H
  0097b	72		 DB	 114			; 00000072H
  0097c	74		 DB	 116			; 00000074H
  0097d	68		 DB	 104			; 00000068H
  0097e	44		 DB	 68			; 00000044H
  0097f	61		 DB	 97			; 00000061H
  00980	79		 DB	 121			; 00000079H
  00981	00		 DB	 0
$LN42@main:
  00982	42		 DB	 66			; 00000042H
  00983	69		 DB	 105			; 00000069H
  00984	72		 DB	 114			; 00000072H
  00985	74		 DB	 116			; 00000074H
  00986	68		 DB	 104			; 00000068H
  00987	00		 DB	 0
$LN41@main:
  00988	79		 DB	 121			; 00000079H
  00989	65		 DB	 101			; 00000065H
  0098a	61		 DB	 97			; 00000061H
  0098b	72		 DB	 114			; 00000072H
  0098c	00		 DB	 0
$LN40@main:
  0098d	6d		 DB	 109			; 0000006dH
  0098e	6f		 DB	 111			; 0000006fH
  0098f	6e		 DB	 110			; 0000006eH
  00990	74		 DB	 116			; 00000074H
  00991	68		 DB	 104			; 00000068H
  00992	00		 DB	 0
$LN39@main:
  00993	64		 DB	 100			; 00000064H
  00994	61		 DB	 97			; 00000061H
  00995	79		 DB	 121			; 00000079H
  00996	00		 DB	 0
$LN38@main:
  00997	64		 DB	 100			; 00000064H
  00998	61		 DB	 97			; 00000061H
  00999	74		 DB	 116			; 00000074H
  0099a	65		 DB	 101			; 00000065H
  0099b	00		 DB	 0
_TEXT	ENDS
;	COMDAT text$x
text$x	SEGMENT
__unwindfunclet$_main$1:
  00000	8d 4d d0	 lea	 ecx, DWORD PTR _date$[ebp]
  00003	e9 00 00 00 00	 jmp	 ??1?$basic_string@DU?$char_traits@D@std@@V?$allocator@D@2@@std@@QAE@XZ ; std::basic_string<char,std::char_traits<char>,std::allocator<char> >::~basic_string<char,std::char_traits<char>,std::allocator<char> >
__unwindfunclet$_main$2:
  00008	8d 4d ac	 lea	 ecx, DWORD PTR _day$[ebp]
  0000b	e9 00 00 00 00	 jmp	 ??1?$basic_string@DU?$char_traits@D@std@@V?$allocator@D@2@@std@@QAE@XZ ; std::basic_string<char,std::char_traits<char>,std::allocator<char> >::~basic_string<char,std::char_traits<char>,std::allocator<char> >
__unwindfunclet$_main$3:
  00010	8d 4d 88	 lea	 ecx, DWORD PTR _month$[ebp]
  00013	e9 00 00 00 00	 jmp	 ??1?$basic_string@DU?$char_traits@D@std@@V?$allocator@D@2@@std@@QAE@XZ ; std::basic_string<char,std::char_traits<char>,std::allocator<char> >::~basic_string<char,std::char_traits<char>,std::allocator<char> >
__unwindfunclet$_main$4:
  00018	8d 8d 64 ff ff
	ff		 lea	 ecx, DWORD PTR _year$[ebp]
  0001e	e9 00 00 00 00	 jmp	 ??1?$basic_string@DU?$char_traits@D@std@@V?$allocator@D@2@@std@@QAE@XZ ; std::basic_string<char,std::char_traits<char>,std::allocator<char> >::~basic_string<char,std::char_traits<char>,std::allocator<char> >
__unwindfunclet$_main$5:
  00023	8d 8d 40 ff ff
	ff		 lea	 ecx, DWORD PTR _Birth$[ebp]
  00029	e9 00 00 00 00	 jmp	 ??1?$basic_string@DU?$char_traits@D@std@@V?$allocator@D@2@@std@@QAE@XZ ; std::basic_string<char,std::char_traits<char>,std::allocator<char> >::~basic_string<char,std::char_traits<char>,std::allocator<char> >
__unwindfunclet$_main$6:
  0002e	8d 8d 1c ff ff
	ff		 lea	 ecx, DWORD PTR _BirthDay$[ebp]
  00034	e9 00 00 00 00	 jmp	 ??1?$basic_string@DU?$char_traits@D@std@@V?$allocator@D@2@@std@@QAE@XZ ; std::basic_string<char,std::char_traits<char>,std::allocator<char> >::~basic_string<char,std::char_traits<char>,std::allocator<char> >
__unwindfunclet$_main$7:
  00039	8d 8d f8 fe ff
	ff		 lea	 ecx, DWORD PTR _BirthMonth$[ebp]
  0003f	e9 00 00 00 00	 jmp	 ??1?$basic_string@DU?$char_traits@D@std@@V?$allocator@D@2@@std@@QAE@XZ ; std::basic_string<char,std::char_traits<char>,std::allocator<char> >::~basic_string<char,std::char_traits<char>,std::allocator<char> >
__unwindfunclet$_main$8:
  00044	8d 8d d4 fe ff
	ff		 lea	 ecx, DWORD PTR _BirthYear$[ebp]
  0004a	e9 00 00 00 00	 jmp	 ??1?$basic_string@DU?$char_traits@D@std@@V?$allocator@D@2@@std@@QAE@XZ ; std::basic_string<char,std::char_traits<char>,std::allocator<char> >::~basic_string<char,std::char_traits<char>,std::allocator<char> >
  0004f	cc		 int	 3
  00050	cc		 int	 3
  00051	cc		 int	 3
  00052	cc		 int	 3
  00053	cc		 int	 3
__ehhandler$_main:
  00054	90		 npad	 1
  00055	90		 npad	 1
  00056	8b 54 24 08	 mov	 edx, DWORD PTR [esp+8]
  0005a	8d 42 0c	 lea	 eax, DWORD PTR [edx+12]
  0005d	8b 8a 10 fc ff
	ff		 mov	 ecx, DWORD PTR [edx-1008]
  00063	33 c8		 xor	 ecx, eax
  00065	e8 00 00 00 00	 call	 @__security_check_cookie@4
  0006a	8b 4a fc	 mov	 ecx, DWORD PTR [edx-4]
  0006d	33 c8		 xor	 ecx, eax
  0006f	e8 00 00 00 00	 call	 @__security_check_cookie@4
  00074	b8 00 00 00 00	 mov	 eax, OFFSET __ehfuncinfo$_main
  00079	e9 00 00 00 00	 jmp	 ___CxxFrameHandler3
text$x	ENDS
_main	ENDP
; Function compile flags: /Odtp /RTCsu /ZI
; File C:\Program Files (x86)\Microsoft Visual Studio\2019\Community\VC\Tools\MSVC\14.29.30133\include\type_traits
;	COMDAT ??$forward@ABV?$allocator@D@std@@@std@@YAABV?$allocator@D@0@ABV10@@Z
_TEXT	SEGMENT
__Arg$ = 8						; size = 4
??$forward@ABV?$allocator@D@std@@@std@@YAABV?$allocator@D@0@ABV10@@Z PROC ; std::forward<std::allocator<char> const &>, COMDAT

; 1385 :     remove_reference_t<_Ty>& _Arg) noexcept { // forward an lvalue as either an lvalue or an rvalue

  00000	55		 push	 ebp
  00001	8b ec		 mov	 ebp, esp
  00003	81 ec c0 00 00
	00		 sub	 esp, 192		; 000000c0H
  00009	53		 push	 ebx
  0000a	56		 push	 esi
  0000b	57		 push	 edi
  0000c	8b fd		 mov	 edi, ebp
  0000e	33 c9		 xor	 ecx, ecx
  00010	b8 cc cc cc cc	 mov	 eax, -858993460		; ccccccccH
  00015	f3 ab		 rep stosd
  00017	b9 00 00 00 00	 mov	 ecx, OFFSET __589FA321_type_traits
  0001c	e8 00 00 00 00	 call	 @__CheckForDebuggerJustMyCode@4

; 1386 :     return static_cast<_Ty&&>(_Arg);

  00021	8b 45 08	 mov	 eax, DWORD PTR __Arg$[ebp]

; 1387 : }

  00024	5f		 pop	 edi
  00025	5e		 pop	 esi
  00026	5b		 pop	 ebx
  00027	81 c4 c0 00 00
	00		 add	 esp, 192		; 000000c0H
  0002d	3b ec		 cmp	 ebp, esp
  0002f	e8 00 00 00 00	 call	 __RTC_CheckEsp
  00034	8b e5		 mov	 esp, ebp
  00036	5d		 pop	 ebp
  00037	c3		 ret	 0
??$forward@ABV?$allocator@D@std@@@std@@YAABV?$allocator@D@0@ABV10@@Z ENDP ; std::forward<std::allocator<char> const &>
_TEXT	ENDS
; Function compile flags: /Odtp /RTCsu /ZI
; File C:\Program Files (x86)\Microsoft Visual Studio\2019\Community\VC\Tools\MSVC\14.29.30133\include\type_traits
;	COMDAT ??$forward@AAPAV_Facet_base@std@@@std@@YAAAPAV_Facet_base@0@AAPAV10@@Z
_TEXT	SEGMENT
__Arg$ = 8						; size = 4
??$forward@AAPAV_Facet_base@std@@@std@@YAAAPAV_Facet_base@0@AAPAV10@@Z PROC ; std::forward<std::_Facet_base * &>, COMDAT

; 1385 :     remove_reference_t<_Ty>& _Arg) noexcept { // forward an lvalue as either an lvalue or an rvalue

  00000	55		 push	 ebp
  00001	8b ec		 mov	 ebp, esp
  00003	81 ec c0 00 00
	00		 sub	 esp, 192		; 000000c0H
  00009	53		 push	 ebx
  0000a	56		 push	 esi
  0000b	57		 push	 edi
  0000c	8b fd		 mov	 edi, ebp
  0000e	33 c9		 xor	 ecx, ecx
  00010	b8 cc cc cc cc	 mov	 eax, -858993460		; ccccccccH
  00015	f3 ab		 rep stosd
  00017	b9 00 00 00 00	 mov	 ecx, OFFSET __589FA321_type_traits
  0001c	e8 00 00 00 00	 call	 @__CheckForDebuggerJustMyCode@4

; 1386 :     return static_cast<_Ty&&>(_Arg);

  00021	8b 45 08	 mov	 eax, DWORD PTR __Arg$[ebp]

; 1387 : }

  00024	5f		 pop	 edi
  00025	5e		 pop	 esi
  00026	5b		 pop	 ebx
  00027	81 c4 c0 00 00
	00		 add	 esp, 192		; 000000c0H
  0002d	3b ec		 cmp	 ebp, esp
  0002f	e8 00 00 00 00	 call	 __RTC_CheckEsp
  00034	8b e5		 mov	 esp, ebp
  00036	5d		 pop	 ebp
  00037	c3		 ret	 0
??$forward@AAPAV_Facet_base@std@@@std@@YAAAPAV_Facet_base@0@AAPAV10@@Z ENDP ; std::forward<std::_Facet_base * &>
_TEXT	ENDS
; Function compile flags: /Odtp /RTCsu /ZI
; File C:\Program Files (x86)\Microsoft Visual Studio\2019\Community\VC\Tools\MSVC\14.29.30133\include\xmemory
;	COMDAT ?deallocate@?$_Default_allocator_traits@V?$allocator@U_Container_proxy@std@@@std@@@std@@SAXAAV?$allocator@U_Container_proxy@std@@@2@QAU_Container_proxy@2@I@Z
_TEXT	SEGMENT
__Al$ = 8						; size = 4
__Ptr$ = 12						; size = 4
__Count$ = 16						; size = 4
?deallocate@?$_Default_allocator_traits@V?$allocator@U_Container_proxy@std@@@std@@@std@@SAXAAV?$allocator@U_Container_proxy@std@@@2@QAU_Container_proxy@2@I@Z PROC ; std::_Default_allocator_traits<std::allocator<std::_Container_proxy> >::deallocate, COMDAT

; 660  :     static _CONSTEXPR20_DYNALLOC void deallocate(_Alloc& _Al, const pointer _Ptr, const size_type _Count) {

  00000	55		 push	 ebp
  00001	8b ec		 mov	 ebp, esp
  00003	81 ec c0 00 00
	00		 sub	 esp, 192		; 000000c0H
  00009	53		 push	 ebx
  0000a	56		 push	 esi
  0000b	57		 push	 edi
  0000c	8b fd		 mov	 edi, ebp
  0000e	33 c9		 xor	 ecx, ecx
  00010	b8 cc cc cc cc	 mov	 eax, -858993460		; ccccccccH
  00015	f3 ab		 rep stosd
  00017	b9 00 00 00 00	 mov	 ecx, OFFSET __79D216CD_xmemory
  0001c	e8 00 00 00 00	 call	 @__CheckForDebuggerJustMyCode@4

; 661  :         // no overflow check on the following multiply; we assume _Allocate did that check
; 662  : #ifdef __cpp_lib_constexpr_dynamic_alloc // TRANSITION, GH-1532
; 663  :         if (_STD is_constant_evaluated()) {
; 664  :             _Al.deallocate(_Ptr, _Count);
; 665  :         } else
; 666  : #endif // __cpp_lib_constexpr_dynamic_alloc
; 667  :         {
; 668  :             (void) _Al;
; 669  :             _Deallocate<_New_alignof<value_type>>(_Ptr, sizeof(value_type) * _Count);

  00021	8b 45 10	 mov	 eax, DWORD PTR __Count$[ebp]
  00024	c1 e0 03	 shl	 eax, 3
  00027	50		 push	 eax
  00028	8b 4d 0c	 mov	 ecx, DWORD PTR __Ptr$[ebp]
  0002b	51		 push	 ecx
  0002c	e8 00 00 00 00	 call	 ??$_Deallocate@$07$0A@@std@@YAXPAXI@Z ; std::_Deallocate<8,0>
  00031	83 c4 08	 add	 esp, 8

; 670  :         }
; 671  :     }

  00034	5f		 pop	 edi
  00035	5e		 pop	 esi
  00036	5b		 pop	 ebx
  00037	81 c4 c0 00 00
	00		 add	 esp, 192		; 000000c0H
  0003d	3b ec		 cmp	 ebp, esp
  0003f	e8 00 00 00 00	 call	 __RTC_CheckEsp
  00044	8b e5		 mov	 esp, ebp
  00046	5d		 pop	 ebp
  00047	c3		 ret	 0
?deallocate@?$_Default_allocator_traits@V?$allocator@U_Container_proxy@std@@@std@@@std@@SAXAAV?$allocator@U_Container_proxy@std@@@2@QAU_Container_proxy@2@I@Z ENDP ; std::_Default_allocator_traits<std::allocator<std::_Container_proxy> >::deallocate
_TEXT	ENDS
; Function compile flags: /Odtp /RTCsu /ZI
; File C:\Program Files (x86)\Microsoft Visual Studio\2019\Community\VC\Tools\MSVC\14.29.30133\include\xmemory
;	COMDAT ??$?0ABV?$allocator@D@std@@$$V@?$_Compressed_pair@V?$allocator@D@std@@V?$_String_val@U?$_Simple_types@D@std@@@2@$00@std@@QAE@U_One_then_variadic_args_t@1@ABV?$allocator@D@1@@Z
_TEXT	SEGMENT
_this$ = -8						; size = 4
___formal$ = 8						; size = 1
__Val1$ = 12						; size = 4
??$?0ABV?$allocator@D@std@@$$V@?$_Compressed_pair@V?$allocator@D@std@@V?$_String_val@U?$_Simple_types@D@std@@@2@$00@std@@QAE@U_One_then_variadic_args_t@1@ABV?$allocator@D@1@@Z PROC ; std::_Compressed_pair<std::allocator<char>,std::_String_val<std::_Simple_types<char> >,1>::_Compressed_pair<std::allocator<char>,std::_String_val<std::_Simple_types<char> >,1><std::allocator<char> const &>, COMDAT
; _this$ = ecx

; 1336 :         : _Ty1(_STD forward<_Other1>(_Val1)), _Myval2(_STD forward<_Other2>(_Val2)...) {}

  00000	55		 push	 ebp
  00001	8b ec		 mov	 ebp, esp
  00003	81 ec cc 00 00
	00		 sub	 esp, 204		; 000000ccH
  00009	53		 push	 ebx
  0000a	56		 push	 esi
  0000b	57		 push	 edi
  0000c	51		 push	 ecx
  0000d	8d 7d f4	 lea	 edi, DWORD PTR [ebp-12]
  00010	b9 03 00 00 00	 mov	 ecx, 3
  00015	b8 cc cc cc cc	 mov	 eax, -858993460		; ccccccccH
  0001a	f3 ab		 rep stosd
  0001c	59		 pop	 ecx
  0001d	89 4d f8	 mov	 DWORD PTR _this$[ebp], ecx
  00020	b9 00 00 00 00	 mov	 ecx, OFFSET __79D216CD_xmemory
  00025	e8 00 00 00 00	 call	 @__CheckForDebuggerJustMyCode@4
  0002a	8b 45 0c	 mov	 eax, DWORD PTR __Val1$[ebp]
  0002d	50		 push	 eax
  0002e	e8 00 00 00 00	 call	 ??$forward@ABV?$allocator@D@std@@@std@@YAABV?$allocator@D@0@ABV10@@Z ; std::forward<std::allocator<char> const &>
  00033	83 c4 04	 add	 esp, 4
  00036	8b 4d f8	 mov	 ecx, DWORD PTR _this$[ebp]
  00039	e8 00 00 00 00	 call	 ??0?$_String_val@U?$_Simple_types@D@std@@@std@@QAE@XZ ; std::_String_val<std::_Simple_types<char> >::_String_val<std::_Simple_types<char> >
  0003e	8b 45 f8	 mov	 eax, DWORD PTR _this$[ebp]
  00041	5f		 pop	 edi
  00042	5e		 pop	 esi
  00043	5b		 pop	 ebx
  00044	81 c4 cc 00 00
	00		 add	 esp, 204		; 000000ccH
  0004a	3b ec		 cmp	 ebp, esp
  0004c	e8 00 00 00 00	 call	 __RTC_CheckEsp
  00051	8b e5		 mov	 esp, ebp
  00053	5d		 pop	 ebp
  00054	c2 08 00	 ret	 8
??$?0ABV?$allocator@D@std@@$$V@?$_Compressed_pair@V?$allocator@D@std@@V?$_String_val@U?$_Simple_types@D@std@@@2@$00@std@@QAE@U_One_then_variadic_args_t@1@ABV?$allocator@D@1@@Z ENDP ; std::_Compressed_pair<std::allocator<char>,std::_String_val<std::_Simple_types<char> >,1>::_Compressed_pair<std::allocator<char>,std::_String_val<std::_Simple_types<char> >,1><std::allocator<char> const &>
_TEXT	ENDS
; Function compile flags: /Odtp /RTCsu /ZI
; File C:\Program Files (x86)\Microsoft Visual Studio\2019\Community\VC\Tools\MSVC\14.29.30133\include\xmemory
;	COMDAT ??$?0AAPAV_Facet_base@std@@@?$_Compressed_pair@U?$default_delete@V_Facet_base@std@@@std@@PAV_Facet_base@2@$00@std@@QAE@U_Zero_then_variadic_args_t@1@AAPAV_Facet_base@1@@Z
_TEXT	SEGMENT
_this$ = -8						; size = 4
___formal$ = 8						; size = 1
_<_Val2_0>$ = 12					; size = 4
??$?0AAPAV_Facet_base@std@@@?$_Compressed_pair@U?$default_delete@V_Facet_base@std@@@std@@PAV_Facet_base@2@$00@std@@QAE@U_Zero_then_variadic_args_t@1@AAPAV_Facet_base@1@@Z PROC ; std::_Compressed_pair<std::default_delete<std::_Facet_base>,std::_Facet_base *,1>::_Compressed_pair<std::default_delete<std::_Facet_base>,std::_Facet_base *,1><std::_Facet_base * &>, COMDAT
; _this$ = ecx

; 1331 :         : _Ty1(), _Myval2(_STD forward<_Other2>(_Val2)...) {}

  00000	55		 push	 ebp
  00001	8b ec		 mov	 ebp, esp
  00003	81 ec cc 00 00
	00		 sub	 esp, 204		; 000000ccH
  00009	53		 push	 ebx
  0000a	56		 push	 esi
  0000b	57		 push	 edi
  0000c	51		 push	 ecx
  0000d	8d 7d f4	 lea	 edi, DWORD PTR [ebp-12]
  00010	b9 03 00 00 00	 mov	 ecx, 3
  00015	b8 cc cc cc cc	 mov	 eax, -858993460		; ccccccccH
  0001a	f3 ab		 rep stosd
  0001c	59		 pop	 ecx
  0001d	89 4d f8	 mov	 DWORD PTR _this$[ebp], ecx
  00020	b9 00 00 00 00	 mov	 ecx, OFFSET __79D216CD_xmemory
  00025	e8 00 00 00 00	 call	 @__CheckForDebuggerJustMyCode@4
  0002a	8b 45 0c	 mov	 eax, DWORD PTR _<_Val2_0>$[ebp]
  0002d	50		 push	 eax
  0002e	e8 00 00 00 00	 call	 ??$forward@AAPAV_Facet_base@std@@@std@@YAAAPAV_Facet_base@0@AAPAV10@@Z ; std::forward<std::_Facet_base * &>
  00033	83 c4 04	 add	 esp, 4
  00036	8b 4d f8	 mov	 ecx, DWORD PTR _this$[ebp]
  00039	8b 10		 mov	 edx, DWORD PTR [eax]
  0003b	89 11		 mov	 DWORD PTR [ecx], edx
  0003d	8b 45 f8	 mov	 eax, DWORD PTR _this$[ebp]
  00040	5f		 pop	 edi
  00041	5e		 pop	 esi
  00042	5b		 pop	 ebx
  00043	81 c4 cc 00 00
	00		 add	 esp, 204		; 000000ccH
  00049	3b ec		 cmp	 ebp, esp
  0004b	e8 00 00 00 00	 call	 __RTC_CheckEsp
  00050	8b e5		 mov	 esp, ebp
  00052	5d		 pop	 ebp
  00053	c2 08 00	 ret	 8
??$?0AAPAV_Facet_base@std@@@?$_Compressed_pair@U?$default_delete@V_Facet_base@std@@@std@@PAV_Facet_base@2@$00@std@@QAE@U_Zero_then_variadic_args_t@1@AAPAV_Facet_base@1@@Z ENDP ; std::_Compressed_pair<std::default_delete<std::_Facet_base>,std::_Facet_base *,1>::_Compressed_pair<std::default_delete<std::_Facet_base>,std::_Facet_base *,1><std::_Facet_base * &>
_TEXT	ENDS
; Function compile flags: /Odtp /RTCsu /ZI
; File C:\Program Files (x86)\Microsoft Visual Studio\2019\Community\VC\Tools\MSVC\14.29.30133\include\utility
;	COMDAT ??$exchange@PAV_Facet_base@std@@$$T@std@@YAPAV_Facet_base@0@AAPAV10@$$QA$$T@Z
_TEXT	SEGMENT
__Old_val$ = -8						; size = 4
__Val$ = 8						; size = 4
__New_val$ = 12						; size = 4
??$exchange@PAV_Facet_base@std@@$$T@std@@YAPAV_Facet_base@0@AAPAV10@$$QA$$T@Z PROC ; std::exchange<std::_Facet_base *,std::nullptr_t>, COMDAT

; 600  :     conjunction_v<is_nothrow_move_constructible<_Ty>, is_nothrow_assignable<_Ty&, _Other>>) /* strengthened */ {

  00000	55		 push	 ebp
  00001	8b ec		 mov	 ebp, esp
  00003	81 ec cc 00 00
	00		 sub	 esp, 204		; 000000ccH
  00009	53		 push	 ebx
  0000a	56		 push	 esi
  0000b	57		 push	 edi
  0000c	8d 7d f4	 lea	 edi, DWORD PTR [ebp-12]
  0000f	b9 03 00 00 00	 mov	 ecx, 3
  00014	b8 cc cc cc cc	 mov	 eax, -858993460		; ccccccccH
  00019	f3 ab		 rep stosd
  0001b	b9 00 00 00 00	 mov	 ecx, OFFSET __1347750E_utility
  00020	e8 00 00 00 00	 call	 @__CheckForDebuggerJustMyCode@4

; 601  :     // assign _New_val to _Val, return previous _Val
; 602  :     _Ty _Old_val = static_cast<_Ty&&>(_Val);

  00025	8b 45 08	 mov	 eax, DWORD PTR __Val$[ebp]
  00028	8b 08		 mov	 ecx, DWORD PTR [eax]
  0002a	89 4d f8	 mov	 DWORD PTR __Old_val$[ebp], ecx

; 603  :     _Val         = static_cast<_Other&&>(_New_val);

  0002d	8b 45 08	 mov	 eax, DWORD PTR __Val$[ebp]
  00030	8b 4d 0c	 mov	 ecx, DWORD PTR __New_val$[ebp]
  00033	8b 11		 mov	 edx, DWORD PTR [ecx]
  00035	89 10		 mov	 DWORD PTR [eax], edx

; 604  :     return _Old_val;

  00037	8b 45 f8	 mov	 eax, DWORD PTR __Old_val$[ebp]

; 605  : }

  0003a	5f		 pop	 edi
  0003b	5e		 pop	 esi
  0003c	5b		 pop	 ebx
  0003d	81 c4 cc 00 00
	00		 add	 esp, 204		; 000000ccH
  00043	3b ec		 cmp	 ebp, esp
  00045	e8 00 00 00 00	 call	 __RTC_CheckEsp
  0004a	8b e5		 mov	 esp, ebp
  0004c	5d		 pop	 ebp
  0004d	c3		 ret	 0
??$exchange@PAV_Facet_base@std@@$$T@std@@YAPAV_Facet_base@0@AAPAV10@$$QA$$T@Z ENDP ; std::exchange<std::_Facet_base *,std::nullptr_t>
_TEXT	ENDS
; Function compile flags: /Odtp /RTCsu /ZI
; File C:\Program Files (x86)\Microsoft Visual Studio\2019\Community\VC\Tools\MSVC\14.29.30133\include\xmemory
;	COMDAT ??$_Allocate_manually_vector_aligned@U_Default_allocate_traits@std@@@std@@YAPAXI@Z
_TEXT	SEGMENT
__Ptr$ = -32						; size = 4
__Ptr_container$ = -20					; size = 4
__Block_size$ = -8					; size = 4
__Bytes$ = 8						; size = 4
??$_Allocate_manually_vector_aligned@U_Default_allocate_traits@std@@@std@@YAPAXI@Z PROC ; std::_Allocate_manually_vector_aligned<std::_Default_allocate_traits>, COMDAT

; 127  : __declspec(allocator) void* _Allocate_manually_vector_aligned(const size_t _Bytes) {

  00000	55		 push	 ebp
  00001	8b ec		 mov	 ebp, esp
  00003	81 ec e4 00 00
	00		 sub	 esp, 228		; 000000e4H
  00009	53		 push	 ebx
  0000a	56		 push	 esi
  0000b	57		 push	 edi
  0000c	8d 7d dc	 lea	 edi, DWORD PTR [ebp-36]
  0000f	b9 09 00 00 00	 mov	 ecx, 9
  00014	b8 cc cc cc cc	 mov	 eax, -858993460		; ccccccccH
  00019	f3 ab		 rep stosd
  0001b	b9 00 00 00 00	 mov	 ecx, OFFSET __79D216CD_xmemory
  00020	e8 00 00 00 00	 call	 @__CheckForDebuggerJustMyCode@4

; 128  :     // allocate _Bytes manually aligned to at least _Big_allocation_alignment
; 129  :     const size_t _Block_size = _Non_user_size + _Bytes;

  00025	8b 45 08	 mov	 eax, DWORD PTR __Bytes$[ebp]
  00028	83 c0 27	 add	 eax, 39			; 00000027H
  0002b	89 45 f8	 mov	 DWORD PTR __Block_size$[ebp], eax

; 130  :     if (_Block_size <= _Bytes) {

  0002e	8b 45 f8	 mov	 eax, DWORD PTR __Block_size$[ebp]
  00031	3b 45 08	 cmp	 eax, DWORD PTR __Bytes$[ebp]
  00034	77 05		 ja	 SHORT $LN8@Allocate_m

; 131  :         _Throw_bad_array_new_length(); // add overflow

  00036	e8 00 00 00 00	 call	 ?_Throw_bad_array_new_length@std@@YAXXZ ; std::_Throw_bad_array_new_length
$LN8@Allocate_m:

; 132  :     }
; 133  : 
; 134  :     const uintptr_t _Ptr_container = reinterpret_cast<uintptr_t>(_Traits::_Allocate(_Block_size));

  0003b	8b 45 f8	 mov	 eax, DWORD PTR __Block_size$[ebp]
  0003e	50		 push	 eax
  0003f	e8 00 00 00 00	 call	 ?_Allocate@_Default_allocate_traits@std@@SAPAXI@Z ; std::_Default_allocate_traits::_Allocate
  00044	83 c4 04	 add	 esp, 4
  00047	89 45 ec	 mov	 DWORD PTR __Ptr_container$[ebp], eax
$LN4@Allocate_m:

; 135  :     _STL_VERIFY(_Ptr_container != 0, "invalid argument"); // validate even in release since we're doing p[-1]

  0004a	83 7d ec 00	 cmp	 DWORD PTR __Ptr_container$[ebp], 0
  0004e	74 02		 je	 SHORT $LN7@Allocate_m
  00050	eb 5c		 jmp	 SHORT $LN2@Allocate_m
$LN7@Allocate_m:
  00052	8b f4		 mov	 esi, esp
  00054	68 00 00 00 00	 push	 OFFSET ??_C@_0BB@FCMFBGOM@invalid?5argument@
  00059	68 00 00 00 00	 push	 OFFSET ??_C@_02DKCKIIND@?$CFs@
  0005e	6a 00		 push	 0
  00060	68 87 00 00 00	 push	 135			; 00000087H
  00065	68 00 00 00 00	 push	 OFFSET ??_C@_0GI@MNEMJBML@C?3?2Program?5Files?5?$CIx86?$CJ?2Microsof@
  0006a	6a 02		 push	 2
  0006c	ff 15 00 00 00
	00		 call	 DWORD PTR __imp___CrtDbgReport
  00072	83 c4 18	 add	 esp, 24			; 00000018H
  00075	3b f4		 cmp	 esi, esp
  00077	e8 00 00 00 00	 call	 __RTC_CheckEsp
  0007c	83 f8 01	 cmp	 eax, 1
  0007f	75 01		 jne	 SHORT $LN12@Allocate_m
  00081	cc		 int	 3
$LN12@Allocate_m:
  00082	8b f4		 mov	 esi, esp
  00084	6a 00		 push	 0
  00086	68 87 00 00 00	 push	 135			; 00000087H
  0008b	68 00 00 00 00	 push	 OFFSET ??_C@_1NA@MJBOBEJL@?$AAC?$AA?3?$AA?2?$AAP?$AAr?$AAo?$AAg?$AAr?$AAa?$AAm?$AA?5?$AAF?$AAi?$AAl?$AAe@
  00090	68 00 00 00 00	 push	 OFFSET ??_C@_11LOCGONAA@@
  00095	68 00 00 00 00	 push	 OFFSET ??_C@_1CG@JNLFBNGN@?$AA?$CC?$AAi?$AAn?$AAv?$AAa?$AAl?$AAi?$AAd?$AA?5?$AAa?$AAr?$AAg?$AAu?$AAm?$AAe@
  0009a	ff 15 00 00 00
	00		 call	 DWORD PTR __imp___invalid_parameter
  000a0	83 c4 14	 add	 esp, 20			; 00000014H
  000a3	3b f4		 cmp	 esi, esp
  000a5	e8 00 00 00 00	 call	 __RTC_CheckEsp
  000aa	33 c0		 xor	 eax, eax
  000ac	75 a4		 jne	 SHORT $LN7@Allocate_m
$LN2@Allocate_m:
  000ae	33 c0		 xor	 eax, eax
  000b0	75 98		 jne	 SHORT $LN4@Allocate_m

; 136  :     void* const _Ptr = reinterpret_cast<void*>((_Ptr_container + _Non_user_size) & ~(_Big_allocation_alignment - 1));

  000b2	8b 45 ec	 mov	 eax, DWORD PTR __Ptr_container$[ebp]
  000b5	83 c0 27	 add	 eax, 39			; 00000027H
  000b8	83 e0 e0	 and	 eax, -32		; ffffffe0H
  000bb	89 45 e0	 mov	 DWORD PTR __Ptr$[ebp], eax

; 137  :     static_cast<uintptr_t*>(_Ptr)[-1] = _Ptr_container;

  000be	b8 04 00 00 00	 mov	 eax, 4
  000c3	6b c8 ff	 imul	 ecx, eax, -1
  000c6	8b 55 e0	 mov	 edx, DWORD PTR __Ptr$[ebp]
  000c9	8b 45 ec	 mov	 eax, DWORD PTR __Ptr_container$[ebp]
  000cc	89 04 0a	 mov	 DWORD PTR [edx+ecx], eax

; 138  : 
; 139  : #ifdef _DEBUG
; 140  :     static_cast<uintptr_t*>(_Ptr)[-2] = _Big_allocation_sentinel;

  000cf	b8 04 00 00 00	 mov	 eax, 4
  000d4	6b c8 fe	 imul	 ecx, eax, -2
  000d7	8b 55 e0	 mov	 edx, DWORD PTR __Ptr$[ebp]
  000da	c7 04 0a fa fa
	fa fa		 mov	 DWORD PTR [edx+ecx], -84215046 ; fafafafaH

; 141  : #endif // _DEBUG
; 142  :     return _Ptr;

  000e1	8b 45 e0	 mov	 eax, DWORD PTR __Ptr$[ebp]
$LN11@Allocate_m:

; 143  : }

  000e4	5f		 pop	 edi
  000e5	5e		 pop	 esi
  000e6	5b		 pop	 ebx
  000e7	81 c4 e4 00 00
	00		 add	 esp, 228		; 000000e4H
  000ed	3b ec		 cmp	 ebp, esp
  000ef	e8 00 00 00 00	 call	 __RTC_CheckEsp
  000f4	8b e5		 mov	 esp, ebp
  000f6	5d		 pop	 ebp
  000f7	c3		 ret	 0
??$_Allocate_manually_vector_aligned@U_Default_allocate_traits@std@@@std@@YAPAXI@Z ENDP ; std::_Allocate_manually_vector_aligned<std::_Default_allocate_traits>
_TEXT	ENDS
; Function compile flags: /Odtp /RTCsu /ZI
; File C:\Program Files (x86)\Microsoft Visual Studio\2019\Community\VC\Tools\MSVC\14.29.30133\include\type_traits
;	COMDAT ??$forward@AAPAD@std@@YAAAPADAAPAD@Z
_TEXT	SEGMENT
__Arg$ = 8						; size = 4
??$forward@AAPAD@std@@YAAAPADAAPAD@Z PROC		; std::forward<char * &>, COMDAT

; 1385 :     remove_reference_t<_Ty>& _Arg) noexcept { // forward an lvalue as either an lvalue or an rvalue

  00000	55		 push	 ebp
  00001	8b ec		 mov	 ebp, esp
  00003	81 ec c0 00 00
	00		 sub	 esp, 192		; 000000c0H
  00009	53		 push	 ebx
  0000a	56		 push	 esi
  0000b	57		 push	 edi
  0000c	8b fd		 mov	 edi, ebp
  0000e	33 c9		 xor	 ecx, ecx
  00010	b8 cc cc cc cc	 mov	 eax, -858993460		; ccccccccH
  00015	f3 ab		 rep stosd
  00017	b9 00 00 00 00	 mov	 ecx, OFFSET __589FA321_type_traits
  0001c	e8 00 00 00 00	 call	 @__CheckForDebuggerJustMyCode@4

; 1386 :     return static_cast<_Ty&&>(_Arg);

  00021	8b 45 08	 mov	 eax, DWORD PTR __Arg$[ebp]

; 1387 : }

  00024	5f		 pop	 edi
  00025	5e		 pop	 esi
  00026	5b		 pop	 ebx
  00027	81 c4 c0 00 00
	00		 add	 esp, 192		; 000000c0H
  0002d	3b ec		 cmp	 ebp, esp
  0002f	e8 00 00 00 00	 call	 __RTC_CheckEsp
  00034	8b e5		 mov	 esp, ebp
  00036	5d		 pop	 ebp
  00037	c3		 ret	 0
??$forward@AAPAD@std@@YAAAPADAAPAD@Z ENDP		; std::forward<char * &>
_TEXT	ENDS
; Function compile flags: /Odtp /RTCsu /ZI
; File C:\Program Files (x86)\Microsoft Visual Studio\2019\Community\VC\Tools\MSVC\14.29.30133\include\type_traits
;	COMDAT ??$forward@ABQAD@std@@YAABQADABQAD@Z
_TEXT	SEGMENT
__Arg$ = 8						; size = 4
??$forward@ABQAD@std@@YAABQADABQAD@Z PROC		; std::forward<char * const &>, COMDAT

; 1385 :     remove_reference_t<_Ty>& _Arg) noexcept { // forward an lvalue as either an lvalue or an rvalue

  00000	55		 push	 ebp
  00001	8b ec		 mov	 ebp, esp
  00003	81 ec c0 00 00
	00		 sub	 esp, 192		; 000000c0H
  00009	53		 push	 ebx
  0000a	56		 push	 esi
  0000b	57		 push	 edi
  0000c	8b fd		 mov	 edi, ebp
  0000e	33 c9		 xor	 ecx, ecx
  00010	b8 cc cc cc cc	 mov	 eax, -858993460		; ccccccccH
  00015	f3 ab		 rep stosd
  00017	b9 00 00 00 00	 mov	 ecx, OFFSET __589FA321_type_traits
  0001c	e8 00 00 00 00	 call	 @__CheckForDebuggerJustMyCode@4

; 1386 :     return static_cast<_Ty&&>(_Arg);

  00021	8b 45 08	 mov	 eax, DWORD PTR __Arg$[ebp]

; 1387 : }

  00024	5f		 pop	 edi
  00025	5e		 pop	 esi
  00026	5b		 pop	 ebx
  00027	81 c4 c0 00 00
	00		 add	 esp, 192		; 000000c0H
  0002d	3b ec		 cmp	 ebp, esp
  0002f	e8 00 00 00 00	 call	 __RTC_CheckEsp
  00034	8b e5		 mov	 esp, ebp
  00036	5d		 pop	 ebp
  00037	c3		 ret	 0
??$forward@ABQAD@std@@YAABQADABQAD@Z ENDP		; std::forward<char * const &>
_TEXT	ENDS
; Function compile flags: /Odtp /RTCsu /ZI
; File C:\Program Files (x86)\Microsoft Visual Studio\2019\Community\VC\Tools\MSVC\14.29.30133\include\xutility
;	COMDAT ??$_Voidify_iter@PAPAD@std@@YAPAXPAPAD@Z
_TEXT	SEGMENT
__It$ = 8						; size = 4
??$_Voidify_iter@PAPAD@std@@YAPAXPAPAD@Z PROC		; std::_Voidify_iter<char * *>, COMDAT

; 123  : _NODISCARD constexpr void* _Voidify_iter(_Iter _It) noexcept {

  00000	55		 push	 ebp
  00001	8b ec		 mov	 ebp, esp
  00003	81 ec c0 00 00
	00		 sub	 esp, 192		; 000000c0H
  00009	53		 push	 ebx
  0000a	56		 push	 esi
  0000b	57		 push	 edi
  0000c	8b fd		 mov	 edi, ebp
  0000e	33 c9		 xor	 ecx, ecx
  00010	b8 cc cc cc cc	 mov	 eax, -858993460		; ccccccccH
  00015	f3 ab		 rep stosd
  00017	b9 00 00 00 00	 mov	 ecx, OFFSET __12269DE6_xutility
  0001c	e8 00 00 00 00	 call	 @__CheckForDebuggerJustMyCode@4

; 124  :     if constexpr (is_pointer_v<_Iter>) {
; 125  :         return const_cast<void*>(static_cast<const volatile void*>(_It));

  00021	8b 45 08	 mov	 eax, DWORD PTR __It$[ebp]

; 126  :     } else {
; 127  :         return const_cast<void*>(static_cast<const volatile void*>(_STD addressof(*_It)));
; 128  :     }
; 129  : }

  00024	5f		 pop	 edi
  00025	5e		 pop	 esi
  00026	5b		 pop	 ebx
  00027	81 c4 c0 00 00
	00		 add	 esp, 192		; 000000c0H
  0002d	3b ec		 cmp	 ebp, esp
  0002f	e8 00 00 00 00	 call	 __RTC_CheckEsp
  00034	8b e5		 mov	 esp, ebp
  00036	5d		 pop	 ebp
  00037	c3		 ret	 0
??$_Voidify_iter@PAPAD@std@@YAPAXPAPAD@Z ENDP		; std::_Voidify_iter<char * *>
_TEXT	ENDS
; Function compile flags: /Odtp /RTCsu /ZI
; File C:\Program Files (x86)\Microsoft Visual Studio\2019\Community\VC\Tools\MSVC\14.29.30133\include\xstddef
;	COMDAT ??$addressof@PAD@std@@YAPAPADAAPAD@Z
_TEXT	SEGMENT
__Val$ = 8						; size = 4
??$addressof@PAD@std@@YAPAPADAAPAD@Z PROC		; std::addressof<char *>, COMDAT

; 252  : _NODISCARD constexpr _Ty* addressof(_Ty& _Val) noexcept {

  00000	55		 push	 ebp
  00001	8b ec		 mov	 ebp, esp
  00003	81 ec c0 00 00
	00		 sub	 esp, 192		; 000000c0H
  00009	53		 push	 ebx
  0000a	56		 push	 esi
  0000b	57		 push	 edi
  0000c	8b fd		 mov	 edi, ebp
  0000e	33 c9		 xor	 ecx, ecx
  00010	b8 cc cc cc cc	 mov	 eax, -858993460		; ccccccccH
  00015	f3 ab		 rep stosd
  00017	b9 00 00 00 00	 mov	 ecx, OFFSET __E458E21C_xstddef
  0001c	e8 00 00 00 00	 call	 @__CheckForDebuggerJustMyCode@4

; 253  :     return __builtin_addressof(_Val);

  00021	8b 45 08	 mov	 eax, DWORD PTR __Val$[ebp]

; 254  : }

  00024	5f		 pop	 edi
  00025	5e		 pop	 esi
  00026	5b		 pop	 ebx
  00027	81 c4 c0 00 00
	00		 add	 esp, 192		; 000000c0H
  0002d	3b ec		 cmp	 ebp, esp
  0002f	e8 00 00 00 00	 call	 __RTC_CheckEsp
  00034	8b e5		 mov	 esp, ebp
  00036	5d		 pop	 ebp
  00037	c3		 ret	 0
??$addressof@PAD@std@@YAPAPADAAPAD@Z ENDP		; std::addressof<char *>
_TEXT	ENDS
; Function compile flags: /Odtp /RTCsu /ZI
; File C:\Program Files (x86)\Microsoft Visual Studio\2019\Community\VC\Tools\MSVC\14.29.30133\include\xmemory
;	COMDAT ??$_Deallocate_plain@V?$allocator@U_Container_proxy@std@@@std@@@std@@YAXAAV?$allocator@U_Container_proxy@std@@@0@QAU_Container_proxy@0@@Z
_TEXT	SEGMENT
__$EHRec$ = -12						; size = 12
__Al$ = 8						; size = 4
__Ptr$ = 12						; size = 4
??$_Deallocate_plain@V?$allocator@U_Container_proxy@std@@@std@@@std@@YAXAAV?$allocator@U_Container_proxy@std@@@0@QAU_Container_proxy@0@@Z PROC ; std::_Deallocate_plain<std::allocator<std::_Container_proxy> >, COMDAT

; 933  : _CONSTEXPR20_DYNALLOC void _Deallocate_plain(_Alloc& _Al, typename _Alloc::value_type* const _Ptr) noexcept {

  00000	55		 push	 ebp
  00001	8b ec		 mov	 ebp, esp
  00003	6a ff		 push	 -1
  00005	68 00 00 00 00	 push	 __ehhandler$??$_Deallocate_plain@V?$allocator@U_Container_proxy@std@@@std@@@std@@YAXAAV?$allocator@U_Container_proxy@std@@@0@QAU_Container_proxy@0@@Z
  0000a	64 a1 00 00 00
	00		 mov	 eax, DWORD PTR fs:0
  00010	50		 push	 eax
  00011	81 ec c0 00 00
	00		 sub	 esp, 192		; 000000c0H
  00017	53		 push	 ebx
  00018	56		 push	 esi
  00019	57		 push	 edi
  0001a	8d 7d f4	 lea	 edi, DWORD PTR [ebp-12]
  0001d	33 c9		 xor	 ecx, ecx
  0001f	b8 cc cc cc cc	 mov	 eax, -858993460		; ccccccccH
  00024	f3 ab		 rep stosd
  00026	a1 00 00 00 00	 mov	 eax, DWORD PTR ___security_cookie
  0002b	33 c5		 xor	 eax, ebp
  0002d	50		 push	 eax
  0002e	8d 45 f4	 lea	 eax, DWORD PTR __$EHRec$[ebp]
  00031	64 a3 00 00 00
	00		 mov	 DWORD PTR fs:0, eax
  00037	b9 00 00 00 00	 mov	 ecx, OFFSET __79D216CD_xmemory
  0003c	e8 00 00 00 00	 call	 @__CheckForDebuggerJustMyCode@4

; 934  :     // deallocate a plain pointer using an allocator
; 935  :     using _Alloc_traits = allocator_traits<_Alloc>;
; 936  :     if constexpr (is_same_v<_Alloc_ptr_t<_Alloc>, typename _Alloc::value_type*>) {
; 937  :         _Alloc_traits::deallocate(_Al, _Ptr, 1);

  00041	6a 01		 push	 1
  00043	8b 45 0c	 mov	 eax, DWORD PTR __Ptr$[ebp]
  00046	50		 push	 eax
  00047	8b 4d 08	 mov	 ecx, DWORD PTR __Al$[ebp]
  0004a	51		 push	 ecx
  0004b	e8 00 00 00 00	 call	 ?deallocate@?$_Default_allocator_traits@V?$allocator@U_Container_proxy@std@@@std@@@std@@SAXAAV?$allocator@U_Container_proxy@std@@@2@QAU_Container_proxy@2@I@Z ; std::_Default_allocator_traits<std::allocator<std::_Container_proxy> >::deallocate
  00050	83 c4 0c	 add	 esp, 12			; 0000000cH

; 938  :     } else {
; 939  :         using _Ptr_traits = pointer_traits<_Alloc_ptr_t<_Alloc>>;
; 940  :         _Alloc_traits::deallocate(_Al, _Ptr_traits::pointer_to(*_Ptr), 1);
; 941  :     }
; 942  : }

  00053	8b 4d f4	 mov	 ecx, DWORD PTR __$EHRec$[ebp]
  00056	64 89 0d 00 00
	00 00		 mov	 DWORD PTR fs:0, ecx
  0005d	59		 pop	 ecx
  0005e	5f		 pop	 edi
  0005f	5e		 pop	 esi
  00060	5b		 pop	 ebx
  00061	81 c4 cc 00 00
	00		 add	 esp, 204		; 000000ccH
  00067	3b ec		 cmp	 ebp, esp
  00069	e8 00 00 00 00	 call	 __RTC_CheckEsp
  0006e	8b e5		 mov	 esp, ebp
  00070	5d		 pop	 ebp
  00071	c3		 ret	 0
  00072	cc		 int	 3
  00073	cc		 int	 3
  00074	cc		 int	 3
  00075	cc		 int	 3
  00076	cc		 int	 3
_TEXT	ENDS
;	COMDAT text$x
text$x	SEGMENT
__ehhandler$??$_Deallocate_plain@V?$allocator@U_Container_proxy@std@@@std@@@std@@YAXAAV?$allocator@U_Container_proxy@std@@@0@QAU_Container_proxy@0@@Z:
  00000	90		 npad	 1
  00001	90		 npad	 1
  00002	8b 54 24 08	 mov	 edx, DWORD PTR [esp+8]
  00006	8d 42 0c	 lea	 eax, DWORD PTR [edx+12]
  00009	8b 8a 30 ff ff
	ff		 mov	 ecx, DWORD PTR [edx-208]
  0000f	33 c8		 xor	 ecx, eax
  00011	e8 00 00 00 00	 call	 @__security_check_cookie@4
  00016	b8 00 00 00 00	 mov	 eax, OFFSET __ehfuncinfo$??$_Deallocate_plain@V?$allocator@U_Container_proxy@std@@@std@@@std@@YAXAAV?$allocator@U_Container_proxy@std@@@0@QAU_Container_proxy@0@@Z
  0001b	e9 00 00 00 00	 jmp	 ___CxxFrameHandler3
text$x	ENDS
??$_Deallocate_plain@V?$allocator@U_Container_proxy@std@@@std@@@std@@YAXAAV?$allocator@U_Container_proxy@std@@@0@QAU_Container_proxy@0@@Z ENDP ; std::_Deallocate_plain<std::allocator<std::_Container_proxy> >
; Function compile flags: /Odtp /RTCsu /ZI
; File C:\Program Files (x86)\Microsoft Visual Studio\2019\Community\VC\Tools\MSVC\14.29.30133\include\memory
;	COMDAT ??$?0U?$default_delete@V_Facet_base@std@@@std@@$0A@@?$unique_ptr@V_Facet_base@std@@U?$default_delete@V_Facet_base@std@@@2@@std@@QAE@PAV_Facet_base@1@@Z
_TEXT	SEGMENT
$T1 = -209						; size = 1
_this$ = -8						; size = 4
__Ptr$ = 8						; size = 4
??$?0U?$default_delete@V_Facet_base@std@@@std@@$0A@@?$unique_ptr@V_Facet_base@std@@U?$default_delete@V_Facet_base@std@@@2@@std@@QAE@PAV_Facet_base@1@@Z PROC ; std::unique_ptr<std::_Facet_base,std::default_delete<std::_Facet_base> >::unique_ptr<std::_Facet_base,std::default_delete<std::_Facet_base> ><std::default_delete<std::_Facet_base>,0>, COMDAT
; _this$ = ecx

; 3141 :     explicit unique_ptr(pointer _Ptr) noexcept : _Mypair(_Zero_then_variadic_args_t{}, _Ptr) {}

  00000	55		 push	 ebp
  00001	8b ec		 mov	 ebp, esp
  00003	81 ec d8 00 00
	00		 sub	 esp, 216		; 000000d8H
  00009	53		 push	 ebx
  0000a	56		 push	 esi
  0000b	57		 push	 edi
  0000c	51		 push	 ecx
  0000d	8d 7d e8	 lea	 edi, DWORD PTR [ebp-24]
  00010	b9 06 00 00 00	 mov	 ecx, 6
  00015	b8 cc cc cc cc	 mov	 eax, -858993460		; ccccccccH
  0001a	f3 ab		 rep stosd
  0001c	59		 pop	 ecx
  0001d	89 4d f8	 mov	 DWORD PTR _this$[ebp], ecx
  00020	b9 00 00 00 00	 mov	 ecx, OFFSET __C34BF88C_memory
  00025	e8 00 00 00 00	 call	 @__CheckForDebuggerJustMyCode@4
  0002a	8d 45 08	 lea	 eax, DWORD PTR __Ptr$[ebp]
  0002d	50		 push	 eax
  0002e	0f b6 8d 2f ff
	ff ff		 movzx	 ecx, BYTE PTR $T1[ebp]
  00035	51		 push	 ecx
  00036	8b 4d f8	 mov	 ecx, DWORD PTR _this$[ebp]
  00039	e8 00 00 00 00	 call	 ??$?0AAPAV_Facet_base@std@@@?$_Compressed_pair@U?$default_delete@V_Facet_base@std@@@std@@PAV_Facet_base@2@$00@std@@QAE@U_Zero_then_variadic_args_t@1@AAPAV_Facet_base@1@@Z ; std::_Compressed_pair<std::default_delete<std::_Facet_base>,std::_Facet_base *,1>::_Compressed_pair<std::default_delete<std::_Facet_base>,std::_Facet_base *,1><std::_Facet_base * &>
  0003e	8b 45 f8	 mov	 eax, DWORD PTR _this$[ebp]
  00041	5f		 pop	 edi
  00042	5e		 pop	 esi
  00043	5b		 pop	 ebx
  00044	81 c4 d8 00 00
	00		 add	 esp, 216		; 000000d8H
  0004a	3b ec		 cmp	 ebp, esp
  0004c	e8 00 00 00 00	 call	 __RTC_CheckEsp
  00051	8b e5		 mov	 esp, ebp
  00053	5d		 pop	 ebp
  00054	c2 04 00	 ret	 4
??$?0U?$default_delete@V_Facet_base@std@@@std@@$0A@@?$unique_ptr@V_Facet_base@std@@U?$default_delete@V_Facet_base@std@@@2@@std@@QAE@PAV_Facet_base@1@@Z ENDP ; std::unique_ptr<std::_Facet_base,std::default_delete<std::_Facet_base> >::unique_ptr<std::_Facet_base,std::default_delete<std::_Facet_base> ><std::default_delete<std::_Facet_base>,0>
_TEXT	ENDS
; Function compile flags: /Odtp /RTCsu /ZI
;	COMDAT ?__autoclassinit2@?$unique_ptr@V_Facet_base@std@@U?$default_delete@V_Facet_base@std@@@2@@std@@QAEXI@Z
_TEXT	SEGMENT
_this$ = -8						; size = 4
_classSize$ = 8						; size = 4
?__autoclassinit2@?$unique_ptr@V_Facet_base@std@@U?$default_delete@V_Facet_base@std@@@2@@std@@QAEXI@Z PROC ; std::unique_ptr<std::_Facet_base,std::default_delete<std::_Facet_base> >::__autoclassinit2, COMDAT
; _this$ = ecx
  00000	55		 push	 ebp
  00001	8b ec		 mov	 ebp, esp
  00003	81 ec cc 00 00
	00		 sub	 esp, 204		; 000000ccH
  00009	53		 push	 ebx
  0000a	56		 push	 esi
  0000b	57		 push	 edi
  0000c	51		 push	 ecx
  0000d	8d 7d f4	 lea	 edi, DWORD PTR [ebp-12]
  00010	b9 03 00 00 00	 mov	 ecx, 3
  00015	b8 cc cc cc cc	 mov	 eax, -858993460		; ccccccccH
  0001a	f3 ab		 rep stosd
  0001c	59		 pop	 ecx
  0001d	89 4d f8	 mov	 DWORD PTR _this$[ebp], ecx
  00020	8b 45 08	 mov	 eax, DWORD PTR _classSize$[ebp]
  00023	50		 push	 eax
  00024	6a 00		 push	 0
  00026	8b 4d f8	 mov	 ecx, DWORD PTR _this$[ebp]
  00029	51		 push	 ecx
  0002a	e8 00 00 00 00	 call	 _memset
  0002f	83 c4 0c	 add	 esp, 12			; 0000000cH
  00032	5f		 pop	 edi
  00033	5e		 pop	 esi
  00034	5b		 pop	 ebx
  00035	81 c4 cc 00 00
	00		 add	 esp, 204		; 000000ccH
  0003b	3b ec		 cmp	 ebp, esp
  0003d	e8 00 00 00 00	 call	 __RTC_CheckEsp
  00042	8b e5		 mov	 esp, ebp
  00044	5d		 pop	 ebp
  00045	c2 04 00	 ret	 4
?__autoclassinit2@?$unique_ptr@V_Facet_base@std@@U?$default_delete@V_Facet_base@std@@@2@@std@@QAEXI@Z ENDP ; std::unique_ptr<std::_Facet_base,std::default_delete<std::_Facet_base> >::__autoclassinit2
_TEXT	ENDS
; Function compile flags: /Odtp /RTCsu /ZI
; File C:\Program Files (x86)\Microsoft Visual Studio\2019\Community\VC\Tools\MSVC\14.29.30133\include\xmemory
;	COMDAT ?_Get_first@?$_Compressed_pair@U?$default_delete@V_Facet_base@std@@@std@@PAV_Facet_base@2@$00@std@@QAEAAU?$default_delete@V_Facet_base@std@@@2@XZ
_TEXT	SEGMENT
_this$ = -8						; size = 4
?_Get_first@?$_Compressed_pair@U?$default_delete@V_Facet_base@std@@@std@@PAV_Facet_base@2@$00@std@@QAEAAU?$default_delete@V_Facet_base@std@@@2@XZ PROC ; std::_Compressed_pair<std::default_delete<std::_Facet_base>,std::_Facet_base *,1>::_Get_first, COMDAT
; _this$ = ecx

; 1338 :     constexpr _Ty1& _Get_first() noexcept {

  00000	55		 push	 ebp
  00001	8b ec		 mov	 ebp, esp
  00003	81 ec cc 00 00
	00		 sub	 esp, 204		; 000000ccH
  00009	53		 push	 ebx
  0000a	56		 push	 esi
  0000b	57		 push	 edi
  0000c	51		 push	 ecx
  0000d	8d 7d f4	 lea	 edi, DWORD PTR [ebp-12]
  00010	b9 03 00 00 00	 mov	 ecx, 3
  00015	b8 cc cc cc cc	 mov	 eax, -858993460		; ccccccccH
  0001a	f3 ab		 rep stosd
  0001c	59		 pop	 ecx
  0001d	89 4d f8	 mov	 DWORD PTR _this$[ebp], ecx
  00020	b9 00 00 00 00	 mov	 ecx, OFFSET __79D216CD_xmemory
  00025	e8 00 00 00 00	 call	 @__CheckForDebuggerJustMyCode@4

; 1339 :         return *this;

  0002a	8b 45 f8	 mov	 eax, DWORD PTR _this$[ebp]

; 1340 :     }

  0002d	5f		 pop	 edi
  0002e	5e		 pop	 esi
  0002f	5b		 pop	 ebx
  00030	81 c4 cc 00 00
	00		 add	 esp, 204		; 000000ccH
  00036	3b ec		 cmp	 ebp, esp
  00038	e8 00 00 00 00	 call	 __RTC_CheckEsp
  0003d	8b e5		 mov	 esp, ebp
  0003f	5d		 pop	 ebp
  00040	c3		 ret	 0
?_Get_first@?$_Compressed_pair@U?$default_delete@V_Facet_base@std@@@std@@PAV_Facet_base@2@$00@std@@QAEAAU?$default_delete@V_Facet_base@std@@@2@XZ ENDP ; std::_Compressed_pair<std::default_delete<std::_Facet_base>,std::_Facet_base *,1>::_Get_first
_TEXT	ENDS
; Function compile flags: /Odtp /RTCsu /ZI
; File C:\Program Files (x86)\Microsoft Visual Studio\2019\Community\VC\Tools\MSVC\14.29.30133\include\memory
;	COMDAT ?release@?$unique_ptr@V_Facet_base@std@@U?$default_delete@V_Facet_base@std@@@2@@std@@QAEPAV_Facet_base@2@XZ
_TEXT	SEGMENT
$T1 = -212						; size = 4
_this$ = -8						; size = 4
?release@?$unique_ptr@V_Facet_base@std@@U?$default_delete@V_Facet_base@std@@@2@@std@@QAEPAV_Facet_base@2@XZ PROC ; std::unique_ptr<std::_Facet_base,std::default_delete<std::_Facet_base> >::release, COMDAT
; _this$ = ecx

; 3226 :     pointer release() noexcept {

  00000	55		 push	 ebp
  00001	8b ec		 mov	 ebp, esp
  00003	81 ec d8 00 00
	00		 sub	 esp, 216		; 000000d8H
  00009	53		 push	 ebx
  0000a	56		 push	 esi
  0000b	57		 push	 edi
  0000c	51		 push	 ecx
  0000d	8d 7d e8	 lea	 edi, DWORD PTR [ebp-24]
  00010	b9 06 00 00 00	 mov	 ecx, 6
  00015	b8 cc cc cc cc	 mov	 eax, -858993460		; ccccccccH
  0001a	f3 ab		 rep stosd
  0001c	59		 pop	 ecx
  0001d	89 4d f8	 mov	 DWORD PTR _this$[ebp], ecx
  00020	b9 00 00 00 00	 mov	 ecx, OFFSET __C34BF88C_memory
  00025	e8 00 00 00 00	 call	 @__CheckForDebuggerJustMyCode@4

; 3227 :         return _STD exchange(_Mypair._Myval2, nullptr);

  0002a	c7 85 2c ff ff
	ff 00 00 00 00	 mov	 DWORD PTR $T1[ebp], 0
  00034	8d 85 2c ff ff
	ff		 lea	 eax, DWORD PTR $T1[ebp]
  0003a	50		 push	 eax
  0003b	8b 4d f8	 mov	 ecx, DWORD PTR _this$[ebp]
  0003e	51		 push	 ecx
  0003f	e8 00 00 00 00	 call	 ??$exchange@PAV_Facet_base@std@@$$T@std@@YAPAV_Facet_base@0@AAPAV10@$$QA$$T@Z ; std::exchange<std::_Facet_base *,std::nullptr_t>
  00044	83 c4 08	 add	 esp, 8

; 3228 :     }

  00047	5f		 pop	 edi
  00048	5e		 pop	 esi
  00049	5b		 pop	 ebx
  0004a	81 c4 d8 00 00
	00		 add	 esp, 216		; 000000d8H
  00050	3b ec		 cmp	 ebp, esp
  00052	e8 00 00 00 00	 call	 __RTC_CheckEsp
  00057	8b e5		 mov	 esp, ebp
  00059	5d		 pop	 ebp
  0005a	c3		 ret	 0
?release@?$unique_ptr@V_Facet_base@std@@U?$default_delete@V_Facet_base@std@@@2@@std@@QAEPAV_Facet_base@2@XZ ENDP ; std::unique_ptr<std::_Facet_base,std::default_delete<std::_Facet_base> >::release
_TEXT	ENDS
; Function compile flags: /Odtp /RTCsu /ZI
; File C:\Program Files (x86)\Microsoft Visual Studio\2019\Community\VC\Tools\MSVC\14.29.30133\include\memory
;	COMDAT ??1?$unique_ptr@V_Facet_base@std@@U?$default_delete@V_Facet_base@std@@@2@@std@@QAE@XZ
_TEXT	SEGMENT
_this$ = -8						; size = 4
??1?$unique_ptr@V_Facet_base@std@@U?$default_delete@V_Facet_base@std@@@2@@std@@QAE@XZ PROC ; std::unique_ptr<std::_Facet_base,std::default_delete<std::_Facet_base> >::~unique_ptr<std::_Facet_base,std::default_delete<std::_Facet_base> >, COMDAT
; _this$ = ecx

; 3196 :     ~unique_ptr() noexcept {

  00000	55		 push	 ebp
  00001	8b ec		 mov	 ebp, esp
  00003	81 ec cc 00 00
	00		 sub	 esp, 204		; 000000ccH
  00009	53		 push	 ebx
  0000a	56		 push	 esi
  0000b	57		 push	 edi
  0000c	51		 push	 ecx
  0000d	8d 7d f4	 lea	 edi, DWORD PTR [ebp-12]
  00010	b9 03 00 00 00	 mov	 ecx, 3
  00015	b8 cc cc cc cc	 mov	 eax, -858993460		; ccccccccH
  0001a	f3 ab		 rep stosd
  0001c	59		 pop	 ecx
  0001d	89 4d f8	 mov	 DWORD PTR _this$[ebp], ecx
  00020	b9 00 00 00 00	 mov	 ecx, OFFSET __C34BF88C_memory
  00025	e8 00 00 00 00	 call	 @__CheckForDebuggerJustMyCode@4

; 3197 :         if (_Mypair._Myval2) {

  0002a	8b 45 f8	 mov	 eax, DWORD PTR _this$[ebp]
  0002d	83 38 00	 cmp	 DWORD PTR [eax], 0
  00030	74 15		 je	 SHORT $LN3@unique_ptr

; 3198 :             _Mypair._Get_first()(_Mypair._Myval2);

  00032	8b 45 f8	 mov	 eax, DWORD PTR _this$[ebp]
  00035	8b 08		 mov	 ecx, DWORD PTR [eax]
  00037	51		 push	 ecx
  00038	8b 4d f8	 mov	 ecx, DWORD PTR _this$[ebp]
  0003b	e8 00 00 00 00	 call	 ?_Get_first@?$_Compressed_pair@U?$default_delete@V_Facet_base@std@@@std@@PAV_Facet_base@2@$00@std@@QAEAAU?$default_delete@V_Facet_base@std@@@2@XZ ; std::_Compressed_pair<std::default_delete<std::_Facet_base>,std::_Facet_base *,1>::_Get_first
  00040	8b c8		 mov	 ecx, eax
  00042	e8 00 00 00 00	 call	 ??R?$default_delete@V_Facet_base@std@@@std@@QBEXPAV_Facet_base@1@@Z ; std::default_delete<std::_Facet_base>::operator()
$LN3@unique_ptr:

; 3199 :         }
; 3200 :     }

  00047	5f		 pop	 edi
  00048	5e		 pop	 esi
  00049	5b		 pop	 ebx
  0004a	81 c4 cc 00 00
	00		 add	 esp, 204		; 000000ccH
  00050	3b ec		 cmp	 ebp, esp
  00052	e8 00 00 00 00	 call	 __RTC_CheckEsp
  00057	8b e5		 mov	 esp, ebp
  00059	5d		 pop	 ebp
  0005a	c3		 ret	 0
??1?$unique_ptr@V_Facet_base@std@@U?$default_delete@V_Facet_base@std@@@2@@std@@QAE@XZ ENDP ; std::unique_ptr<std::_Facet_base,std::default_delete<std::_Facet_base> >::~unique_ptr<std::_Facet_base,std::default_delete<std::_Facet_base> >
_TEXT	ENDS
; Function compile flags: /Odtp /RTCsu /ZI
; File C:\Program Files (x86)\Microsoft Visual Studio\2019\Community\VC\Tools\MSVC\14.29.30133\include\memory
;	COMDAT ??R?$default_delete@V_Facet_base@std@@@std@@QBEXPAV_Facet_base@1@@Z
_TEXT	SEGMENT
tv70 = -220						; size = 4
$T1 = -212						; size = 4
_this$ = -8						; size = 4
__Ptr$ = 8						; size = 4
??R?$default_delete@V_Facet_base@std@@@std@@QBEXPAV_Facet_base@1@@Z PROC ; std::default_delete<std::_Facet_base>::operator(), COMDAT
; _this$ = ecx

; 3088 :     void operator()(_Ty* _Ptr) const noexcept /* strengthened */ { // delete a pointer

  00000	55		 push	 ebp
  00001	8b ec		 mov	 ebp, esp
  00003	81 ec dc 00 00
	00		 sub	 esp, 220		; 000000dcH
  00009	53		 push	 ebx
  0000a	56		 push	 esi
  0000b	57		 push	 edi
  0000c	51		 push	 ecx
  0000d	8d 7d e4	 lea	 edi, DWORD PTR [ebp-28]
  00010	b9 07 00 00 00	 mov	 ecx, 7
  00015	b8 cc cc cc cc	 mov	 eax, -858993460		; ccccccccH
  0001a	f3 ab		 rep stosd
  0001c	59		 pop	 ecx
  0001d	89 4d f8	 mov	 DWORD PTR _this$[ebp], ecx
  00020	b9 00 00 00 00	 mov	 ecx, OFFSET __C34BF88C_memory
  00025	e8 00 00 00 00	 call	 @__CheckForDebuggerJustMyCode@4

; 3089 :         static_assert(0 < sizeof(_Ty), "can't delete an incomplete type");
; 3090 :         delete _Ptr;

  0002a	8b 45 08	 mov	 eax, DWORD PTR __Ptr$[ebp]
  0002d	89 85 2c ff ff
	ff		 mov	 DWORD PTR $T1[ebp], eax
  00033	83 bd 2c ff ff
	ff 00		 cmp	 DWORD PTR $T1[ebp], 0
  0003a	74 25		 je	 SHORT $LN3@operator
  0003c	8b f4		 mov	 esi, esp
  0003e	6a 01		 push	 1
  00040	8b 8d 2c ff ff
	ff		 mov	 ecx, DWORD PTR $T1[ebp]
  00046	8b 11		 mov	 edx, DWORD PTR [ecx]
  00048	8b 8d 2c ff ff
	ff		 mov	 ecx, DWORD PTR $T1[ebp]
  0004e	8b 02		 mov	 eax, DWORD PTR [edx]
  00050	ff d0		 call	 eax
  00052	3b f4		 cmp	 esi, esp
  00054	e8 00 00 00 00	 call	 __RTC_CheckEsp
  00059	89 85 24 ff ff
	ff		 mov	 DWORD PTR tv70[ebp], eax
  0005f	eb 0a		 jmp	 SHORT $LN2@operator
$LN3@operator:
  00061	c7 85 24 ff ff
	ff 00 00 00 00	 mov	 DWORD PTR tv70[ebp], 0
$LN2@operator:

; 3091 :     }

  0006b	5f		 pop	 edi
  0006c	5e		 pop	 esi
  0006d	5b		 pop	 ebx
  0006e	81 c4 dc 00 00
	00		 add	 esp, 220		; 000000dcH
  00074	3b ec		 cmp	 ebp, esp
  00076	e8 00 00 00 00	 call	 __RTC_CheckEsp
  0007b	8b e5		 mov	 esp, ebp
  0007d	5d		 pop	 ebp
  0007e	c2 04 00	 ret	 4
??R?$default_delete@V_Facet_base@std@@@std@@QBEXPAV_Facet_base@1@@Z ENDP ; std::default_delete<std::_Facet_base>::operator()
_TEXT	ENDS
; Function compile flags: /Odtp /RTCsu /ZI
; File C:\Program Files (x86)\Microsoft Visual Studio\2019\Community\VC\Tools\MSVC\14.29.30133\include\type_traits
;	COMDAT ??$forward@PAU_Container_base12@std@@@std@@YA$$QAPAU_Container_base12@0@AAPAU10@@Z
_TEXT	SEGMENT
__Arg$ = 8						; size = 4
??$forward@PAU_Container_base12@std@@@std@@YA$$QAPAU_Container_base12@0@AAPAU10@@Z PROC ; std::forward<std::_Container_base12 *>, COMDAT

; 1385 :     remove_reference_t<_Ty>& _Arg) noexcept { // forward an lvalue as either an lvalue or an rvalue

  00000	55		 push	 ebp
  00001	8b ec		 mov	 ebp, esp
  00003	81 ec c0 00 00
	00		 sub	 esp, 192		; 000000c0H
  00009	53		 push	 ebx
  0000a	56		 push	 esi
  0000b	57		 push	 edi
  0000c	8b fd		 mov	 edi, ebp
  0000e	33 c9		 xor	 ecx, ecx
  00010	b8 cc cc cc cc	 mov	 eax, -858993460		; ccccccccH
  00015	f3 ab		 rep stosd
  00017	b9 00 00 00 00	 mov	 ecx, OFFSET __589FA321_type_traits
  0001c	e8 00 00 00 00	 call	 @__CheckForDebuggerJustMyCode@4

; 1386 :     return static_cast<_Ty&&>(_Arg);

  00021	8b 45 08	 mov	 eax, DWORD PTR __Arg$[ebp]

; 1387 : }

  00024	5f		 pop	 edi
  00025	5e		 pop	 esi
  00026	5b		 pop	 ebx
  00027	81 c4 c0 00 00
	00		 add	 esp, 192		; 000000c0H
  0002d	3b ec		 cmp	 ebp, esp
  0002f	e8 00 00 00 00	 call	 __RTC_CheckEsp
  00034	8b e5		 mov	 esp, ebp
  00036	5d		 pop	 ebp
  00037	c3		 ret	 0
??$forward@PAU_Container_base12@std@@@std@@YA$$QAPAU_Container_base12@0@AAPAU10@@Z ENDP ; std::forward<std::_Container_base12 *>
_TEXT	ENDS
; Function compile flags: /Odtp /RTCsu /ZI
; File C:\Program Files (x86)\Microsoft Visual Studio\2019\Community\VC\Tools\MSVC\14.29.30133\include\xutility
;	COMDAT ??$_Voidify_iter@PAU_Container_proxy@std@@@std@@YAPAXPAU_Container_proxy@0@@Z
_TEXT	SEGMENT
__It$ = 8						; size = 4
??$_Voidify_iter@PAU_Container_proxy@std@@@std@@YAPAXPAU_Container_proxy@0@@Z PROC ; std::_Voidify_iter<std::_Container_proxy *>, COMDAT

; 123  : _NODISCARD constexpr void* _Voidify_iter(_Iter _It) noexcept {

  00000	55		 push	 ebp
  00001	8b ec		 mov	 ebp, esp
  00003	81 ec c0 00 00
	00		 sub	 esp, 192		; 000000c0H
  00009	53		 push	 ebx
  0000a	56		 push	 esi
  0000b	57		 push	 edi
  0000c	8b fd		 mov	 edi, ebp
  0000e	33 c9		 xor	 ecx, ecx
  00010	b8 cc cc cc cc	 mov	 eax, -858993460		; ccccccccH
  00015	f3 ab		 rep stosd
  00017	b9 00 00 00 00	 mov	 ecx, OFFSET __12269DE6_xutility
  0001c	e8 00 00 00 00	 call	 @__CheckForDebuggerJustMyCode@4

; 124  :     if constexpr (is_pointer_v<_Iter>) {
; 125  :         return const_cast<void*>(static_cast<const volatile void*>(_It));

  00021	8b 45 08	 mov	 eax, DWORD PTR __It$[ebp]

; 126  :     } else {
; 127  :         return const_cast<void*>(static_cast<const volatile void*>(_STD addressof(*_It)));
; 128  :     }
; 129  : }

  00024	5f		 pop	 edi
  00025	5e		 pop	 esi
  00026	5b		 pop	 ebx
  00027	81 c4 c0 00 00
	00		 add	 esp, 192		; 000000c0H
  0002d	3b ec		 cmp	 ebp, esp
  0002f	e8 00 00 00 00	 call	 __RTC_CheckEsp
  00034	8b e5		 mov	 esp, ebp
  00036	5d		 pop	 ebp
  00037	c3		 ret	 0
??$_Voidify_iter@PAU_Container_proxy@std@@@std@@YAPAXPAU_Container_proxy@0@@Z ENDP ; std::_Voidify_iter<std::_Container_proxy *>
_TEXT	ENDS
; Function compile flags: /Odtp /RTCsu /ZI
; File C:\Program Files (x86)\Microsoft Visual Studio\2019\Community\VC\Tools\MSVC\14.29.30133\include\xstddef
;	COMDAT ??$addressof@U_Container_proxy@std@@@std@@YAPAU_Container_proxy@0@AAU10@@Z
_TEXT	SEGMENT
__Val$ = 8						; size = 4
??$addressof@U_Container_proxy@std@@@std@@YAPAU_Container_proxy@0@AAU10@@Z PROC ; std::addressof<std::_Container_proxy>, COMDAT

; 252  : _NODISCARD constexpr _Ty* addressof(_Ty& _Val) noexcept {

  00000	55		 push	 ebp
  00001	8b ec		 mov	 ebp, esp
  00003	81 ec c0 00 00
	00		 sub	 esp, 192		; 000000c0H
  00009	53		 push	 ebx
  0000a	56		 push	 esi
  0000b	57		 push	 edi
  0000c	8b fd		 mov	 edi, ebp
  0000e	33 c9		 xor	 ecx, ecx
  00010	b8 cc cc cc cc	 mov	 eax, -858993460		; ccccccccH
  00015	f3 ab		 rep stosd
  00017	b9 00 00 00 00	 mov	 ecx, OFFSET __E458E21C_xstddef
  0001c	e8 00 00 00 00	 call	 @__CheckForDebuggerJustMyCode@4

; 253  :     return __builtin_addressof(_Val);

  00021	8b 45 08	 mov	 eax, DWORD PTR __Val$[ebp]

; 254  : }

  00024	5f		 pop	 edi
  00025	5e		 pop	 esi
  00026	5b		 pop	 ebx
  00027	81 c4 c0 00 00
	00		 add	 esp, 192		; 000000c0H
  0002d	3b ec		 cmp	 ebp, esp
  0002f	e8 00 00 00 00	 call	 __RTC_CheckEsp
  00034	8b e5		 mov	 esp, ebp
  00036	5d		 pop	 ebp
  00037	c3		 ret	 0
??$addressof@U_Container_proxy@std@@@std@@YAPAU_Container_proxy@0@AAU10@@Z ENDP ; std::addressof<std::_Container_proxy>
_TEXT	ENDS
; Function compile flags: /Odtp /RTCsu /ZI
; File C:\Program Files (x86)\Microsoft Visual Studio\2019\Community\VC\Tools\MSVC\14.29.30133\include\xmemory
;	COMDAT ??$_Pocma@V?$allocator@D@std@@@std@@YAXAAV?$allocator@D@0@0@Z
_TEXT	SEGMENT
__Left$ = 8						; size = 4
__Right$ = 12						; size = 4
??$_Pocma@V?$allocator@D@std@@@std@@YAXAAV?$allocator@D@0@0@Z PROC ; std::_Pocma<std::allocator<char> >, COMDAT

; 883  : _CONSTEXPR20 void _Pocma(_Alloc& _Left, _Alloc& _Right) noexcept { // (maybe) propagate on container move assignment

  00000	55		 push	 ebp
  00001	8b ec		 mov	 ebp, esp
  00003	81 ec c0 00 00
	00		 sub	 esp, 192		; 000000c0H
  00009	53		 push	 ebx
  0000a	56		 push	 esi
  0000b	57		 push	 edi
  0000c	8b fd		 mov	 edi, ebp
  0000e	33 c9		 xor	 ecx, ecx
  00010	b8 cc cc cc cc	 mov	 eax, -858993460		; ccccccccH
  00015	f3 ab		 rep stosd
  00017	b9 00 00 00 00	 mov	 ecx, OFFSET __79D216CD_xmemory
  0001c	e8 00 00 00 00	 call	 @__CheckForDebuggerJustMyCode@4

; 884  :     if constexpr (allocator_traits<_Alloc>::propagate_on_container_move_assignment::value) {
; 885  :         _Left = _STD move(_Right);

  00021	8b 45 0c	 mov	 eax, DWORD PTR __Right$[ebp]
  00024	50		 push	 eax
  00025	e8 00 00 00 00	 call	 ??$move@AAV?$allocator@D@std@@@std@@YA$$QAV?$allocator@D@0@AAV10@@Z ; std::move<std::allocator<char> &>
  0002a	83 c4 04	 add	 esp, 4

; 886  :     }
; 887  : }

  0002d	5f		 pop	 edi
  0002e	5e		 pop	 esi
  0002f	5b		 pop	 ebx
  00030	81 c4 c0 00 00
	00		 add	 esp, 192		; 000000c0H
  00036	3b ec		 cmp	 ebp, esp
  00038	e8 00 00 00 00	 call	 __RTC_CheckEsp
  0003d	8b e5		 mov	 esp, ebp
  0003f	5d		 pop	 ebp
  00040	c3		 ret	 0
??$_Pocma@V?$allocator@D@std@@@std@@YAXAAV?$allocator@D@0@0@Z ENDP ; std::_Pocma<std::allocator<char> >
_TEXT	ENDS
; Function compile flags: /Odtp /RTCsu /ZI
; File C:\Program Files (x86)\Microsoft Visual Studio\2019\Community\VC\Tools\MSVC\14.29.30133\include\xmemory
;	COMDAT ??$_Get_size_of_n@$00@std@@YAII@Z
_TEXT	SEGMENT
__Overflow_is_possible$ = -5				; size = 1
__Count$ = 8						; size = 4
??$_Get_size_of_n@$00@std@@YAII@Z PROC			; std::_Get_size_of_n<1>, COMDAT

; 55   : _NODISCARD constexpr size_t _Get_size_of_n(const size_t _Count) {

  00000	55		 push	 ebp
  00001	8b ec		 mov	 ebp, esp
  00003	81 ec cc 00 00
	00		 sub	 esp, 204		; 000000ccH
  00009	53		 push	 ebx
  0000a	56		 push	 esi
  0000b	57		 push	 edi
  0000c	8d 7d f4	 lea	 edi, DWORD PTR [ebp-12]
  0000f	b9 03 00 00 00	 mov	 ecx, 3
  00014	b8 cc cc cc cc	 mov	 eax, -858993460		; ccccccccH
  00019	f3 ab		 rep stosd
  0001b	b9 00 00 00 00	 mov	 ecx, OFFSET __79D216CD_xmemory
  00020	e8 00 00 00 00	 call	 @__CheckForDebuggerJustMyCode@4

; 56   :     constexpr bool _Overflow_is_possible = _Ty_size > 1;

  00025	c6 45 fb 00	 mov	 BYTE PTR __Overflow_is_possible$[ebp], 0

; 57   : 
; 58   :     if constexpr (_Overflow_is_possible) {
; 59   :         constexpr size_t _Max_possible = static_cast<size_t>(-1) / _Ty_size;
; 60   :         if (_Count > _Max_possible) {
; 61   :             _Throw_bad_array_new_length(); // multiply overflow
; 62   :         }
; 63   :     }
; 64   : 
; 65   :     return _Count * _Ty_size;

  00029	8b 45 08	 mov	 eax, DWORD PTR __Count$[ebp]

; 66   : }

  0002c	5f		 pop	 edi
  0002d	5e		 pop	 esi
  0002e	5b		 pop	 ebx
  0002f	81 c4 cc 00 00
	00		 add	 esp, 204		; 000000ccH
  00035	3b ec		 cmp	 ebp, esp
  00037	e8 00 00 00 00	 call	 __RTC_CheckEsp
  0003c	8b e5		 mov	 esp, ebp
  0003e	5d		 pop	 ebp
  0003f	c3		 ret	 0
??$_Get_size_of_n@$00@std@@YAII@Z ENDP			; std::_Get_size_of_n<1>
_TEXT	ENDS
; Function compile flags: /Odtp /RTCsu /ZI
; File C:\Program Files (x86)\Microsoft Visual Studio\2019\Community\VC\Tools\MSVC\14.29.30133\include\xstddef
;	COMDAT ??$addressof@V?$basic_string@DU?$char_traits@D@std@@V?$allocator@D@2@@std@@@std@@YAPAV?$basic_string@DU?$char_traits@D@std@@V?$allocator@D@2@@0@AAV10@@Z
_TEXT	SEGMENT
__Val$ = 8						; size = 4
??$addressof@V?$basic_string@DU?$char_traits@D@std@@V?$allocator@D@2@@std@@@std@@YAPAV?$basic_string@DU?$char_traits@D@std@@V?$allocator@D@2@@0@AAV10@@Z PROC ; std::addressof<std::basic_string<char,std::char_traits<char>,std::allocator<char> > >, COMDAT

; 252  : _NODISCARD constexpr _Ty* addressof(_Ty& _Val) noexcept {

  00000	55		 push	 ebp
  00001	8b ec		 mov	 ebp, esp
  00003	81 ec c0 00 00
	00		 sub	 esp, 192		; 000000c0H
  00009	53		 push	 ebx
  0000a	56		 push	 esi
  0000b	57		 push	 edi
  0000c	8b fd		 mov	 edi, ebp
  0000e	33 c9		 xor	 ecx, ecx
  00010	b8 cc cc cc cc	 mov	 eax, -858993460		; ccccccccH
  00015	f3 ab		 rep stosd
  00017	b9 00 00 00 00	 mov	 ecx, OFFSET __E458E21C_xstddef
  0001c	e8 00 00 00 00	 call	 @__CheckForDebuggerJustMyCode@4

; 253  :     return __builtin_addressof(_Val);

  00021	8b 45 08	 mov	 eax, DWORD PTR __Val$[ebp]

; 254  : }

  00024	5f		 pop	 edi
  00025	5e		 pop	 esi
  00026	5b		 pop	 ebx
  00027	81 c4 c0 00 00
	00		 add	 esp, 192		; 000000c0H
  0002d	3b ec		 cmp	 ebp, esp
  0002f	e8 00 00 00 00	 call	 __RTC_CheckEsp
  00034	8b e5		 mov	 esp, ebp
  00036	5d		 pop	 ebp
  00037	c3		 ret	 0
??$addressof@V?$basic_string@DU?$char_traits@D@std@@V?$allocator@D@2@@std@@@std@@YAPAV?$basic_string@DU?$char_traits@D@std@@V?$allocator@D@2@@0@AAV10@@Z ENDP ; std::addressof<std::basic_string<char,std::char_traits<char>,std::allocator<char> > >
_TEXT	ENDS
; Function compile flags: /Odtp /RTCsu /ZI
; File C:\Program Files (x86)\Microsoft Visual Studio\2019\Community\VC\Tools\MSVC\14.29.30133\include\xstddef
;	COMDAT ??$addressof@$$CBV?$_String_val@U?$_Simple_types@D@std@@@std@@@std@@YAPBV?$_String_val@U?$_Simple_types@D@std@@@0@ABV10@@Z
_TEXT	SEGMENT
__Val$ = 8						; size = 4
??$addressof@$$CBV?$_String_val@U?$_Simple_types@D@std@@@std@@@std@@YAPBV?$_String_val@U?$_Simple_types@D@std@@@0@ABV10@@Z PROC ; std::addressof<std::_String_val<std::_Simple_types<char> > const >, COMDAT

; 252  : _NODISCARD constexpr _Ty* addressof(_Ty& _Val) noexcept {

  00000	55		 push	 ebp
  00001	8b ec		 mov	 ebp, esp
  00003	81 ec c0 00 00
	00		 sub	 esp, 192		; 000000c0H
  00009	53		 push	 ebx
  0000a	56		 push	 esi
  0000b	57		 push	 edi
  0000c	8b fd		 mov	 edi, ebp
  0000e	33 c9		 xor	 ecx, ecx
  00010	b8 cc cc cc cc	 mov	 eax, -858993460		; ccccccccH
  00015	f3 ab		 rep stosd
  00017	b9 00 00 00 00	 mov	 ecx, OFFSET __E458E21C_xstddef
  0001c	e8 00 00 00 00	 call	 @__CheckForDebuggerJustMyCode@4

; 253  :     return __builtin_addressof(_Val);

  00021	8b 45 08	 mov	 eax, DWORD PTR __Val$[ebp]

; 254  : }

  00024	5f		 pop	 edi
  00025	5e		 pop	 esi
  00026	5b		 pop	 ebx
  00027	81 c4 c0 00 00
	00		 add	 esp, 192		; 000000c0H
  0002d	3b ec		 cmp	 ebp, esp
  0002f	e8 00 00 00 00	 call	 __RTC_CheckEsp
  00034	8b e5		 mov	 esp, ebp
  00036	5d		 pop	 ebp
  00037	c3		 ret	 0
??$addressof@$$CBV?$_String_val@U?$_Simple_types@D@std@@@std@@@std@@YAPBV?$_String_val@U?$_Simple_types@D@std@@@0@ABV10@@Z ENDP ; std::addressof<std::_String_val<std::_Simple_types<char> > const >
_TEXT	ENDS
; Function compile flags: /Odtp /RTCsu /ZI
; File C:\Program Files (x86)\Microsoft Visual Studio\2019\Community\VC\Tools\MSVC\14.29.30133\include\xstddef
;	COMDAT ??$addressof@V?$_String_val@U?$_Simple_types@D@std@@@std@@@std@@YAPAV?$_String_val@U?$_Simple_types@D@std@@@0@AAV10@@Z
_TEXT	SEGMENT
__Val$ = 8						; size = 4
??$addressof@V?$_String_val@U?$_Simple_types@D@std@@@std@@@std@@YAPAV?$_String_val@U?$_Simple_types@D@std@@@0@AAV10@@Z PROC ; std::addressof<std::_String_val<std::_Simple_types<char> > >, COMDAT

; 252  : _NODISCARD constexpr _Ty* addressof(_Ty& _Val) noexcept {

  00000	55		 push	 ebp
  00001	8b ec		 mov	 ebp, esp
  00003	81 ec c0 00 00
	00		 sub	 esp, 192		; 000000c0H
  00009	53		 push	 ebx
  0000a	56		 push	 esi
  0000b	57		 push	 edi
  0000c	8b fd		 mov	 edi, ebp
  0000e	33 c9		 xor	 ecx, ecx
  00010	b8 cc cc cc cc	 mov	 eax, -858993460		; ccccccccH
  00015	f3 ab		 rep stosd
  00017	b9 00 00 00 00	 mov	 ecx, OFFSET __E458E21C_xstddef
  0001c	e8 00 00 00 00	 call	 @__CheckForDebuggerJustMyCode@4

; 253  :     return __builtin_addressof(_Val);

  00021	8b 45 08	 mov	 eax, DWORD PTR __Val$[ebp]

; 254  : }

  00024	5f		 pop	 edi
  00025	5e		 pop	 esi
  00026	5b		 pop	 ebx
  00027	81 c4 c0 00 00
	00		 add	 esp, 192		; 000000c0H
  0002d	3b ec		 cmp	 ebp, esp
  0002f	e8 00 00 00 00	 call	 __RTC_CheckEsp
  00034	8b e5		 mov	 esp, ebp
  00036	5d		 pop	 ebp
  00037	c3		 ret	 0
??$addressof@V?$_String_val@U?$_Simple_types@D@std@@@std@@@std@@YAPAV?$_String_val@U?$_Simple_types@D@std@@@0@AAV10@@Z ENDP ; std::addressof<std::_String_val<std::_Simple_types<char> > >
_TEXT	ENDS
; Function compile flags: /Odtp /RTCsu /ZI
; File C:\Program Files (x86)\Microsoft Visual Studio\2019\Community\VC\Tools\MSVC\14.29.30133\include\xmemory
;	COMDAT ??$_Deallocate@$07$0A@@std@@YAXPAXI@Z
_TEXT	SEGMENT
__$EHRec$ = -12						; size = 12
__Ptr$ = 8						; size = 4
__Bytes$ = 12						; size = 4
??$_Deallocate@$07$0A@@std@@YAXPAXI@Z PROC		; std::_Deallocate<8,0>, COMDAT

; 242  : _CONSTEXPR20_DYNALLOC void _Deallocate(void* _Ptr, size_t _Bytes) noexcept {

  00000	55		 push	 ebp
  00001	8b ec		 mov	 ebp, esp
  00003	6a ff		 push	 -1
  00005	68 00 00 00 00	 push	 __ehhandler$??$_Deallocate@$07$0A@@std@@YAXPAXI@Z
  0000a	64 a1 00 00 00
	00		 mov	 eax, DWORD PTR fs:0
  00010	50		 push	 eax
  00011	81 ec c0 00 00
	00		 sub	 esp, 192		; 000000c0H
  00017	53		 push	 ebx
  00018	56		 push	 esi
  00019	57		 push	 edi
  0001a	8d 7d f4	 lea	 edi, DWORD PTR [ebp-12]
  0001d	33 c9		 xor	 ecx, ecx
  0001f	b8 cc cc cc cc	 mov	 eax, -858993460		; ccccccccH
  00024	f3 ab		 rep stosd
  00026	a1 00 00 00 00	 mov	 eax, DWORD PTR ___security_cookie
  0002b	33 c5		 xor	 eax, ebp
  0002d	50		 push	 eax
  0002e	8d 45 f4	 lea	 eax, DWORD PTR __$EHRec$[ebp]
  00031	64 a3 00 00 00
	00		 mov	 DWORD PTR fs:0, eax
  00037	b9 00 00 00 00	 mov	 ecx, OFFSET __79D216CD_xmemory
  0003c	e8 00 00 00 00	 call	 @__CheckForDebuggerJustMyCode@4

; 243  :     // deallocate storage allocated by _Allocate when !_HAS_ALIGNED_NEW || _Align <= __STDCPP_DEFAULT_NEW_ALIGNMENT__
; 244  : #ifdef __cpp_lib_constexpr_dynamic_alloc // TRANSITION, GH-1532
; 245  :     if (_STD is_constant_evaluated()) {
; 246  :         ::operator delete(_Ptr);
; 247  :     } else
; 248  : #endif // __cpp_lib_constexpr_dynamic_alloc
; 249  :     {
; 250  : #if defined(_M_IX86) || defined(_M_X64)
; 251  :         if (_Bytes >= _Big_allocation_threshold) { // boost the alignment of big allocations to help autovectorization

  00041	81 7d 0c 00 10
	00 00		 cmp	 DWORD PTR __Bytes$[ebp], 4096 ; 00001000H
  00048	72 10		 jb	 SHORT $LN2@Deallocate

; 252  :             _Adjust_manually_vector_aligned(_Ptr, _Bytes);

  0004a	8d 45 0c	 lea	 eax, DWORD PTR __Bytes$[ebp]
  0004d	50		 push	 eax
  0004e	8d 4d 08	 lea	 ecx, DWORD PTR __Ptr$[ebp]
  00051	51		 push	 ecx
  00052	e8 00 00 00 00	 call	 ?_Adjust_manually_vector_aligned@std@@YAXAAPAXAAI@Z ; std::_Adjust_manually_vector_aligned
  00057	83 c4 08	 add	 esp, 8
$LN2@Deallocate:

; 253  :         }
; 254  : #endif // defined(_M_IX86) || defined(_M_X64)
; 255  :         ::operator delete(_Ptr, _Bytes);

  0005a	8b 45 0c	 mov	 eax, DWORD PTR __Bytes$[ebp]
  0005d	50		 push	 eax
  0005e	8b 4d 08	 mov	 ecx, DWORD PTR __Ptr$[ebp]
  00061	51		 push	 ecx
  00062	e8 00 00 00 00	 call	 ??3@YAXPAXI@Z		; operator delete
  00067	83 c4 08	 add	 esp, 8

; 256  :     }
; 257  : }

  0006a	8b 4d f4	 mov	 ecx, DWORD PTR __$EHRec$[ebp]
  0006d	64 89 0d 00 00
	00 00		 mov	 DWORD PTR fs:0, ecx
  00074	59		 pop	 ecx
  00075	5f		 pop	 edi
  00076	5e		 pop	 esi
  00077	5b		 pop	 ebx
  00078	81 c4 cc 00 00
	00		 add	 esp, 204		; 000000ccH
  0007e	3b ec		 cmp	 ebp, esp
  00080	e8 00 00 00 00	 call	 __RTC_CheckEsp
  00085	8b e5		 mov	 esp, ebp
  00087	5d		 pop	 ebp
  00088	c3		 ret	 0
  00089	cc		 int	 3
  0008a	cc		 int	 3
  0008b	cc		 int	 3
  0008c	cc		 int	 3
  0008d	cc		 int	 3
_TEXT	ENDS
;	COMDAT text$x
text$x	SEGMENT
__ehhandler$??$_Deallocate@$07$0A@@std@@YAXPAXI@Z:
  00000	90		 npad	 1
  00001	90		 npad	 1
  00002	8b 54 24 08	 mov	 edx, DWORD PTR [esp+8]
  00006	8d 42 0c	 lea	 eax, DWORD PTR [edx+12]
  00009	8b 8a 30 ff ff
	ff		 mov	 ecx, DWORD PTR [edx-208]
  0000f	33 c8		 xor	 ecx, eax
  00011	e8 00 00 00 00	 call	 @__security_check_cookie@4
  00016	b8 00 00 00 00	 mov	 eax, OFFSET __ehfuncinfo$??$_Deallocate@$07$0A@@std@@YAXPAXI@Z
  0001b	e9 00 00 00 00	 jmp	 ___CxxFrameHandler3
text$x	ENDS
??$_Deallocate@$07$0A@@std@@YAXPAXI@Z ENDP		; std::_Deallocate<8,0>
; Function compile flags: /Odtp /RTCsu /ZI
; File C:\Program Files (x86)\Microsoft Visual Studio\2019\Community\VC\Tools\MSVC\14.29.30133\include\xmemory
;	COMDAT ??$_Allocate@$07U_Default_allocate_traits@std@@$0A@@std@@YAPAXI@Z
_TEXT	SEGMENT
__Bytes$ = 8						; size = 4
??$_Allocate@$07U_Default_allocate_traits@std@@$0A@@std@@YAPAXI@Z PROC ; std::_Allocate<8,std::_Default_allocate_traits,0>, COMDAT

; 221  : __declspec(allocator) _CONSTEXPR20_DYNALLOC void* _Allocate(const size_t _Bytes) {

  00000	55		 push	 ebp
  00001	8b ec		 mov	 ebp, esp
  00003	81 ec c0 00 00
	00		 sub	 esp, 192		; 000000c0H
  00009	53		 push	 ebx
  0000a	56		 push	 esi
  0000b	57		 push	 edi
  0000c	8b fd		 mov	 edi, ebp
  0000e	33 c9		 xor	 ecx, ecx
  00010	b8 cc cc cc cc	 mov	 eax, -858993460		; ccccccccH
  00015	f3 ab		 rep stosd
  00017	b9 00 00 00 00	 mov	 ecx, OFFSET __79D216CD_xmemory
  0001c	e8 00 00 00 00	 call	 @__CheckForDebuggerJustMyCode@4

; 222  :     // allocate _Bytes when !_HAS_ALIGNED_NEW || _Align <= __STDCPP_DEFAULT_NEW_ALIGNMENT__
; 223  : #if defined(_M_IX86) || defined(_M_X64)
; 224  : #ifdef __cpp_lib_constexpr_dynamic_alloc // TRANSITION, GH-1532
; 225  :     if (!_STD is_constant_evaluated())
; 226  : #endif // __cpp_lib_constexpr_dynamic_alloc
; 227  :     {
; 228  :         if (_Bytes >= _Big_allocation_threshold) { // boost the alignment of big allocations to help autovectorization

  00021	81 7d 08 00 10
	00 00		 cmp	 DWORD PTR __Bytes$[ebp], 4096 ; 00001000H
  00028	72 0e		 jb	 SHORT $LN2@Allocate

; 229  :             return _Allocate_manually_vector_aligned<_Traits>(_Bytes);

  0002a	8b 45 08	 mov	 eax, DWORD PTR __Bytes$[ebp]
  0002d	50		 push	 eax
  0002e	e8 00 00 00 00	 call	 ??$_Allocate_manually_vector_aligned@U_Default_allocate_traits@std@@@std@@YAPAXI@Z ; std::_Allocate_manually_vector_aligned<std::_Default_allocate_traits>
  00033	83 c4 04	 add	 esp, 4
  00036	eb 16		 jmp	 SHORT $LN1@Allocate
$LN2@Allocate:

; 230  :         }
; 231  :     }
; 232  : #endif // defined(_M_IX86) || defined(_M_X64)
; 233  : 
; 234  :     if (_Bytes != 0) {

  00038	83 7d 08 00	 cmp	 DWORD PTR __Bytes$[ebp], 0
  0003c	74 0e		 je	 SHORT $LN3@Allocate

; 235  :         return _Traits::_Allocate(_Bytes);

  0003e	8b 45 08	 mov	 eax, DWORD PTR __Bytes$[ebp]
  00041	50		 push	 eax
  00042	e8 00 00 00 00	 call	 ?_Allocate@_Default_allocate_traits@std@@SAPAXI@Z ; std::_Default_allocate_traits::_Allocate
  00047	83 c4 04	 add	 esp, 4
  0004a	eb 02		 jmp	 SHORT $LN1@Allocate
$LN3@Allocate:

; 236  :     }
; 237  : 
; 238  :     return nullptr;

  0004c	33 c0		 xor	 eax, eax
$LN1@Allocate:

; 239  : }

  0004e	5f		 pop	 edi
  0004f	5e		 pop	 esi
  00050	5b		 pop	 ebx
  00051	81 c4 c0 00 00
	00		 add	 esp, 192		; 000000c0H
  00057	3b ec		 cmp	 ebp, esp
  00059	e8 00 00 00 00	 call	 __RTC_CheckEsp
  0005e	8b e5		 mov	 esp, ebp
  00060	5d		 pop	 ebp
  00061	c3		 ret	 0
??$_Allocate@$07U_Default_allocate_traits@std@@$0A@@std@@YAPAXI@Z ENDP ; std::_Allocate<8,std::_Default_allocate_traits,0>
_TEXT	ENDS
; Function compile flags: /Odtp /RTCsu /ZI
; File C:\Program Files (x86)\Microsoft Visual Studio\2019\Community\VC\Tools\MSVC\14.29.30133\include\xmemory
;	COMDAT ??$_Get_size_of_n@$07@std@@YAII@Z
_TEXT	SEGMENT
__Max_possible$1 = -20					; size = 4
__Overflow_is_possible$ = -5				; size = 1
__Count$ = 8						; size = 4
??$_Get_size_of_n@$07@std@@YAII@Z PROC			; std::_Get_size_of_n<8>, COMDAT

; 55   : _NODISCARD constexpr size_t _Get_size_of_n(const size_t _Count) {

  00000	55		 push	 ebp
  00001	8b ec		 mov	 ebp, esp
  00003	81 ec d8 00 00
	00		 sub	 esp, 216		; 000000d8H
  00009	53		 push	 ebx
  0000a	56		 push	 esi
  0000b	57		 push	 edi
  0000c	8d 7d e8	 lea	 edi, DWORD PTR [ebp-24]
  0000f	b9 06 00 00 00	 mov	 ecx, 6
  00014	b8 cc cc cc cc	 mov	 eax, -858993460		; ccccccccH
  00019	f3 ab		 rep stosd
  0001b	b9 00 00 00 00	 mov	 ecx, OFFSET __79D216CD_xmemory
  00020	e8 00 00 00 00	 call	 @__CheckForDebuggerJustMyCode@4

; 56   :     constexpr bool _Overflow_is_possible = _Ty_size > 1;

  00025	c6 45 fb 01	 mov	 BYTE PTR __Overflow_is_possible$[ebp], 1

; 57   : 
; 58   :     if constexpr (_Overflow_is_possible) {
; 59   :         constexpr size_t _Max_possible = static_cast<size_t>(-1) / _Ty_size;

  00029	c7 45 ec ff ff
	ff 1f		 mov	 DWORD PTR __Max_possible$1[ebp], 536870911 ; 1fffffffH

; 60   :         if (_Count > _Max_possible) {

  00030	81 7d 08 ff ff
	ff 1f		 cmp	 DWORD PTR __Count$[ebp], 536870911 ; 1fffffffH
  00037	76 05		 jbe	 SHORT $LN2@Get_size_o

; 61   :             _Throw_bad_array_new_length(); // multiply overflow

  00039	e8 00 00 00 00	 call	 ?_Throw_bad_array_new_length@std@@YAXXZ ; std::_Throw_bad_array_new_length
$LN2@Get_size_o:

; 62   :         }
; 63   :     }
; 64   : 
; 65   :     return _Count * _Ty_size;

  0003e	8b 45 08	 mov	 eax, DWORD PTR __Count$[ebp]
  00041	c1 e0 03	 shl	 eax, 3
$LN3@Get_size_o:

; 66   : }

  00044	5f		 pop	 edi
  00045	5e		 pop	 esi
  00046	5b		 pop	 ebx
  00047	81 c4 d8 00 00
	00		 add	 esp, 216		; 000000d8H
  0004d	3b ec		 cmp	 ebp, esp
  0004f	e8 00 00 00 00	 call	 __RTC_CheckEsp
  00054	8b e5		 mov	 esp, ebp
  00056	5d		 pop	 ebp
  00057	c3		 ret	 0
??$_Get_size_of_n@$07@std@@YAII@Z ENDP			; std::_Get_size_of_n<8>
_TEXT	ENDS
; Function compile flags: /Odtp /RTCsu /ZI
; File C:\Program Files (x86)\Microsoft Visual Studio\2019\Community\VC\Tools\MSVC\14.29.30133\include\utility
;	COMDAT ??$max@I@std@@YAABIABI0@Z
_TEXT	SEGMENT
tv65 = -208						; size = 4
$T1 = -200						; size = 4
__Left$ = 8						; size = 4
__Right$ = 12						; size = 4
??$max@I@std@@YAABIABI0@Z PROC				; std::max<unsigned int>, COMDAT

; 41   :     const _Ty& _Left, const _Ty& _Right) noexcept(noexcept(_Left < _Right)) /* strengthened */ {

  00000	55		 push	 ebp
  00001	8b ec		 mov	 ebp, esp
  00003	81 ec d0 00 00
	00		 sub	 esp, 208		; 000000d0H
  00009	53		 push	 ebx
  0000a	56		 push	 esi
  0000b	57		 push	 edi
  0000c	8d 7d f0	 lea	 edi, DWORD PTR [ebp-16]
  0000f	b9 04 00 00 00	 mov	 ecx, 4
  00014	b8 cc cc cc cc	 mov	 eax, -858993460		; ccccccccH
  00019	f3 ab		 rep stosd
  0001b	b9 00 00 00 00	 mov	 ecx, OFFSET __1347750E_utility
  00020	e8 00 00 00 00	 call	 @__CheckForDebuggerJustMyCode@4

; 42   :     // return larger of _Left and _Right
; 43   :     return _Left < _Right ? _Right : _Left;

  00025	8b 45 08	 mov	 eax, DWORD PTR __Left$[ebp]
  00028	8b 4d 0c	 mov	 ecx, DWORD PTR __Right$[ebp]
  0002b	8b 10		 mov	 edx, DWORD PTR [eax]
  0002d	3b 11		 cmp	 edx, DWORD PTR [ecx]
  0002f	73 0b		 jae	 SHORT $LN3@max
  00031	8b 45 0c	 mov	 eax, DWORD PTR __Right$[ebp]
  00034	89 85 30 ff ff
	ff		 mov	 DWORD PTR tv65[ebp], eax
  0003a	eb 09		 jmp	 SHORT $LN4@max
$LN3@max:
  0003c	8b 4d 08	 mov	 ecx, DWORD PTR __Left$[ebp]
  0003f	89 8d 30 ff ff
	ff		 mov	 DWORD PTR tv65[ebp], ecx
$LN4@max:
  00045	8b 95 30 ff ff
	ff		 mov	 edx, DWORD PTR tv65[ebp]
  0004b	89 95 38 ff ff
	ff		 mov	 DWORD PTR $T1[ebp], edx
  00051	8b 85 38 ff ff
	ff		 mov	 eax, DWORD PTR $T1[ebp]

; 44   : }

  00057	5f		 pop	 edi
  00058	5e		 pop	 esi
  00059	5b		 pop	 ebx
  0005a	81 c4 d0 00 00
	00		 add	 esp, 208		; 000000d0H
  00060	3b ec		 cmp	 ebp, esp
  00062	e8 00 00 00 00	 call	 __RTC_CheckEsp
  00067	8b e5		 mov	 esp, ebp
  00069	5d		 pop	 ebp
  0006a	c3		 ret	 0
??$max@I@std@@YAABIABI0@Z ENDP				; std::max<unsigned int>
_TEXT	ENDS
; Function compile flags: /Odtp /RTCsu /ZI
; File C:\Program Files (x86)\Microsoft Visual Studio\2019\Community\VC\Tools\MSVC\14.29.30133\include\xutility
;	COMDAT ??$_Construct_in_place@PADAAPAD@std@@YAXAAPAD0@Z
_TEXT	SEGMENT
$T1 = -200						; size = 4
__Obj$ = 8						; size = 4
_<_Args_0>$ = 12					; size = 4
??$_Construct_in_place@PADAAPAD@std@@YAXAAPAD0@Z PROC	; std::_Construct_in_place<char *,char * &>, COMDAT

; 142  :     is_nothrow_constructible_v<_Ty, _Types...>) {

  00000	55		 push	 ebp
  00001	8b ec		 mov	 ebp, esp
  00003	81 ec cc 00 00
	00		 sub	 esp, 204		; 000000ccH
  00009	53		 push	 ebx
  0000a	56		 push	 esi
  0000b	57		 push	 edi
  0000c	8d 7d f4	 lea	 edi, DWORD PTR [ebp-12]
  0000f	b9 03 00 00 00	 mov	 ecx, 3
  00014	b8 cc cc cc cc	 mov	 eax, -858993460		; ccccccccH
  00019	f3 ab		 rep stosd
  0001b	b9 00 00 00 00	 mov	 ecx, OFFSET __12269DE6_xutility
  00020	e8 00 00 00 00	 call	 @__CheckForDebuggerJustMyCode@4
  00025	8b 45 08	 mov	 eax, DWORD PTR __Obj$[ebp]
  00028	50		 push	 eax
  00029	e8 00 00 00 00	 call	 ??$addressof@PAD@std@@YAPAPADAAPAD@Z ; std::addressof<char *>
  0002e	83 c4 04	 add	 esp, 4
  00031	50		 push	 eax
  00032	e8 00 00 00 00	 call	 ??$_Voidify_iter@PAPAD@std@@YAPAXPAPAD@Z ; std::_Voidify_iter<char * *>
  00037	83 c4 04	 add	 esp, 4
  0003a	50		 push	 eax
  0003b	6a 04		 push	 4
  0003d	e8 00 00 00 00	 call	 ??2@YAPAXIPAX@Z		; operator new
  00042	83 c4 08	 add	 esp, 8
  00045	89 85 38 ff ff
	ff		 mov	 DWORD PTR $T1[ebp], eax
  0004b	8b 4d 0c	 mov	 ecx, DWORD PTR _<_Args_0>$[ebp]
  0004e	51		 push	 ecx
  0004f	e8 00 00 00 00	 call	 ??$forward@AAPAD@std@@YAAAPADAAPAD@Z ; std::forward<char * &>
  00054	83 c4 04	 add	 esp, 4
  00057	8b 95 38 ff ff
	ff		 mov	 edx, DWORD PTR $T1[ebp]
  0005d	8b 00		 mov	 eax, DWORD PTR [eax]
  0005f	89 02		 mov	 DWORD PTR [edx], eax

; 143  : #ifdef __cpp_lib_constexpr_dynamic_alloc
; 144  :     if (_STD is_constant_evaluated()) {
; 145  :         _STD construct_at(_STD addressof(_Obj), _STD forward<_Types>(_Args)...);
; 146  :     } else
; 147  : #endif // __cpp_lib_constexpr_dynamic_alloc
; 148  :     {
; 149  :         ::new (_Voidify_iter(_STD addressof(_Obj))) _Ty(_STD forward<_Types>(_Args)...);
; 150  :     }
; 151  : }

  00061	5f		 pop	 edi
  00062	5e		 pop	 esi
  00063	5b		 pop	 ebx
  00064	81 c4 cc 00 00
	00		 add	 esp, 204		; 000000ccH
  0006a	3b ec		 cmp	 ebp, esp
  0006c	e8 00 00 00 00	 call	 __RTC_CheckEsp
  00071	8b e5		 mov	 esp, ebp
  00073	5d		 pop	 ebp
  00074	c3		 ret	 0
??$_Construct_in_place@PADAAPAD@std@@YAXAAPAD0@Z ENDP	; std::_Construct_in_place<char *,char * &>
_TEXT	ENDS
; Function compile flags: /Odtp /RTCsu /ZI
; File C:\Program Files (x86)\Microsoft Visual Studio\2019\Community\VC\Tools\MSVC\14.29.30133\include\xstddef
;	COMDAT ??$_Unfancy@D@std@@YAPADPAD@Z
_TEXT	SEGMENT
__Ptr$ = 8						; size = 4
??$_Unfancy@D@std@@YAPADPAD@Z PROC			; std::_Unfancy<char>, COMDAT

; 265  : _NODISCARD constexpr _Ty* _Unfancy(_Ty* _Ptr) noexcept { // do nothing for plain pointers

  00000	55		 push	 ebp
  00001	8b ec		 mov	 ebp, esp
  00003	81 ec c0 00 00
	00		 sub	 esp, 192		; 000000c0H
  00009	53		 push	 ebx
  0000a	56		 push	 esi
  0000b	57		 push	 edi
  0000c	8b fd		 mov	 edi, ebp
  0000e	33 c9		 xor	 ecx, ecx
  00010	b8 cc cc cc cc	 mov	 eax, -858993460		; ccccccccH
  00015	f3 ab		 rep stosd
  00017	b9 00 00 00 00	 mov	 ecx, OFFSET __E458E21C_xstddef
  0001c	e8 00 00 00 00	 call	 @__CheckForDebuggerJustMyCode@4

; 266  :     return _Ptr;

  00021	8b 45 08	 mov	 eax, DWORD PTR __Ptr$[ebp]

; 267  : }

  00024	5f		 pop	 edi
  00025	5e		 pop	 esi
  00026	5b		 pop	 ebx
  00027	81 c4 c0 00 00
	00		 add	 esp, 192		; 000000c0H
  0002d	3b ec		 cmp	 ebp, esp
  0002f	e8 00 00 00 00	 call	 __RTC_CheckEsp
  00034	8b e5		 mov	 esp, ebp
  00036	5d		 pop	 ebp
  00037	c3		 ret	 0
??$_Unfancy@D@std@@YAPADPAD@Z ENDP			; std::_Unfancy<char>
_TEXT	ENDS
; Function compile flags: /Odtp /RTCsu /ZI
; File C:\Program Files (x86)\Microsoft Visual Studio\2019\Community\VC\Tools\MSVC\14.29.30133\include\xutility
;	COMDAT ??$_Construct_in_place@PADABQAD@std@@YAXAAPADABQAD@Z
_TEXT	SEGMENT
$T1 = -200						; size = 4
__Obj$ = 8						; size = 4
_<_Args_0>$ = 12					; size = 4
??$_Construct_in_place@PADABQAD@std@@YAXAAPADABQAD@Z PROC ; std::_Construct_in_place<char *,char * const &>, COMDAT

; 142  :     is_nothrow_constructible_v<_Ty, _Types...>) {

  00000	55		 push	 ebp
  00001	8b ec		 mov	 ebp, esp
  00003	81 ec cc 00 00
	00		 sub	 esp, 204		; 000000ccH
  00009	53		 push	 ebx
  0000a	56		 push	 esi
  0000b	57		 push	 edi
  0000c	8d 7d f4	 lea	 edi, DWORD PTR [ebp-12]
  0000f	b9 03 00 00 00	 mov	 ecx, 3
  00014	b8 cc cc cc cc	 mov	 eax, -858993460		; ccccccccH
  00019	f3 ab		 rep stosd
  0001b	b9 00 00 00 00	 mov	 ecx, OFFSET __12269DE6_xutility
  00020	e8 00 00 00 00	 call	 @__CheckForDebuggerJustMyCode@4
  00025	8b 45 08	 mov	 eax, DWORD PTR __Obj$[ebp]
  00028	50		 push	 eax
  00029	e8 00 00 00 00	 call	 ??$addressof@PAD@std@@YAPAPADAAPAD@Z ; std::addressof<char *>
  0002e	83 c4 04	 add	 esp, 4
  00031	50		 push	 eax
  00032	e8 00 00 00 00	 call	 ??$_Voidify_iter@PAPAD@std@@YAPAXPAPAD@Z ; std::_Voidify_iter<char * *>
  00037	83 c4 04	 add	 esp, 4
  0003a	50		 push	 eax
  0003b	6a 04		 push	 4
  0003d	e8 00 00 00 00	 call	 ??2@YAPAXIPAX@Z		; operator new
  00042	83 c4 08	 add	 esp, 8
  00045	89 85 38 ff ff
	ff		 mov	 DWORD PTR $T1[ebp], eax
  0004b	8b 4d 0c	 mov	 ecx, DWORD PTR _<_Args_0>$[ebp]
  0004e	51		 push	 ecx
  0004f	e8 00 00 00 00	 call	 ??$forward@ABQAD@std@@YAABQADABQAD@Z ; std::forward<char * const &>
  00054	83 c4 04	 add	 esp, 4
  00057	8b 95 38 ff ff
	ff		 mov	 edx, DWORD PTR $T1[ebp]
  0005d	8b 00		 mov	 eax, DWORD PTR [eax]
  0005f	89 02		 mov	 DWORD PTR [edx], eax

; 143  : #ifdef __cpp_lib_constexpr_dynamic_alloc
; 144  :     if (_STD is_constant_evaluated()) {
; 145  :         _STD construct_at(_STD addressof(_Obj), _STD forward<_Types>(_Args)...);
; 146  :     } else
; 147  : #endif // __cpp_lib_constexpr_dynamic_alloc
; 148  :     {
; 149  :         ::new (_Voidify_iter(_STD addressof(_Obj))) _Ty(_STD forward<_Types>(_Args)...);
; 150  :     }
; 151  : }

  00061	5f		 pop	 edi
  00062	5e		 pop	 esi
  00063	5b		 pop	 ebx
  00064	81 c4 cc 00 00
	00		 add	 esp, 204		; 000000ccH
  0006a	3b ec		 cmp	 ebp, esp
  0006c	e8 00 00 00 00	 call	 __RTC_CheckEsp
  00071	8b e5		 mov	 esp, ebp
  00073	5d		 pop	 ebp
  00074	c3		 ret	 0
??$_Construct_in_place@PADABQAD@std@@YAXAAPADABQAD@Z ENDP ; std::_Construct_in_place<char *,char * const &>
_TEXT	ENDS
; Function compile flags: /Odtp /RTCsu /ZI
; File C:\Program Files (x86)\Microsoft Visual Studio\2019\Community\VC\Tools\MSVC\14.29.30133\include\xstring
;	COMDAT ??$_Reallocate_for@V<lambda_9366063389c5f42a00a5088cf24e69de>@@PBD@?$basic_string@DU?$char_traits@D@std@@V?$allocator@D@2@@std@@AAEAAV01@IV<lambda_9366063389c5f42a00a5088cf24e69de>@@PBD@Z
_TEXT	SEGMENT
__New_ptr$ = -60					; size = 4
__Al$ = -48						; size = 4
__New_capacity$ = -36					; size = 4
__Old_capacity$ = -24					; size = 4
_this$ = -12						; size = 4
__$ArrayPad$ = -4					; size = 4
__New_size$ = 8						; size = 4
__Fn$ = 12						; size = 1
_<_Args_0>$ = 16					; size = 4
??$_Reallocate_for@V<lambda_9366063389c5f42a00a5088cf24e69de>@@PBD@?$basic_string@DU?$char_traits@D@std@@V?$allocator@D@2@@std@@AAEAAV01@IV<lambda_9366063389c5f42a00a5088cf24e69de>@@PBD@Z PROC ; std::basic_string<char,std::char_traits<char>,std::allocator<char> >::_Reallocate_for<<lambda_9366063389c5f42a00a5088cf24e69de>,char const *>, COMDAT
; _this$ = ecx

; 4471 :     _CONSTEXPR20_CONTAINER basic_string& _Reallocate_for(const size_type _New_size, _Fty _Fn, _ArgTys... _Args) {

  00000	55		 push	 ebp
  00001	8b ec		 mov	 ebp, esp
  00003	81 ec 00 01 00
	00		 sub	 esp, 256		; 00000100H
  00009	53		 push	 ebx
  0000a	56		 push	 esi
  0000b	57		 push	 edi
  0000c	51		 push	 ecx
  0000d	8d 7d c0	 lea	 edi, DWORD PTR [ebp-64]
  00010	b9 10 00 00 00	 mov	 ecx, 16			; 00000010H
  00015	b8 cc cc cc cc	 mov	 eax, -858993460		; ccccccccH
  0001a	f3 ab		 rep stosd
  0001c	59		 pop	 ecx
  0001d	a1 00 00 00 00	 mov	 eax, DWORD PTR ___security_cookie
  00022	33 c5		 xor	 eax, ebp
  00024	89 45 fc	 mov	 DWORD PTR __$ArrayPad$[ebp], eax
  00027	89 4d f4	 mov	 DWORD PTR _this$[ebp], ecx
  0002a	b9 00 00 00 00	 mov	 ecx, OFFSET __0D019051_xstring
  0002f	e8 00 00 00 00	 call	 @__CheckForDebuggerJustMyCode@4

; 4472 :         // reallocate to store exactly _New_size elements, new buffer prepared by
; 4473 :         // _Fn(_New_ptr, _New_size, _Args...)
; 4474 :         if (_New_size > max_size()) {

  00034	8b 4d f4	 mov	 ecx, DWORD PTR _this$[ebp]
  00037	e8 00 00 00 00	 call	 ?max_size@?$basic_string@DU?$char_traits@D@std@@V?$allocator@D@2@@std@@QBEIXZ ; std::basic_string<char,std::char_traits<char>,std::allocator<char> >::max_size
  0003c	39 45 08	 cmp	 DWORD PTR __New_size$[ebp], eax
  0003f	76 05		 jbe	 SHORT $LN2@Reallocate

; 4475 :             _Xlen_string(); // result too long

  00041	e8 00 00 00 00	 call	 ?_Xlen_string@std@@YAXXZ ; std::_Xlen_string
$LN2@Reallocate:

; 4476 :         }
; 4477 : 
; 4478 :         const size_type _Old_capacity = _Mypair._Myval2._Myres;

  00046	8b 45 f4	 mov	 eax, DWORD PTR _this$[ebp]
  00049	8b 48 18	 mov	 ecx, DWORD PTR [eax+24]
  0004c	89 4d e8	 mov	 DWORD PTR __Old_capacity$[ebp], ecx

; 4479 :         const size_type _New_capacity = _Calculate_growth(_New_size);

  0004f	8b 45 08	 mov	 eax, DWORD PTR __New_size$[ebp]
  00052	50		 push	 eax
  00053	8b 4d f4	 mov	 ecx, DWORD PTR _this$[ebp]
  00056	e8 00 00 00 00	 call	 ?_Calculate_growth@?$basic_string@DU?$char_traits@D@std@@V?$allocator@D@2@@std@@ABEII@Z ; std::basic_string<char,std::char_traits<char>,std::allocator<char> >::_Calculate_growth
  0005b	89 45 dc	 mov	 DWORD PTR __New_capacity$[ebp], eax

; 4480 :         auto& _Al                     = _Getal();

  0005e	8b 4d f4	 mov	 ecx, DWORD PTR _this$[ebp]
  00061	e8 00 00 00 00	 call	 ?_Getal@?$basic_string@DU?$char_traits@D@std@@V?$allocator@D@2@@std@@AAEAAV?$allocator@D@2@XZ ; std::basic_string<char,std::char_traits<char>,std::allocator<char> >::_Getal
  00066	89 45 d0	 mov	 DWORD PTR __Al$[ebp], eax

; 4481 :         const pointer _New_ptr        = _Al.allocate(_New_capacity + 1); // throws

  00069	33 c0		 xor	 eax, eax
  0006b	8b 4d dc	 mov	 ecx, DWORD PTR __New_capacity$[ebp]
  0006e	83 c1 01	 add	 ecx, 1
  00071	0f 92 c0	 setb	 al
  00074	f7 d8		 neg	 eax
  00076	0b c1		 or	 eax, ecx
  00078	50		 push	 eax
  00079	8b 4d d0	 mov	 ecx, DWORD PTR __Al$[ebp]
  0007c	e8 00 00 00 00	 call	 ?allocate@?$allocator@D@std@@QAEPADI@Z ; std::allocator<char>::allocate
  00081	89 45 c4	 mov	 DWORD PTR __New_ptr$[ebp], eax

; 4482 : 
; 4483 : #ifdef __cpp_lib_constexpr_string
; 4484 :         if (_STD is_constant_evaluated()) { // Begin the lifetimes of the objects before copying to avoid UB
; 4485 :             _Traits::assign(_Unfancy(_New_ptr), _New_capacity + 1, _Elem());
; 4486 :         }
; 4487 : #endif // __cpp_lib_constexpr_string
; 4488 :         _Mypair._Myval2._Orphan_all();

  00084	8b 4d f4	 mov	 ecx, DWORD PTR _this$[ebp]
  00087	e8 00 00 00 00	 call	 ?_Orphan_all@_Container_base12@std@@QAEXXZ ; std::_Container_base12::_Orphan_all

; 4489 :         _Mypair._Myval2._Mysize = _New_size;

  0008c	8b 45 f4	 mov	 eax, DWORD PTR _this$[ebp]
  0008f	8b 4d 08	 mov	 ecx, DWORD PTR __New_size$[ebp]
  00092	89 48 14	 mov	 DWORD PTR [eax+20], ecx

; 4490 :         _Mypair._Myval2._Myres  = _New_capacity;

  00095	8b 45 f4	 mov	 eax, DWORD PTR _this$[ebp]
  00098	8b 4d dc	 mov	 ecx, DWORD PTR __New_capacity$[ebp]
  0009b	89 48 18	 mov	 DWORD PTR [eax+24], ecx

; 4491 :         _Fn(_Unfancy(_New_ptr), _New_size, _Args...);

  0009e	8b 45 10	 mov	 eax, DWORD PTR _<_Args_0>$[ebp]
  000a1	50		 push	 eax
  000a2	8b 4d 08	 mov	 ecx, DWORD PTR __New_size$[ebp]
  000a5	51		 push	 ecx
  000a6	8b 55 c4	 mov	 edx, DWORD PTR __New_ptr$[ebp]
  000a9	52		 push	 edx
  000aa	e8 00 00 00 00	 call	 ??$_Unfancy@D@std@@YAPADPAD@Z ; std::_Unfancy<char>
  000af	83 c4 04	 add	 esp, 4
  000b2	50		 push	 eax
  000b3	8d 4d 0c	 lea	 ecx, DWORD PTR __Fn$[ebp]
  000b6	e8 00 00 00 00	 call	 ??R<lambda_9366063389c5f42a00a5088cf24e69de>@@QBE@QADIQBD@Z ; <lambda_9366063389c5f42a00a5088cf24e69de>::operator()

; 4492 :         if (_BUF_SIZE <= _Old_capacity) {

  000bb	83 7d e8 10	 cmp	 DWORD PTR __Old_capacity$[ebp], 16 ; 00000010H
  000bf	72 21		 jb	 SHORT $LN3@Reallocate

; 4493 :             _Al.deallocate(_Mypair._Myval2._Bx._Ptr, _Old_capacity + 1);

  000c1	8b 45 e8	 mov	 eax, DWORD PTR __Old_capacity$[ebp]
  000c4	83 c0 01	 add	 eax, 1
  000c7	50		 push	 eax
  000c8	8b 4d f4	 mov	 ecx, DWORD PTR _this$[ebp]
  000cb	8b 51 04	 mov	 edx, DWORD PTR [ecx+4]
  000ce	52		 push	 edx
  000cf	8b 4d d0	 mov	 ecx, DWORD PTR __Al$[ebp]
  000d2	e8 00 00 00 00	 call	 ?deallocate@?$allocator@D@std@@QAEXQADI@Z ; std::allocator<char>::deallocate

; 4494 :             _Mypair._Myval2._Bx._Ptr = _New_ptr;

  000d7	8b 45 f4	 mov	 eax, DWORD PTR _this$[ebp]
  000da	8b 4d c4	 mov	 ecx, DWORD PTR __New_ptr$[ebp]
  000dd	89 48 04	 mov	 DWORD PTR [eax+4], ecx

; 4495 :         } else {

  000e0	eb 13		 jmp	 SHORT $LN4@Reallocate
$LN3@Reallocate:

; 4496 :             _Construct_in_place(_Mypair._Myval2._Bx._Ptr, _New_ptr);

  000e2	8d 45 c4	 lea	 eax, DWORD PTR __New_ptr$[ebp]
  000e5	50		 push	 eax
  000e6	8b 4d f4	 mov	 ecx, DWORD PTR _this$[ebp]
  000e9	83 c1 04	 add	 ecx, 4
  000ec	51		 push	 ecx
  000ed	e8 00 00 00 00	 call	 ??$_Construct_in_place@PADABQAD@std@@YAXAAPADABQAD@Z ; std::_Construct_in_place<char *,char * const &>
  000f2	83 c4 08	 add	 esp, 8
$LN4@Reallocate:

; 4497 :         }
; 4498 : 
; 4499 :         return *this;

  000f5	8b 45 f4	 mov	 eax, DWORD PTR _this$[ebp]
$LN5@Reallocate:

; 4500 :     }

  000f8	52		 push	 edx
  000f9	8b cd		 mov	 ecx, ebp
  000fb	50		 push	 eax
  000fc	8d 15 00 00 00
	00		 lea	 edx, DWORD PTR $LN8@Reallocate
  00102	e8 00 00 00 00	 call	 @_RTC_CheckStackVars@8
  00107	58		 pop	 eax
  00108	5a		 pop	 edx
  00109	5f		 pop	 edi
  0010a	5e		 pop	 esi
  0010b	5b		 pop	 ebx
  0010c	8b 4d fc	 mov	 ecx, DWORD PTR __$ArrayPad$[ebp]
  0010f	33 cd		 xor	 ecx, ebp
  00111	e8 00 00 00 00	 call	 @__security_check_cookie@4
  00116	81 c4 00 01 00
	00		 add	 esp, 256		; 00000100H
  0011c	3b ec		 cmp	 ebp, esp
  0011e	e8 00 00 00 00	 call	 __RTC_CheckEsp
  00123	8b e5		 mov	 esp, ebp
  00125	5d		 pop	 ebp
  00126	c2 0c 00	 ret	 12			; 0000000cH
  00129	0f 1f 00	 npad	 3
$LN8@Reallocate:
  0012c	01 00 00 00	 DD	 1
  00130	00 00 00 00	 DD	 $LN7@Reallocate
$LN7@Reallocate:
  00134	c4 ff ff ff	 DD	 -60			; ffffffc4H
  00138	04 00 00 00	 DD	 4
  0013c	00 00 00 00	 DD	 $LN6@Reallocate
$LN6@Reallocate:
  00140	5f		 DB	 95			; 0000005fH
  00141	4e		 DB	 78			; 0000004eH
  00142	65		 DB	 101			; 00000065H
  00143	77		 DB	 119			; 00000077H
  00144	5f		 DB	 95			; 0000005fH
  00145	70		 DB	 112			; 00000070H
  00146	74		 DB	 116			; 00000074H
  00147	72		 DB	 114			; 00000072H
  00148	00		 DB	 0
??$_Reallocate_for@V<lambda_9366063389c5f42a00a5088cf24e69de>@@PBD@?$basic_string@DU?$char_traits@D@std@@V?$allocator@D@2@@std@@AAEAAV01@IV<lambda_9366063389c5f42a00a5088cf24e69de>@@PBD@Z ENDP ; std::basic_string<char,std::char_traits<char>,std::allocator<char> >::_Reallocate_for<<lambda_9366063389c5f42a00a5088cf24e69de>,char const *>
_TEXT	ENDS
; Function compile flags: /Odtp /RTCsu /ZI
; File C:\Program Files (x86)\Microsoft Visual Studio\2019\Community\VC\Tools\MSVC\14.29.30133\include\xstring
;	COMDAT ??R<lambda_9366063389c5f42a00a5088cf24e69de>@@QBE@QADIQBD@Z
_TEXT	SEGMENT
$T1 = -209						; size = 1
_this$ = -8						; size = 4
__New_ptr$ = 8						; size = 4
__Count$ = 12						; size = 4
__Ptr$ = 16						; size = 4
??R<lambda_9366063389c5f42a00a5088cf24e69de>@@QBE@QADIQBD@Z PROC ; <lambda_9366063389c5f42a00a5088cf24e69de>::operator(), COMDAT
; _this$ = ecx

; 3222 :             [](_Elem* const _New_ptr, const size_type _Count, const _Elem* const _Ptr) {

  00000	55		 push	 ebp
  00001	8b ec		 mov	 ebp, esp
  00003	81 ec d8 00 00
	00		 sub	 esp, 216		; 000000d8H
  00009	53		 push	 ebx
  0000a	56		 push	 esi
  0000b	57		 push	 edi
  0000c	51		 push	 ecx
  0000d	8d 7d e8	 lea	 edi, DWORD PTR [ebp-24]
  00010	b9 06 00 00 00	 mov	 ecx, 6
  00015	b8 cc cc cc cc	 mov	 eax, -858993460		; ccccccccH
  0001a	f3 ab		 rep stosd
  0001c	59		 pop	 ecx
  0001d	89 4d f8	 mov	 DWORD PTR _this$[ebp], ecx
  00020	b9 00 00 00 00	 mov	 ecx, OFFSET __0D019051_xstring
  00025	e8 00 00 00 00	 call	 @__CheckForDebuggerJustMyCode@4

; 3223 :                 _Traits::copy(_New_ptr, _Ptr, _Count);

  0002a	8b 45 0c	 mov	 eax, DWORD PTR __Count$[ebp]
  0002d	50		 push	 eax
  0002e	8b 4d 10	 mov	 ecx, DWORD PTR __Ptr$[ebp]
  00031	51		 push	 ecx
  00032	8b 55 08	 mov	 edx, DWORD PTR __New_ptr$[ebp]
  00035	52		 push	 edx
  00036	e8 00 00 00 00	 call	 ?copy@?$_Char_traits@DH@std@@SAPADQADQBDI@Z ; std::_Char_traits<char,int>::copy
  0003b	83 c4 0c	 add	 esp, 12			; 0000000cH

; 3224 :                 _Traits::assign(_New_ptr[_Count], _Elem());

  0003e	c6 85 2f ff ff
	ff 00		 mov	 BYTE PTR $T1[ebp], 0
  00045	8d 85 2f ff ff
	ff		 lea	 eax, DWORD PTR $T1[ebp]
  0004b	50		 push	 eax
  0004c	8b 4d 08	 mov	 ecx, DWORD PTR __New_ptr$[ebp]
  0004f	03 4d 0c	 add	 ecx, DWORD PTR __Count$[ebp]
  00052	51		 push	 ecx
  00053	e8 00 00 00 00	 call	 ?assign@?$_Narrow_char_traits@DH@std@@SAXAADABD@Z ; std::_Narrow_char_traits<char,int>::assign
  00058	83 c4 08	 add	 esp, 8

; 3225 :             },

  0005b	5f		 pop	 edi
  0005c	5e		 pop	 esi
  0005d	5b		 pop	 ebx
  0005e	81 c4 d8 00 00
	00		 add	 esp, 216		; 000000d8H
  00064	3b ec		 cmp	 ebp, esp
  00066	e8 00 00 00 00	 call	 __RTC_CheckEsp
  0006b	8b e5		 mov	 esp, ebp
  0006d	5d		 pop	 ebp
  0006e	c2 0c 00	 ret	 12			; 0000000cH
??R<lambda_9366063389c5f42a00a5088cf24e69de>@@QBE@QADIQBD@Z ENDP ; <lambda_9366063389c5f42a00a5088cf24e69de>::operator()
_TEXT	ENDS
; Function compile flags: /Odtp /RTCsu /ZI
; File C:\Program Files (x86)\Microsoft Visual Studio\2019\Community\VC\Tools\MSVC\14.29.30133\include\xstring
;	COMDAT ??$_Reallocate_grow_by@V<lambda_15711c68e099a15a58f4d77303cb286d>@@D@?$basic_string@DU?$char_traits@D@std@@V?$allocator@D@2@@std@@AAEAAV01@IV<lambda_15711c68e099a15a58f4d77303cb286d>@@D@Z
_TEXT	SEGMENT
__Old_ptr$1 = -120					; size = 4
__Raw_new$ = -108					; size = 4
__New_ptr$ = -96					; size = 4
__Al$ = -84						; size = 4
__New_capacity$ = -72					; size = 4
__Old_capacity$ = -60					; size = 4
__New_size$ = -48					; size = 4
__Old_size$ = -36					; size = 4
__My_data$ = -24					; size = 4
_this$ = -12						; size = 4
__$ArrayPad$ = -4					; size = 4
__Size_increase$ = 8					; size = 4
__Fn$ = 12						; size = 1
_<_Args_0>$ = 16					; size = 1
??$_Reallocate_grow_by@V<lambda_15711c68e099a15a58f4d77303cb286d>@@D@?$basic_string@DU?$char_traits@D@std@@V?$allocator@D@2@@std@@AAEAAV01@IV<lambda_15711c68e099a15a58f4d77303cb286d>@@D@Z PROC ; std::basic_string<char,std::char_traits<char>,std::allocator<char> >::_Reallocate_grow_by<<lambda_15711c68e099a15a58f4d77303cb286d>,char>, COMDAT
; _this$ = ecx

; 4504 :         const size_type _Size_increase, _Fty _Fn, _ArgTys... _Args) {

  00000	55		 push	 ebp
  00001	8b ec		 mov	 ebp, esp
  00003	81 ec 3c 01 00
	00		 sub	 esp, 316		; 0000013cH
  00009	53		 push	 ebx
  0000a	56		 push	 esi
  0000b	57		 push	 edi
  0000c	51		 push	 ecx
  0000d	8d 7d 84	 lea	 edi, DWORD PTR [ebp-124]
  00010	b9 1f 00 00 00	 mov	 ecx, 31			; 0000001fH
  00015	b8 cc cc cc cc	 mov	 eax, -858993460		; ccccccccH
  0001a	f3 ab		 rep stosd
  0001c	59		 pop	 ecx
  0001d	a1 00 00 00 00	 mov	 eax, DWORD PTR ___security_cookie
  00022	33 c5		 xor	 eax, ebp
  00024	89 45 fc	 mov	 DWORD PTR __$ArrayPad$[ebp], eax
  00027	89 4d f4	 mov	 DWORD PTR _this$[ebp], ecx
  0002a	b9 00 00 00 00	 mov	 ecx, OFFSET __0D019051_xstring
  0002f	e8 00 00 00 00	 call	 @__CheckForDebuggerJustMyCode@4

; 4505 :         // reallocate to increase size by _Size_increase elements, new buffer prepared by
; 4506 :         // _Fn(_New_ptr, _Old_ptr, _Old_size, _Args...)
; 4507 :         auto& _My_data            = _Mypair._Myval2;

  00034	8b 45 f4	 mov	 eax, DWORD PTR _this$[ebp]
  00037	89 45 e8	 mov	 DWORD PTR __My_data$[ebp], eax

; 4508 :         const size_type _Old_size = _My_data._Mysize;

  0003a	8b 45 e8	 mov	 eax, DWORD PTR __My_data$[ebp]
  0003d	8b 48 14	 mov	 ecx, DWORD PTR [eax+20]
  00040	89 4d dc	 mov	 DWORD PTR __Old_size$[ebp], ecx

; 4509 :         if (max_size() - _Old_size < _Size_increase) {

  00043	8b 4d f4	 mov	 ecx, DWORD PTR _this$[ebp]
  00046	e8 00 00 00 00	 call	 ?max_size@?$basic_string@DU?$char_traits@D@std@@V?$allocator@D@2@@std@@QBEIXZ ; std::basic_string<char,std::char_traits<char>,std::allocator<char> >::max_size
  0004b	2b 45 dc	 sub	 eax, DWORD PTR __Old_size$[ebp]
  0004e	3b 45 08	 cmp	 eax, DWORD PTR __Size_increase$[ebp]
  00051	73 05		 jae	 SHORT $LN2@Reallocate

; 4510 :             _Xlen_string(); // result too long

  00053	e8 00 00 00 00	 call	 ?_Xlen_string@std@@YAXXZ ; std::_Xlen_string
$LN2@Reallocate:

; 4511 :         }
; 4512 : 
; 4513 :         const size_type _New_size     = _Old_size + _Size_increase;

  00058	8b 45 dc	 mov	 eax, DWORD PTR __Old_size$[ebp]
  0005b	03 45 08	 add	 eax, DWORD PTR __Size_increase$[ebp]
  0005e	89 45 d0	 mov	 DWORD PTR __New_size$[ebp], eax

; 4514 :         const size_type _Old_capacity = _My_data._Myres;

  00061	8b 45 e8	 mov	 eax, DWORD PTR __My_data$[ebp]
  00064	8b 48 18	 mov	 ecx, DWORD PTR [eax+24]
  00067	89 4d c4	 mov	 DWORD PTR __Old_capacity$[ebp], ecx

; 4515 :         const size_type _New_capacity = _Calculate_growth(_New_size);

  0006a	8b 45 d0	 mov	 eax, DWORD PTR __New_size$[ebp]
  0006d	50		 push	 eax
  0006e	8b 4d f4	 mov	 ecx, DWORD PTR _this$[ebp]
  00071	e8 00 00 00 00	 call	 ?_Calculate_growth@?$basic_string@DU?$char_traits@D@std@@V?$allocator@D@2@@std@@ABEII@Z ; std::basic_string<char,std::char_traits<char>,std::allocator<char> >::_Calculate_growth
  00076	89 45 b8	 mov	 DWORD PTR __New_capacity$[ebp], eax

; 4516 :         auto& _Al                     = _Getal();

  00079	8b 4d f4	 mov	 ecx, DWORD PTR _this$[ebp]
  0007c	e8 00 00 00 00	 call	 ?_Getal@?$basic_string@DU?$char_traits@D@std@@V?$allocator@D@2@@std@@AAEAAV?$allocator@D@2@XZ ; std::basic_string<char,std::char_traits<char>,std::allocator<char> >::_Getal
  00081	89 45 ac	 mov	 DWORD PTR __Al$[ebp], eax

; 4517 :         const pointer _New_ptr        = _Al.allocate(_New_capacity + 1); // throws

  00084	33 c0		 xor	 eax, eax
  00086	8b 4d b8	 mov	 ecx, DWORD PTR __New_capacity$[ebp]
  00089	83 c1 01	 add	 ecx, 1
  0008c	0f 92 c0	 setb	 al
  0008f	f7 d8		 neg	 eax
  00091	0b c1		 or	 eax, ecx
  00093	50		 push	 eax
  00094	8b 4d ac	 mov	 ecx, DWORD PTR __Al$[ebp]
  00097	e8 00 00 00 00	 call	 ?allocate@?$allocator@D@std@@QAEPADI@Z ; std::allocator<char>::allocate
  0009c	89 45 a0	 mov	 DWORD PTR __New_ptr$[ebp], eax

; 4518 : 
; 4519 : #ifdef __cpp_lib_constexpr_string
; 4520 :         if (_STD is_constant_evaluated()) { // Begin the lifetimes of the objects before copying to avoid UB
; 4521 :             _Traits::assign(_Unfancy(_New_ptr), _New_capacity + 1, _Elem());
; 4522 :         }
; 4523 : #endif // __cpp_lib_constexpr_string
; 4524 :         _My_data._Orphan_all();

  0009f	8b 4d e8	 mov	 ecx, DWORD PTR __My_data$[ebp]
  000a2	e8 00 00 00 00	 call	 ?_Orphan_all@_Container_base12@std@@QAEXXZ ; std::_Container_base12::_Orphan_all

; 4525 :         _My_data._Mysize      = _New_size;

  000a7	8b 45 e8	 mov	 eax, DWORD PTR __My_data$[ebp]
  000aa	8b 4d d0	 mov	 ecx, DWORD PTR __New_size$[ebp]
  000ad	89 48 14	 mov	 DWORD PTR [eax+20], ecx

; 4526 :         _My_data._Myres       = _New_capacity;

  000b0	8b 45 e8	 mov	 eax, DWORD PTR __My_data$[ebp]
  000b3	8b 4d b8	 mov	 ecx, DWORD PTR __New_capacity$[ebp]
  000b6	89 48 18	 mov	 DWORD PTR [eax+24], ecx

; 4527 :         _Elem* const _Raw_new = _Unfancy(_New_ptr);

  000b9	8b 45 a0	 mov	 eax, DWORD PTR __New_ptr$[ebp]
  000bc	50		 push	 eax
  000bd	e8 00 00 00 00	 call	 ??$_Unfancy@D@std@@YAPADPAD@Z ; std::_Unfancy<char>
  000c2	83 c4 04	 add	 esp, 4
  000c5	89 45 94	 mov	 DWORD PTR __Raw_new$[ebp], eax

; 4528 :         if (_BUF_SIZE <= _Old_capacity) {

  000c8	83 7d c4 10	 cmp	 DWORD PTR __Old_capacity$[ebp], 16 ; 00000010H
  000cc	72 49		 jb	 SHORT $LN3@Reallocate

; 4529 :             const pointer _Old_ptr = _My_data._Bx._Ptr;

  000ce	8b 45 e8	 mov	 eax, DWORD PTR __My_data$[ebp]
  000d1	8b 48 04	 mov	 ecx, DWORD PTR [eax+4]
  000d4	89 4d 88	 mov	 DWORD PTR __Old_ptr$1[ebp], ecx

; 4530 :             _Fn(_Raw_new, _Unfancy(_Old_ptr), _Old_size, _Args...);

  000d7	0f b6 45 10	 movzx	 eax, BYTE PTR _<_Args_0>$[ebp]
  000db	50		 push	 eax
  000dc	8b 4d dc	 mov	 ecx, DWORD PTR __Old_size$[ebp]
  000df	51		 push	 ecx
  000e0	8b 55 88	 mov	 edx, DWORD PTR __Old_ptr$1[ebp]
  000e3	52		 push	 edx
  000e4	e8 00 00 00 00	 call	 ??$_Unfancy@D@std@@YAPADPAD@Z ; std::_Unfancy<char>
  000e9	83 c4 04	 add	 esp, 4
  000ec	50		 push	 eax
  000ed	8b 45 94	 mov	 eax, DWORD PTR __Raw_new$[ebp]
  000f0	50		 push	 eax
  000f1	8d 4d 0c	 lea	 ecx, DWORD PTR __Fn$[ebp]
  000f4	e8 00 00 00 00	 call	 ??R<lambda_15711c68e099a15a58f4d77303cb286d>@@QBE@QADQBDID@Z ; <lambda_15711c68e099a15a58f4d77303cb286d>::operator()

; 4531 :             _Al.deallocate(_Old_ptr, _Old_capacity + 1);

  000f9	8b 45 c4	 mov	 eax, DWORD PTR __Old_capacity$[ebp]
  000fc	83 c0 01	 add	 eax, 1
  000ff	50		 push	 eax
  00100	8b 4d 88	 mov	 ecx, DWORD PTR __Old_ptr$1[ebp]
  00103	51		 push	 ecx
  00104	8b 4d ac	 mov	 ecx, DWORD PTR __Al$[ebp]
  00107	e8 00 00 00 00	 call	 ?deallocate@?$allocator@D@std@@QAEXQADI@Z ; std::allocator<char>::deallocate

; 4532 :             _My_data._Bx._Ptr = _New_ptr;

  0010c	8b 45 e8	 mov	 eax, DWORD PTR __My_data$[ebp]
  0010f	8b 4d a0	 mov	 ecx, DWORD PTR __New_ptr$[ebp]
  00112	89 48 04	 mov	 DWORD PTR [eax+4], ecx

; 4533 :         } else {

  00115	eb 2f		 jmp	 SHORT $LN4@Reallocate
$LN3@Reallocate:

; 4534 :             _Fn(_Raw_new, _My_data._Bx._Buf, _Old_size, _Args...);

  00117	0f b6 45 10	 movzx	 eax, BYTE PTR _<_Args_0>$[ebp]
  0011b	50		 push	 eax
  0011c	8b 4d dc	 mov	 ecx, DWORD PTR __Old_size$[ebp]
  0011f	51		 push	 ecx
  00120	8b 55 e8	 mov	 edx, DWORD PTR __My_data$[ebp]
  00123	83 c2 04	 add	 edx, 4
  00126	52		 push	 edx
  00127	8b 45 94	 mov	 eax, DWORD PTR __Raw_new$[ebp]
  0012a	50		 push	 eax
  0012b	8d 4d 0c	 lea	 ecx, DWORD PTR __Fn$[ebp]
  0012e	e8 00 00 00 00	 call	 ??R<lambda_15711c68e099a15a58f4d77303cb286d>@@QBE@QADQBDID@Z ; <lambda_15711c68e099a15a58f4d77303cb286d>::operator()

; 4535 :             _Construct_in_place(_My_data._Bx._Ptr, _New_ptr);

  00133	8d 45 a0	 lea	 eax, DWORD PTR __New_ptr$[ebp]
  00136	50		 push	 eax
  00137	8b 4d e8	 mov	 ecx, DWORD PTR __My_data$[ebp]
  0013a	83 c1 04	 add	 ecx, 4
  0013d	51		 push	 ecx
  0013e	e8 00 00 00 00	 call	 ??$_Construct_in_place@PADABQAD@std@@YAXAAPADABQAD@Z ; std::_Construct_in_place<char *,char * const &>
  00143	83 c4 08	 add	 esp, 8
$LN4@Reallocate:

; 4536 :         }
; 4537 : 
; 4538 :         return *this;

  00146	8b 45 f4	 mov	 eax, DWORD PTR _this$[ebp]
$LN5@Reallocate:

; 4539 :     }

  00149	52		 push	 edx
  0014a	8b cd		 mov	 ecx, ebp
  0014c	50		 push	 eax
  0014d	8d 15 00 00 00
	00		 lea	 edx, DWORD PTR $LN8@Reallocate
  00153	e8 00 00 00 00	 call	 @_RTC_CheckStackVars@8
  00158	58		 pop	 eax
  00159	5a		 pop	 edx
  0015a	5f		 pop	 edi
  0015b	5e		 pop	 esi
  0015c	5b		 pop	 ebx
  0015d	8b 4d fc	 mov	 ecx, DWORD PTR __$ArrayPad$[ebp]
  00160	33 cd		 xor	 ecx, ebp
  00162	e8 00 00 00 00	 call	 @__security_check_cookie@4
  00167	81 c4 3c 01 00
	00		 add	 esp, 316		; 0000013cH
  0016d	3b ec		 cmp	 ebp, esp
  0016f	e8 00 00 00 00	 call	 __RTC_CheckEsp
  00174	8b e5		 mov	 esp, ebp
  00176	5d		 pop	 ebp
  00177	c2 0c 00	 ret	 12			; 0000000cH
  0017a	66 90		 npad	 2
$LN8@Reallocate:
  0017c	01 00 00 00	 DD	 1
  00180	00 00 00 00	 DD	 $LN7@Reallocate
$LN7@Reallocate:
  00184	a0 ff ff ff	 DD	 -96			; ffffffa0H
  00188	04 00 00 00	 DD	 4
  0018c	00 00 00 00	 DD	 $LN6@Reallocate
$LN6@Reallocate:
  00190	5f		 DB	 95			; 0000005fH
  00191	4e		 DB	 78			; 0000004eH
  00192	65		 DB	 101			; 00000065H
  00193	77		 DB	 119			; 00000077H
  00194	5f		 DB	 95			; 0000005fH
  00195	70		 DB	 112			; 00000070H
  00196	74		 DB	 116			; 00000074H
  00197	72		 DB	 114			; 00000072H
  00198	00		 DB	 0
??$_Reallocate_grow_by@V<lambda_15711c68e099a15a58f4d77303cb286d>@@D@?$basic_string@DU?$char_traits@D@std@@V?$allocator@D@2@@std@@AAEAAV01@IV<lambda_15711c68e099a15a58f4d77303cb286d>@@D@Z ENDP ; std::basic_string<char,std::char_traits<char>,std::allocator<char> >::_Reallocate_grow_by<<lambda_15711c68e099a15a58f4d77303cb286d>,char>
_TEXT	ENDS
; Function compile flags: /Odtp /RTCsu /ZI
; File C:\Program Files (x86)\Microsoft Visual Studio\2019\Community\VC\Tools\MSVC\14.29.30133\include\xstring
;	COMDAT ??R<lambda_15711c68e099a15a58f4d77303cb286d>@@QBE@QADQBDID@Z
_TEXT	SEGMENT
$T1 = -209						; size = 1
_this$ = -8						; size = 4
__New_ptr$ = 8						; size = 4
__Old_ptr$ = 12						; size = 4
__Old_size$ = 16					; size = 4
__Ch$ = 20						; size = 1
??R<lambda_15711c68e099a15a58f4d77303cb286d>@@QBE@QADQBDID@Z PROC ; <lambda_15711c68e099a15a58f4d77303cb286d>::operator(), COMDAT
; _this$ = ecx

; 3839 :             [](_Elem* const _New_ptr, const _Elem* const _Old_ptr, const size_type _Old_size, const _Elem _Ch) {

  00000	55		 push	 ebp
  00001	8b ec		 mov	 ebp, esp
  00003	81 ec d8 00 00
	00		 sub	 esp, 216		; 000000d8H
  00009	53		 push	 ebx
  0000a	56		 push	 esi
  0000b	57		 push	 edi
  0000c	51		 push	 ecx
  0000d	8d 7d e8	 lea	 edi, DWORD PTR [ebp-24]
  00010	b9 06 00 00 00	 mov	 ecx, 6
  00015	b8 cc cc cc cc	 mov	 eax, -858993460		; ccccccccH
  0001a	f3 ab		 rep stosd
  0001c	59		 pop	 ecx
  0001d	89 4d f8	 mov	 DWORD PTR _this$[ebp], ecx
  00020	b9 00 00 00 00	 mov	 ecx, OFFSET __0D019051_xstring
  00025	e8 00 00 00 00	 call	 @__CheckForDebuggerJustMyCode@4

; 3840 :                 _Traits::copy(_New_ptr, _Old_ptr, _Old_size);

  0002a	8b 45 10	 mov	 eax, DWORD PTR __Old_size$[ebp]
  0002d	50		 push	 eax
  0002e	8b 4d 0c	 mov	 ecx, DWORD PTR __Old_ptr$[ebp]
  00031	51		 push	 ecx
  00032	8b 55 08	 mov	 edx, DWORD PTR __New_ptr$[ebp]
  00035	52		 push	 edx
  00036	e8 00 00 00 00	 call	 ?copy@?$_Char_traits@DH@std@@SAPADQADQBDI@Z ; std::_Char_traits<char,int>::copy
  0003b	83 c4 0c	 add	 esp, 12			; 0000000cH

; 3841 :                 _Traits::assign(_New_ptr[_Old_size], _Ch);

  0003e	8d 45 14	 lea	 eax, DWORD PTR __Ch$[ebp]
  00041	50		 push	 eax
  00042	8b 4d 08	 mov	 ecx, DWORD PTR __New_ptr$[ebp]
  00045	03 4d 10	 add	 ecx, DWORD PTR __Old_size$[ebp]
  00048	51		 push	 ecx
  00049	e8 00 00 00 00	 call	 ?assign@?$_Narrow_char_traits@DH@std@@SAXAADABD@Z ; std::_Narrow_char_traits<char,int>::assign
  0004e	83 c4 08	 add	 esp, 8

; 3842 :                 _Traits::assign(_New_ptr[_Old_size + 1], _Elem());

  00051	c6 85 2f ff ff
	ff 00		 mov	 BYTE PTR $T1[ebp], 0
  00058	8d 85 2f ff ff
	ff		 lea	 eax, DWORD PTR $T1[ebp]
  0005e	50		 push	 eax
  0005f	8b 4d 10	 mov	 ecx, DWORD PTR __Old_size$[ebp]
  00062	8b 55 08	 mov	 edx, DWORD PTR __New_ptr$[ebp]
  00065	8d 44 0a 01	 lea	 eax, DWORD PTR [edx+ecx+1]
  00069	50		 push	 eax
  0006a	e8 00 00 00 00	 call	 ?assign@?$_Narrow_char_traits@DH@std@@SAXAADABD@Z ; std::_Narrow_char_traits<char,int>::assign
  0006f	83 c4 08	 add	 esp, 8

; 3843 :             },

  00072	5f		 pop	 edi
  00073	5e		 pop	 esi
  00074	5b		 pop	 ebx
  00075	81 c4 d8 00 00
	00		 add	 esp, 216		; 000000d8H
  0007b	3b ec		 cmp	 ebp, esp
  0007d	e8 00 00 00 00	 call	 __RTC_CheckEsp
  00082	8b e5		 mov	 esp, ebp
  00084	5d		 pop	 ebp
  00085	c2 10 00	 ret	 16			; 00000010H
??R<lambda_15711c68e099a15a58f4d77303cb286d>@@QBE@QADQBDID@Z ENDP ; <lambda_15711c68e099a15a58f4d77303cb286d>::operator()
_TEXT	ENDS
; Function compile flags: /Odtp /RTCsu /ZI
; File C:\Program Files (x86)\Microsoft Visual Studio\2019\Community\VC\Tools\MSVC\14.29.30133\include\xmemory
;	COMDAT ??$_Destroy_in_place@PAD@std@@YAXAAPAD@Z
_TEXT	SEGMENT
__Obj$ = 8						; size = 4
??$_Destroy_in_place@PAD@std@@YAXAAPAD@Z PROC		; std::_Destroy_in_place<char *>, COMDAT

; 294  : _CONSTEXPR20_DYNALLOC void _Destroy_in_place(_Ty& _Obj) noexcept {

  00000	55		 push	 ebp
  00001	8b ec		 mov	 ebp, esp
  00003	81 ec c0 00 00
	00		 sub	 esp, 192		; 000000c0H
  00009	53		 push	 ebx
  0000a	56		 push	 esi
  0000b	57		 push	 edi
  0000c	8b fd		 mov	 edi, ebp
  0000e	33 c9		 xor	 ecx, ecx
  00010	b8 cc cc cc cc	 mov	 eax, -858993460		; ccccccccH
  00015	f3 ab		 rep stosd
  00017	b9 00 00 00 00	 mov	 ecx, OFFSET __79D216CD_xmemory
  0001c	e8 00 00 00 00	 call	 @__CheckForDebuggerJustMyCode@4

; 295  :     if constexpr (is_array_v<_Ty>) {
; 296  :         _Destroy_range(_Obj, _Obj + extent_v<_Ty>);
; 297  :     } else {
; 298  :         _Obj.~_Ty();
; 299  :     }
; 300  : }

  00021	5f		 pop	 edi
  00022	5e		 pop	 esi
  00023	5b		 pop	 ebx
  00024	81 c4 c0 00 00
	00		 add	 esp, 192		; 000000c0H
  0002a	3b ec		 cmp	 ebp, esp
  0002c	e8 00 00 00 00	 call	 __RTC_CheckEsp
  00031	8b e5		 mov	 esp, ebp
  00033	5d		 pop	 ebp
  00034	c3		 ret	 0
??$_Destroy_in_place@PAD@std@@YAXAAPAD@Z ENDP		; std::_Destroy_in_place<char *>
_TEXT	ENDS
; Function compile flags: /Odtp /RTCsu /ZI
; File C:\Program Files (x86)\Microsoft Visual Studio\2019\Community\VC\Tools\MSVC\14.29.30133\include\xstddef
;	COMDAT ??$_Unfancy@U_Container_proxy@std@@@std@@YAPAU_Container_proxy@0@PAU10@@Z
_TEXT	SEGMENT
__Ptr$ = 8						; size = 4
??$_Unfancy@U_Container_proxy@std@@@std@@YAPAU_Container_proxy@0@PAU10@@Z PROC ; std::_Unfancy<std::_Container_proxy>, COMDAT

; 265  : _NODISCARD constexpr _Ty* _Unfancy(_Ty* _Ptr) noexcept { // do nothing for plain pointers

  00000	55		 push	 ebp
  00001	8b ec		 mov	 ebp, esp
  00003	81 ec c0 00 00
	00		 sub	 esp, 192		; 000000c0H
  00009	53		 push	 ebx
  0000a	56		 push	 esi
  0000b	57		 push	 edi
  0000c	8b fd		 mov	 edi, ebp
  0000e	33 c9		 xor	 ecx, ecx
  00010	b8 cc cc cc cc	 mov	 eax, -858993460		; ccccccccH
  00015	f3 ab		 rep stosd
  00017	b9 00 00 00 00	 mov	 ecx, OFFSET __E458E21C_xstddef
  0001c	e8 00 00 00 00	 call	 @__CheckForDebuggerJustMyCode@4

; 266  :     return _Ptr;

  00021	8b 45 08	 mov	 eax, DWORD PTR __Ptr$[ebp]

; 267  : }

  00024	5f		 pop	 edi
  00025	5e		 pop	 esi
  00026	5b		 pop	 ebx
  00027	81 c4 c0 00 00
	00		 add	 esp, 192		; 000000c0H
  0002d	3b ec		 cmp	 ebp, esp
  0002f	e8 00 00 00 00	 call	 __RTC_CheckEsp
  00034	8b e5		 mov	 esp, ebp
  00036	5d		 pop	 ebp
  00037	c3		 ret	 0
??$_Unfancy@U_Container_proxy@std@@@std@@YAPAU_Container_proxy@0@PAU10@@Z ENDP ; std::_Unfancy<std::_Container_proxy>
_TEXT	ENDS
; Function compile flags: /Odtp /RTCsu /ZI
; File C:\Program Files (x86)\Microsoft Visual Studio\2019\Community\VC\Tools\MSVC\14.29.30133\include\xmemory
;	COMDAT ??$?0$$V@?$_Compressed_pair@V?$allocator@D@std@@V?$_String_val@U?$_Simple_types@D@std@@@2@$00@std@@QAE@U_Zero_then_variadic_args_t@1@@Z
_TEXT	SEGMENT
_this$ = -8						; size = 4
___formal$ = 8						; size = 1
??$?0$$V@?$_Compressed_pair@V?$allocator@D@std@@V?$_String_val@U?$_Simple_types@D@std@@@2@$00@std@@QAE@U_Zero_then_variadic_args_t@1@@Z PROC ; std::_Compressed_pair<std::allocator<char>,std::_String_val<std::_Simple_types<char> >,1>::_Compressed_pair<std::allocator<char>,std::_String_val<std::_Simple_types<char> >,1><>, COMDAT
; _this$ = ecx

; 1331 :         : _Ty1(), _Myval2(_STD forward<_Other2>(_Val2)...) {}

  00000	55		 push	 ebp
  00001	8b ec		 mov	 ebp, esp
  00003	81 ec cc 00 00
	00		 sub	 esp, 204		; 000000ccH
  00009	53		 push	 ebx
  0000a	56		 push	 esi
  0000b	57		 push	 edi
  0000c	51		 push	 ecx
  0000d	8d 7d f4	 lea	 edi, DWORD PTR [ebp-12]
  00010	b9 03 00 00 00	 mov	 ecx, 3
  00015	b8 cc cc cc cc	 mov	 eax, -858993460		; ccccccccH
  0001a	f3 ab		 rep stosd
  0001c	59		 pop	 ecx
  0001d	89 4d f8	 mov	 DWORD PTR _this$[ebp], ecx
  00020	b9 00 00 00 00	 mov	 ecx, OFFSET __79D216CD_xmemory
  00025	e8 00 00 00 00	 call	 @__CheckForDebuggerJustMyCode@4
  0002a	8b 4d f8	 mov	 ecx, DWORD PTR _this$[ebp]
  0002d	e8 00 00 00 00	 call	 ??0?$allocator@D@std@@QAE@XZ ; std::allocator<char>::allocator<char>
  00032	8b 4d f8	 mov	 ecx, DWORD PTR _this$[ebp]
  00035	e8 00 00 00 00	 call	 ??0?$_String_val@U?$_Simple_types@D@std@@@std@@QAE@XZ ; std::_String_val<std::_Simple_types<char> >::_String_val<std::_Simple_types<char> >
  0003a	8b 45 f8	 mov	 eax, DWORD PTR _this$[ebp]
  0003d	5f		 pop	 edi
  0003e	5e		 pop	 esi
  0003f	5b		 pop	 ebx
  00040	81 c4 cc 00 00
	00		 add	 esp, 204		; 000000ccH
  00046	3b ec		 cmp	 ebp, esp
  00048	e8 00 00 00 00	 call	 __RTC_CheckEsp
  0004d	8b e5		 mov	 esp, ebp
  0004f	5d		 pop	 ebp
  00050	c2 04 00	 ret	 4
??$?0$$V@?$_Compressed_pair@V?$allocator@D@std@@V?$_String_val@U?$_Simple_types@D@std@@@2@$00@std@@QAE@U_Zero_then_variadic_args_t@1@@Z ENDP ; std::_Compressed_pair<std::allocator<char>,std::_String_val<std::_Simple_types<char> >,1>::_Compressed_pair<std::allocator<char>,std::_String_val<std::_Simple_types<char> >,1><>
_TEXT	ENDS
; Function compile flags: /Odtp /RTCsu /ZI
; File C:\Program Files (x86)\Microsoft Visual Studio\2019\Community\VC\Tools\MSVC\14.29.30133\include\type_traits
;	COMDAT ??$move@AAV?$allocator@D@std@@@std@@YA$$QAV?$allocator@D@0@AAV10@@Z
_TEXT	SEGMENT
__Arg$ = 8						; size = 4
??$move@AAV?$allocator@D@std@@@std@@YA$$QAV?$allocator@D@0@AAV10@@Z PROC ; std::move<std::allocator<char> &>, COMDAT

; 1396 : _NODISCARD constexpr remove_reference_t<_Ty>&& move(_Ty&& _Arg) noexcept { // forward _Arg as movable

  00000	55		 push	 ebp
  00001	8b ec		 mov	 ebp, esp
  00003	81 ec c0 00 00
	00		 sub	 esp, 192		; 000000c0H
  00009	53		 push	 ebx
  0000a	56		 push	 esi
  0000b	57		 push	 edi
  0000c	8b fd		 mov	 edi, ebp
  0000e	33 c9		 xor	 ecx, ecx
  00010	b8 cc cc cc cc	 mov	 eax, -858993460		; ccccccccH
  00015	f3 ab		 rep stosd
  00017	b9 00 00 00 00	 mov	 ecx, OFFSET __589FA321_type_traits
  0001c	e8 00 00 00 00	 call	 @__CheckForDebuggerJustMyCode@4

; 1397 :     return static_cast<remove_reference_t<_Ty>&&>(_Arg);

  00021	8b 45 08	 mov	 eax, DWORD PTR __Arg$[ebp]

; 1398 : }

  00024	5f		 pop	 edi
  00025	5e		 pop	 esi
  00026	5b		 pop	 ebx
  00027	81 c4 c0 00 00
	00		 add	 esp, 192		; 000000c0H
  0002d	3b ec		 cmp	 ebp, esp
  0002f	e8 00 00 00 00	 call	 __RTC_CheckEsp
  00034	8b e5		 mov	 esp, ebp
  00036	5d		 pop	 ebp
  00037	c3		 ret	 0
??$move@AAV?$allocator@D@std@@@std@@YA$$QAV?$allocator@D@0@AAV10@@Z ENDP ; std::move<std::allocator<char> &>
_TEXT	ENDS
; Function compile flags: /Odtp /RTCsu /ZI
; File C:\Program Files (x86)\Microsoft Visual Studio\2019\Community\VC\Tools\MSVC\14.29.30133\include\xmemory
;	COMDAT ??$?0D@?$allocator@U_Container_proxy@std@@@std@@QAE@ABV?$allocator@D@1@@Z
_TEXT	SEGMENT
_this$ = -8						; size = 4
___formal$ = 8						; size = 4
??$?0D@?$allocator@U_Container_proxy@std@@@std@@QAE@ABV?$allocator@D@1@@Z PROC ; std::allocator<std::_Container_proxy>::allocator<std::_Container_proxy><char>, COMDAT
; _this$ = ecx

; 791  :     constexpr allocator(const allocator<_Other>&) noexcept {}

  00000	55		 push	 ebp
  00001	8b ec		 mov	 ebp, esp
  00003	81 ec cc 00 00
	00		 sub	 esp, 204		; 000000ccH
  00009	53		 push	 ebx
  0000a	56		 push	 esi
  0000b	57		 push	 edi
  0000c	51		 push	 ecx
  0000d	8d 7d f4	 lea	 edi, DWORD PTR [ebp-12]
  00010	b9 03 00 00 00	 mov	 ecx, 3
  00015	b8 cc cc cc cc	 mov	 eax, -858993460		; ccccccccH
  0001a	f3 ab		 rep stosd
  0001c	59		 pop	 ecx
  0001d	89 4d f8	 mov	 DWORD PTR _this$[ebp], ecx
  00020	b9 00 00 00 00	 mov	 ecx, OFFSET __79D216CD_xmemory
  00025	e8 00 00 00 00	 call	 @__CheckForDebuggerJustMyCode@4
  0002a	8b 45 f8	 mov	 eax, DWORD PTR _this$[ebp]
  0002d	5f		 pop	 edi
  0002e	5e		 pop	 esi
  0002f	5b		 pop	 ebx
  00030	81 c4 cc 00 00
	00		 add	 esp, 204		; 000000ccH
  00036	3b ec		 cmp	 ebp, esp
  00038	e8 00 00 00 00	 call	 __RTC_CheckEsp
  0003d	8b e5		 mov	 esp, ebp
  0003f	5d		 pop	 ebp
  00040	c2 04 00	 ret	 4
??$?0D@?$allocator@U_Container_proxy@std@@@std@@QAE@ABV?$allocator@D@1@@Z ENDP ; std::allocator<std::_Container_proxy>::allocator<std::_Container_proxy><char>
_TEXT	ENDS
; Function compile flags: /Odtp /RTCsu /ZI
; File C:\Program Files (x86)\Microsoft Visual Studio\2019\Community\VC\Tools\MSVC\14.29.30133\include\xmemory
;	COMDAT ??$_Alloc_proxy@V?$allocator@U_Container_proxy@std@@@std@@@_Container_base12@std@@QAEX$$QAV?$allocator@U_Container_proxy@std@@@1@@Z
_TEXT	SEGMENT
$T1 = -224						; size = 4
__New_proxy$ = -20					; size = 4
_this$ = -8						; size = 4
__Al$ = 8						; size = 4
??$_Alloc_proxy@V?$allocator@U_Container_proxy@std@@@std@@@_Container_base12@std@@QAEX$$QAV?$allocator@U_Container_proxy@std@@@1@@Z PROC ; std::_Container_base12::_Alloc_proxy<std::allocator<std::_Container_proxy> >, COMDAT
; _this$ = ecx

; 1017 :     _CONSTEXPR20_CONTAINER void _Alloc_proxy(_Alloc&& _Al) {

  00000	55		 push	 ebp
  00001	8b ec		 mov	 ebp, esp
  00003	81 ec e4 00 00
	00		 sub	 esp, 228		; 000000e4H
  00009	53		 push	 ebx
  0000a	56		 push	 esi
  0000b	57		 push	 edi
  0000c	51		 push	 ecx
  0000d	8d 7d dc	 lea	 edi, DWORD PTR [ebp-36]
  00010	b9 09 00 00 00	 mov	 ecx, 9
  00015	b8 cc cc cc cc	 mov	 eax, -858993460		; ccccccccH
  0001a	f3 ab		 rep stosd
  0001c	59		 pop	 ecx
  0001d	89 4d f8	 mov	 DWORD PTR _this$[ebp], ecx
  00020	b9 00 00 00 00	 mov	 ecx, OFFSET __79D216CD_xmemory
  00025	e8 00 00 00 00	 call	 @__CheckForDebuggerJustMyCode@4

; 1018 :         _Container_proxy* const _New_proxy = _Unfancy(_Al.allocate(1));

  0002a	6a 01		 push	 1
  0002c	8b 4d 08	 mov	 ecx, DWORD PTR __Al$[ebp]
  0002f	e8 00 00 00 00	 call	 ?allocate@?$allocator@U_Container_proxy@std@@@std@@QAEPAU_Container_proxy@2@I@Z ; std::allocator<std::_Container_proxy>::allocate
  00034	50		 push	 eax
  00035	e8 00 00 00 00	 call	 ??$_Unfancy@U_Container_proxy@std@@@std@@YAPAU_Container_proxy@0@PAU10@@Z ; std::_Unfancy<std::_Container_proxy>
  0003a	83 c4 04	 add	 esp, 4
  0003d	89 45 ec	 mov	 DWORD PTR __New_proxy$[ebp], eax

; 1019 :         _Construct_in_place(*_New_proxy, this);

  00040	8b 45 f8	 mov	 eax, DWORD PTR _this$[ebp]
  00043	89 85 20 ff ff
	ff		 mov	 DWORD PTR $T1[ebp], eax
  00049	8d 8d 20 ff ff
	ff		 lea	 ecx, DWORD PTR $T1[ebp]
  0004f	51		 push	 ecx
  00050	8b 55 ec	 mov	 edx, DWORD PTR __New_proxy$[ebp]
  00053	52		 push	 edx
  00054	e8 00 00 00 00	 call	 ??$_Construct_in_place@U_Container_proxy@std@@PAU_Container_base12@2@@std@@YAXAAU_Container_proxy@0@$$QAPAU_Container_base12@0@@Z ; std::_Construct_in_place<std::_Container_proxy,std::_Container_base12 *>
  00059	83 c4 08	 add	 esp, 8

; 1020 :         _Myproxy            = _New_proxy;

  0005c	8b 45 f8	 mov	 eax, DWORD PTR _this$[ebp]
  0005f	8b 4d ec	 mov	 ecx, DWORD PTR __New_proxy$[ebp]
  00062	89 08		 mov	 DWORD PTR [eax], ecx

; 1021 :         _New_proxy->_Mycont = this;

  00064	8b 45 ec	 mov	 eax, DWORD PTR __New_proxy$[ebp]
  00067	8b 4d f8	 mov	 ecx, DWORD PTR _this$[ebp]
  0006a	89 08		 mov	 DWORD PTR [eax], ecx

; 1022 :     }

  0006c	5f		 pop	 edi
  0006d	5e		 pop	 esi
  0006e	5b		 pop	 ebx
  0006f	81 c4 e4 00 00
	00		 add	 esp, 228		; 000000e4H
  00075	3b ec		 cmp	 ebp, esp
  00077	e8 00 00 00 00	 call	 __RTC_CheckEsp
  0007c	8b e5		 mov	 esp, ebp
  0007e	5d		 pop	 ebp
  0007f	c2 04 00	 ret	 4
??$_Alloc_proxy@V?$allocator@U_Container_proxy@std@@@std@@@_Container_base12@std@@QAEX$$QAV?$allocator@U_Container_proxy@std@@@1@@Z ENDP ; std::_Container_base12::_Alloc_proxy<std::allocator<std::_Container_proxy> >
_TEXT	ENDS
; Function compile flags: /Odtp /RTCsu /ZI
; File C:\Program Files (x86)\Microsoft Visual Studio\2019\Community\VC\Tools\MSVC\14.29.30133\include\xmemory
;	COMDAT ??1?$_Container_proxy_ptr12@V?$allocator@U_Container_proxy@std@@@std@@@std@@QAE@XZ
_TEXT	SEGMENT
_this$ = -8						; size = 4
??1?$_Container_proxy_ptr12@V?$allocator@U_Container_proxy@std@@@std@@@std@@QAE@XZ PROC ; std::_Container_proxy_ptr12<std::allocator<std::_Container_proxy> >::~_Container_proxy_ptr12<std::allocator<std::_Container_proxy> >, COMDAT
; _this$ = ecx

; 1295 :     _CONSTEXPR20_CONTAINER ~_Container_proxy_ptr12() {

  00000	55		 push	 ebp
  00001	8b ec		 mov	 ebp, esp
  00003	81 ec cc 00 00
	00		 sub	 esp, 204		; 000000ccH
  00009	53		 push	 ebx
  0000a	56		 push	 esi
  0000b	57		 push	 edi
  0000c	51		 push	 ecx
  0000d	8d 7d f4	 lea	 edi, DWORD PTR [ebp-12]
  00010	b9 03 00 00 00	 mov	 ecx, 3
  00015	b8 cc cc cc cc	 mov	 eax, -858993460		; ccccccccH
  0001a	f3 ab		 rep stosd
  0001c	59		 pop	 ecx
  0001d	89 4d f8	 mov	 DWORD PTR _this$[ebp], ecx
  00020	b9 00 00 00 00	 mov	 ecx, OFFSET __79D216CD_xmemory
  00025	e8 00 00 00 00	 call	 @__CheckForDebuggerJustMyCode@4

; 1296 :         if (_Ptr) {

  0002a	8b 45 f8	 mov	 eax, DWORD PTR _this$[ebp]
  0002d	83 38 00	 cmp	 DWORD PTR [eax], 0
  00030	74 15		 je	 SHORT $LN3@Container_

; 1297 :             _Delete_plain_internal(_Al, _Ptr);

  00032	8b 45 f8	 mov	 eax, DWORD PTR _this$[ebp]
  00035	8b 08		 mov	 ecx, DWORD PTR [eax]
  00037	51		 push	 ecx
  00038	8b 55 f8	 mov	 edx, DWORD PTR _this$[ebp]
  0003b	8b 42 04	 mov	 eax, DWORD PTR [edx+4]
  0003e	50		 push	 eax
  0003f	e8 00 00 00 00	 call	 ??$_Delete_plain_internal@V?$allocator@U_Container_proxy@std@@@std@@@std@@YAXAAV?$allocator@U_Container_proxy@std@@@0@QAU_Container_proxy@0@@Z ; std::_Delete_plain_internal<std::allocator<std::_Container_proxy> >
  00044	83 c4 08	 add	 esp, 8
$LN3@Container_:

; 1298 :         }
; 1299 :     }

  00047	5f		 pop	 edi
  00048	5e		 pop	 esi
  00049	5b		 pop	 ebx
  0004a	81 c4 cc 00 00
	00		 add	 esp, 204		; 000000ccH
  00050	3b ec		 cmp	 ebp, esp
  00052	e8 00 00 00 00	 call	 __RTC_CheckEsp
  00057	8b e5		 mov	 esp, ebp
  00059	5d		 pop	 ebp
  0005a	c3		 ret	 0
??1?$_Container_proxy_ptr12@V?$allocator@U_Container_proxy@std@@@std@@@std@@QAE@XZ ENDP ; std::_Container_proxy_ptr12<std::allocator<std::_Container_proxy> >::~_Container_proxy_ptr12<std::allocator<std::_Container_proxy> >
_TEXT	ENDS
; Function compile flags: /Odtp /RTCsu /ZI
; File C:\Program Files (x86)\Microsoft Visual Studio\2019\Community\VC\Tools\MSVC\14.29.30133\include\xmemory
;	COMDAT ??0?$_Container_proxy_ptr12@V?$allocator@U_Container_proxy@std@@@std@@@std@@QAE@AAV?$allocator@U_Container_proxy@std@@@1@AAU_Container_base12@1@@Z
_TEXT	SEGMENT
$T1 = -212						; size = 4
_this$ = -8						; size = 4
__Al_$ = 8						; size = 4
__Mycont$ = 12						; size = 4
??0?$_Container_proxy_ptr12@V?$allocator@U_Container_proxy@std@@@std@@@std@@QAE@AAV?$allocator@U_Container_proxy@std@@@1@AAU_Container_base12@1@@Z PROC ; std::_Container_proxy_ptr12<std::allocator<std::_Container_proxy> >::_Container_proxy_ptr12<std::allocator<std::_Container_proxy> >, COMDAT
; _this$ = ecx

; 1281 :     _CONSTEXPR20_CONTAINER _Container_proxy_ptr12(_Alloc& _Al_, _Container_base12& _Mycont) : _Al(_Al_) {

  00000	55		 push	 ebp
  00001	8b ec		 mov	 ebp, esp
  00003	81 ec d8 00 00
	00		 sub	 esp, 216		; 000000d8H
  00009	53		 push	 ebx
  0000a	56		 push	 esi
  0000b	57		 push	 edi
  0000c	51		 push	 ecx
  0000d	8d 7d e8	 lea	 edi, DWORD PTR [ebp-24]
  00010	b9 06 00 00 00	 mov	 ecx, 6
  00015	b8 cc cc cc cc	 mov	 eax, -858993460		; ccccccccH
  0001a	f3 ab		 rep stosd
  0001c	59		 pop	 ecx
  0001d	89 4d f8	 mov	 DWORD PTR _this$[ebp], ecx
  00020	b9 00 00 00 00	 mov	 ecx, OFFSET __79D216CD_xmemory
  00025	e8 00 00 00 00	 call	 @__CheckForDebuggerJustMyCode@4
  0002a	8b 4d f8	 mov	 ecx, DWORD PTR _this$[ebp]
  0002d	e8 00 00 00 00	 call	 ??0_Basic_container_proxy_ptr12@std@@IAE@XZ ; std::_Basic_container_proxy_ptr12::_Basic_container_proxy_ptr12
  00032	8b 45 f8	 mov	 eax, DWORD PTR _this$[ebp]
  00035	8b 4d 08	 mov	 ecx, DWORD PTR __Al_$[ebp]
  00038	89 48 04	 mov	 DWORD PTR [eax+4], ecx

; 1282 :         // create a new _Container_proxy pointing at _Mycont
; 1283 :         _Ptr = _Unfancy(_Al_.allocate(1));

  0003b	6a 01		 push	 1
  0003d	8b 4d 08	 mov	 ecx, DWORD PTR __Al_$[ebp]
  00040	e8 00 00 00 00	 call	 ?allocate@?$allocator@U_Container_proxy@std@@@std@@QAEPAU_Container_proxy@2@I@Z ; std::allocator<std::_Container_proxy>::allocate
  00045	50		 push	 eax
  00046	e8 00 00 00 00	 call	 ??$_Unfancy@U_Container_proxy@std@@@std@@YAPAU_Container_proxy@0@PAU10@@Z ; std::_Unfancy<std::_Container_proxy>
  0004b	83 c4 04	 add	 esp, 4
  0004e	8b 4d f8	 mov	 ecx, DWORD PTR _this$[ebp]
  00051	89 01		 mov	 DWORD PTR [ecx], eax

; 1284 :         _Construct_in_place(*_Ptr, _STD addressof(_Mycont));

  00053	8b 45 0c	 mov	 eax, DWORD PTR __Mycont$[ebp]
  00056	50		 push	 eax
  00057	e8 00 00 00 00	 call	 ??$addressof@U_Container_base12@std@@@std@@YAPAU_Container_base12@0@AAU10@@Z ; std::addressof<std::_Container_base12>
  0005c	83 c4 04	 add	 esp, 4
  0005f	89 85 2c ff ff
	ff		 mov	 DWORD PTR $T1[ebp], eax
  00065	8d 8d 2c ff ff
	ff		 lea	 ecx, DWORD PTR $T1[ebp]
  0006b	51		 push	 ecx
  0006c	8b 55 f8	 mov	 edx, DWORD PTR _this$[ebp]
  0006f	8b 02		 mov	 eax, DWORD PTR [edx]
  00071	50		 push	 eax
  00072	e8 00 00 00 00	 call	 ??$_Construct_in_place@U_Container_proxy@std@@PAU_Container_base12@2@@std@@YAXAAU_Container_proxy@0@$$QAPAU_Container_base12@0@@Z ; std::_Construct_in_place<std::_Container_proxy,std::_Container_base12 *>
  00077	83 c4 08	 add	 esp, 8

; 1285 :         _Mycont._Myproxy = _Ptr;

  0007a	8b 45 0c	 mov	 eax, DWORD PTR __Mycont$[ebp]
  0007d	8b 4d f8	 mov	 ecx, DWORD PTR _this$[ebp]
  00080	8b 11		 mov	 edx, DWORD PTR [ecx]
  00082	89 10		 mov	 DWORD PTR [eax], edx

; 1286 :     }

  00084	8b 45 f8	 mov	 eax, DWORD PTR _this$[ebp]
  00087	5f		 pop	 edi
  00088	5e		 pop	 esi
  00089	5b		 pop	 ebx
  0008a	81 c4 d8 00 00
	00		 add	 esp, 216		; 000000d8H
  00090	3b ec		 cmp	 ebp, esp
  00092	e8 00 00 00 00	 call	 __RTC_CheckEsp
  00097	8b e5		 mov	 esp, ebp
  00099	5d		 pop	 ebp
  0009a	c2 08 00	 ret	 8
??0?$_Container_proxy_ptr12@V?$allocator@U_Container_proxy@std@@@std@@@std@@QAE@AAV?$allocator@U_Container_proxy@std@@@1@AAU_Container_base12@1@@Z ENDP ; std::_Container_proxy_ptr12<std::allocator<std::_Container_proxy> >::_Container_proxy_ptr12<std::allocator<std::_Container_proxy> >
_TEXT	ENDS
; Function compile flags: /Odtp /RTCsu /ZI
; File C:\Program Files (x86)\Microsoft Visual Studio\2019\Community\VC\Tools\MSVC\14.29.30133\include\xmemory
;	COMDAT ??$_Delete_plain_internal@V?$allocator@U_Container_proxy@std@@@std@@@std@@YAXAAV?$allocator@U_Container_proxy@std@@@0@QAU_Container_proxy@0@@Z
_TEXT	SEGMENT
__Al$ = 8						; size = 4
__Ptr$ = 12						; size = 4
??$_Delete_plain_internal@V?$allocator@U_Container_proxy@std@@@std@@@std@@YAXAAV?$allocator@U_Container_proxy@std@@@0@QAU_Container_proxy@0@@Z PROC ; std::_Delete_plain_internal<std::allocator<std::_Container_proxy> >, COMDAT

; 945  : _CONSTEXPR20_DYNALLOC void _Delete_plain_internal(_Alloc& _Al, typename _Alloc::value_type* const _Ptr) noexcept {

  00000	55		 push	 ebp
  00001	8b ec		 mov	 ebp, esp
  00003	81 ec c0 00 00
	00		 sub	 esp, 192		; 000000c0H
  00009	53		 push	 ebx
  0000a	56		 push	 esi
  0000b	57		 push	 edi
  0000c	8b fd		 mov	 edi, ebp
  0000e	33 c9		 xor	 ecx, ecx
  00010	b8 cc cc cc cc	 mov	 eax, -858993460		; ccccccccH
  00015	f3 ab		 rep stosd
  00017	b9 00 00 00 00	 mov	 ecx, OFFSET __79D216CD_xmemory
  0001c	e8 00 00 00 00	 call	 @__CheckForDebuggerJustMyCode@4

; 946  :     // destroy *_Ptr in place, then deallocate _Ptr using _Al; used for internal container types the user didn't name
; 947  :     using _Ty = typename _Alloc::value_type;
; 948  :     _Ptr->~_Ty();
; 949  :     _Deallocate_plain(_Al, _Ptr);

  00021	8b 45 0c	 mov	 eax, DWORD PTR __Ptr$[ebp]
  00024	50		 push	 eax
  00025	8b 4d 08	 mov	 ecx, DWORD PTR __Al$[ebp]
  00028	51		 push	 ecx
  00029	e8 00 00 00 00	 call	 ??$_Deallocate_plain@V?$allocator@U_Container_proxy@std@@@std@@@std@@YAXAAV?$allocator@U_Container_proxy@std@@@0@QAU_Container_proxy@0@@Z ; std::_Deallocate_plain<std::allocator<std::_Container_proxy> >
  0002e	83 c4 08	 add	 esp, 8

; 950  : }

  00031	5f		 pop	 edi
  00032	5e		 pop	 esi
  00033	5b		 pop	 ebx
  00034	81 c4 c0 00 00
	00		 add	 esp, 192		; 000000c0H
  0003a	3b ec		 cmp	 ebp, esp
  0003c	e8 00 00 00 00	 call	 __RTC_CheckEsp
  00041	8b e5		 mov	 esp, ebp
  00043	5d		 pop	 ebp
  00044	c3		 ret	 0
??$_Delete_plain_internal@V?$allocator@U_Container_proxy@std@@@std@@@std@@YAXAAV?$allocator@U_Container_proxy@std@@@0@QAU_Container_proxy@0@@Z ENDP ; std::_Delete_plain_internal<std::allocator<std::_Container_proxy> >
_TEXT	ENDS
; Function compile flags: /Odtp /RTCsu /ZI
; File C:\Program Files (x86)\Microsoft Visual Studio\2019\Community\VC\Tools\MSVC\14.29.30133\include\xmemory
;	COMDAT ?allocate@?$allocator@U_Container_proxy@std@@@std@@QAEPAU_Container_proxy@2@I@Z
_TEXT	SEGMENT
_this$ = -8						; size = 4
__Count$ = 8						; size = 4
?allocate@?$allocator@U_Container_proxy@std@@@std@@QAEPAU_Container_proxy@2@I@Z PROC ; std::allocator<std::_Container_proxy>::allocate, COMDAT
; _this$ = ecx

; 800  :     _NODISCARD _CONSTEXPR20_DYNALLOC __declspec(allocator) _Ty* allocate(_CRT_GUARDOVERFLOW const size_t _Count) {

  00000	55		 push	 ebp
  00001	8b ec		 mov	 ebp, esp
  00003	81 ec cc 00 00
	00		 sub	 esp, 204		; 000000ccH
  00009	53		 push	 ebx
  0000a	56		 push	 esi
  0000b	57		 push	 edi
  0000c	51		 push	 ecx
  0000d	8d 7d f4	 lea	 edi, DWORD PTR [ebp-12]
  00010	b9 03 00 00 00	 mov	 ecx, 3
  00015	b8 cc cc cc cc	 mov	 eax, -858993460		; ccccccccH
  0001a	f3 ab		 rep stosd
  0001c	59		 pop	 ecx
  0001d	89 4d f8	 mov	 DWORD PTR _this$[ebp], ecx
  00020	b9 00 00 00 00	 mov	 ecx, OFFSET __79D216CD_xmemory
  00025	e8 00 00 00 00	 call	 @__CheckForDebuggerJustMyCode@4

; 801  :         return static_cast<_Ty*>(_Allocate<_New_alignof<_Ty>>(_Get_size_of_n<sizeof(_Ty)>(_Count)));

  0002a	8b 45 08	 mov	 eax, DWORD PTR __Count$[ebp]
  0002d	50		 push	 eax
  0002e	e8 00 00 00 00	 call	 ??$_Get_size_of_n@$07@std@@YAII@Z ; std::_Get_size_of_n<8>
  00033	83 c4 04	 add	 esp, 4
  00036	50		 push	 eax
  00037	e8 00 00 00 00	 call	 ??$_Allocate@$07U_Default_allocate_traits@std@@$0A@@std@@YAPAXI@Z ; std::_Allocate<8,std::_Default_allocate_traits,0>
  0003c	83 c4 04	 add	 esp, 4

; 802  :     }

  0003f	5f		 pop	 edi
  00040	5e		 pop	 esi
  00041	5b		 pop	 ebx
  00042	81 c4 cc 00 00
	00		 add	 esp, 204		; 000000ccH
  00048	3b ec		 cmp	 ebp, esp
  0004a	e8 00 00 00 00	 call	 __RTC_CheckEsp
  0004f	8b e5		 mov	 esp, ebp
  00051	5d		 pop	 ebp
  00052	c2 04 00	 ret	 4
?allocate@?$allocator@U_Container_proxy@std@@@std@@QAEPAU_Container_proxy@2@I@Z ENDP ; std::allocator<std::_Container_proxy>::allocate
_TEXT	ENDS
; Function compile flags: /Odtp /RTCsu /ZI
; File C:\Program Files (x86)\Microsoft Visual Studio\2019\Community\VC\Tools\MSVC\14.29.30133\include\utility
;	COMDAT ??$min@I@std@@YAABIABI0@Z
_TEXT	SEGMENT
tv65 = -208						; size = 4
$T1 = -200						; size = 4
__Left$ = 8						; size = 4
__Right$ = 12						; size = 4
??$min@I@std@@YAABIABI0@Z PROC				; std::min<unsigned int>, COMDAT

; 64   :     const _Ty& _Left, const _Ty& _Right) noexcept(noexcept(_Right < _Left)) /* strengthened */ {

  00000	55		 push	 ebp
  00001	8b ec		 mov	 ebp, esp
  00003	81 ec d0 00 00
	00		 sub	 esp, 208		; 000000d0H
  00009	53		 push	 ebx
  0000a	56		 push	 esi
  0000b	57		 push	 edi
  0000c	8d 7d f0	 lea	 edi, DWORD PTR [ebp-16]
  0000f	b9 04 00 00 00	 mov	 ecx, 4
  00014	b8 cc cc cc cc	 mov	 eax, -858993460		; ccccccccH
  00019	f3 ab		 rep stosd
  0001b	b9 00 00 00 00	 mov	 ecx, OFFSET __1347750E_utility
  00020	e8 00 00 00 00	 call	 @__CheckForDebuggerJustMyCode@4

; 65   :     // return smaller of _Left and _Right
; 66   :     return _Right < _Left ? _Right : _Left;

  00025	8b 45 0c	 mov	 eax, DWORD PTR __Right$[ebp]
  00028	8b 4d 08	 mov	 ecx, DWORD PTR __Left$[ebp]
  0002b	8b 10		 mov	 edx, DWORD PTR [eax]
  0002d	3b 11		 cmp	 edx, DWORD PTR [ecx]
  0002f	73 0b		 jae	 SHORT $LN3@min
  00031	8b 45 0c	 mov	 eax, DWORD PTR __Right$[ebp]
  00034	89 85 30 ff ff
	ff		 mov	 DWORD PTR tv65[ebp], eax
  0003a	eb 09		 jmp	 SHORT $LN4@min
$LN3@min:
  0003c	8b 4d 08	 mov	 ecx, DWORD PTR __Left$[ebp]
  0003f	89 8d 30 ff ff
	ff		 mov	 DWORD PTR tv65[ebp], ecx
$LN4@min:
  00045	8b 95 30 ff ff
	ff		 mov	 edx, DWORD PTR tv65[ebp]
  0004b	89 95 38 ff ff
	ff		 mov	 DWORD PTR $T1[ebp], edx
  00051	8b 85 38 ff ff
	ff		 mov	 eax, DWORD PTR $T1[ebp]

; 67   : }

  00057	5f		 pop	 edi
  00058	5e		 pop	 esi
  00059	5b		 pop	 ebx
  0005a	81 c4 d0 00 00
	00		 add	 esp, 208		; 000000d0H
  00060	3b ec		 cmp	 ebp, esp
  00062	e8 00 00 00 00	 call	 __RTC_CheckEsp
  00067	8b e5		 mov	 esp, ebp
  00069	5d		 pop	 ebp
  0006a	c3		 ret	 0
??$min@I@std@@YAABIABI0@Z ENDP				; std::min<unsigned int>
_TEXT	ENDS
; Function compile flags: /Odtp /RTCsu /ZI
; File C:\Program Files (x86)\Microsoft Visual Studio\2019\Community\VC\Tools\MSVC\14.29.30133\include\string
;	COMDAT ?stoi@std@@YAHABV?$basic_string@DU?$char_traits@D@std@@V?$allocator@D@2@@1@PAIH@Z
_TEXT	SEGMENT
__Ans$ = -48						; size = 4
__Eptr$ = -36						; size = 4
__Ptr$ = -24						; size = 4
__Errno_ref$ = -12					; size = 4
__$ArrayPad$ = -4					; size = 4
__Str$ = 8						; size = 4
__Idx$ = 12						; size = 4
__Base$ = 16						; size = 4
?stoi@std@@YAHABV?$basic_string@DU?$char_traits@D@std@@V?$allocator@D@2@@1@PAIH@Z PROC ; std::stoi, COMDAT

; 86   : inline int stoi(const string& _Str, size_t* _Idx = nullptr, int _Base = 10) {

  00000	55		 push	 ebp
  00001	8b ec		 mov	 ebp, esp
  00003	81 ec f4 00 00
	00		 sub	 esp, 244		; 000000f4H
  00009	53		 push	 ebx
  0000a	56		 push	 esi
  0000b	57		 push	 edi
  0000c	8d 7d cc	 lea	 edi, DWORD PTR [ebp-52]
  0000f	b9 0d 00 00 00	 mov	 ecx, 13			; 0000000dH
  00014	b8 cc cc cc cc	 mov	 eax, -858993460		; ccccccccH
  00019	f3 ab		 rep stosd
  0001b	a1 00 00 00 00	 mov	 eax, DWORD PTR ___security_cookie
  00020	33 c5		 xor	 eax, ebp
  00022	89 45 fc	 mov	 DWORD PTR __$ArrayPad$[ebp], eax
  00025	b9 00 00 00 00	 mov	 ecx, OFFSET __B7987E10_string
  0002a	e8 00 00 00 00	 call	 @__CheckForDebuggerJustMyCode@4

; 87   :     // convert string to int
; 88   :     int& _Errno_ref  = errno; // Nonzero cost, pay it once

  0002f	8b f4		 mov	 esi, esp
  00031	ff 15 00 00 00
	00		 call	 DWORD PTR __imp___errno
  00037	3b f4		 cmp	 esi, esp
  00039	e8 00 00 00 00	 call	 __RTC_CheckEsp
  0003e	89 45 f4	 mov	 DWORD PTR __Errno_ref$[ebp], eax

; 89   :     const char* _Ptr = _Str.c_str();

  00041	8b 4d 08	 mov	 ecx, DWORD PTR __Str$[ebp]
  00044	e8 00 00 00 00	 call	 ?c_str@?$basic_string@DU?$char_traits@D@std@@V?$allocator@D@2@@std@@QBEPBDXZ ; std::basic_string<char,std::char_traits<char>,std::allocator<char> >::c_str
  00049	89 45 e8	 mov	 DWORD PTR __Ptr$[ebp], eax

; 90   :     char* _Eptr;
; 91   :     _Errno_ref      = 0;

  0004c	8b 45 f4	 mov	 eax, DWORD PTR __Errno_ref$[ebp]
  0004f	c7 00 00 00 00
	00		 mov	 DWORD PTR [eax], 0

; 92   :     const long _Ans = _CSTD strtol(_Ptr, &_Eptr, _Base);

  00055	8b f4		 mov	 esi, esp
  00057	8b 45 10	 mov	 eax, DWORD PTR __Base$[ebp]
  0005a	50		 push	 eax
  0005b	8d 4d dc	 lea	 ecx, DWORD PTR __Eptr$[ebp]
  0005e	51		 push	 ecx
  0005f	8b 55 e8	 mov	 edx, DWORD PTR __Ptr$[ebp]
  00062	52		 push	 edx
  00063	ff 15 00 00 00
	00		 call	 DWORD PTR __imp__strtol
  00069	83 c4 0c	 add	 esp, 12			; 0000000cH
  0006c	3b f4		 cmp	 esi, esp
  0006e	e8 00 00 00 00	 call	 __RTC_CheckEsp
  00073	89 45 d0	 mov	 DWORD PTR __Ans$[ebp], eax

; 93   : 
; 94   :     if (_Ptr == _Eptr) {

  00076	8b 45 e8	 mov	 eax, DWORD PTR __Ptr$[ebp]
  00079	3b 45 dc	 cmp	 eax, DWORD PTR __Eptr$[ebp]
  0007c	75 0a		 jne	 SHORT $LN2@stoi

; 95   :         _Xinvalid_argument("invalid stoi argument");

  0007e	68 00 00 00 00	 push	 OFFSET ??_C@_0BG@HGEDEDEC@invalid?5stoi?5argument@
  00083	e8 00 00 00 00	 call	 ?_Xinvalid_argument@std@@YAXPBD@Z ; std::_Xinvalid_argument
$LN2@stoi:

; 96   :     }
; 97   : 
; 98   :     if (_Errno_ref == ERANGE || _Ans < INT_MIN || INT_MAX < _Ans) {

  00088	8b 45 f4	 mov	 eax, DWORD PTR __Errno_ref$[ebp]
  0008b	83 38 22	 cmp	 DWORD PTR [eax], 34	; 00000022H
  0008e	74 12		 je	 SHORT $LN4@stoi
  00090	81 7d d0 00 00
	00 80		 cmp	 DWORD PTR __Ans$[ebp], -2147483648 ; 80000000H
  00097	7c 09		 jl	 SHORT $LN4@stoi
  00099	81 7d d0 ff ff
	ff 7f		 cmp	 DWORD PTR __Ans$[ebp], 2147483647 ; 7fffffffH
  000a0	7e 0a		 jle	 SHORT $LN3@stoi
$LN4@stoi:

; 99   :         _Xout_of_range("stoi argument out of range");

  000a2	68 00 00 00 00	 push	 OFFSET ??_C@_0BL@MFFNMGGC@stoi?5argument?5out?5of?5range@
  000a7	e8 00 00 00 00	 call	 ?_Xout_of_range@std@@YAXPBD@Z ; std::_Xout_of_range
$LN3@stoi:

; 100  :     }
; 101  : 
; 102  :     if (_Idx) {

  000ac	83 7d 0c 00	 cmp	 DWORD PTR __Idx$[ebp], 0
  000b0	74 0b		 je	 SHORT $LN5@stoi

; 103  :         *_Idx = static_cast<size_t>(_Eptr - _Ptr);

  000b2	8b 45 dc	 mov	 eax, DWORD PTR __Eptr$[ebp]
  000b5	2b 45 e8	 sub	 eax, DWORD PTR __Ptr$[ebp]
  000b8	8b 4d 0c	 mov	 ecx, DWORD PTR __Idx$[ebp]
  000bb	89 01		 mov	 DWORD PTR [ecx], eax
$LN5@stoi:

; 104  :     }
; 105  : 
; 106  :     return static_cast<int>(_Ans);

  000bd	8b 45 d0	 mov	 eax, DWORD PTR __Ans$[ebp]
$LN6@stoi:

; 107  : }

  000c0	52		 push	 edx
  000c1	8b cd		 mov	 ecx, ebp
  000c3	50		 push	 eax
  000c4	8d 15 00 00 00
	00		 lea	 edx, DWORD PTR $LN9@stoi
  000ca	e8 00 00 00 00	 call	 @_RTC_CheckStackVars@8
  000cf	58		 pop	 eax
  000d0	5a		 pop	 edx
  000d1	5f		 pop	 edi
  000d2	5e		 pop	 esi
  000d3	5b		 pop	 ebx
  000d4	8b 4d fc	 mov	 ecx, DWORD PTR __$ArrayPad$[ebp]
  000d7	33 cd		 xor	 ecx, ebp
  000d9	e8 00 00 00 00	 call	 @__security_check_cookie@4
  000de	81 c4 f4 00 00
	00		 add	 esp, 244		; 000000f4H
  000e4	3b ec		 cmp	 ebp, esp
  000e6	e8 00 00 00 00	 call	 __RTC_CheckEsp
  000eb	8b e5		 mov	 esp, ebp
  000ed	5d		 pop	 ebp
  000ee	c3		 ret	 0
  000ef	90		 npad	 1
$LN9@stoi:
  000f0	01 00 00 00	 DD	 1
  000f4	00 00 00 00	 DD	 $LN8@stoi
$LN8@stoi:
  000f8	dc ff ff ff	 DD	 -36			; ffffffdcH
  000fc	04 00 00 00	 DD	 4
  00100	00 00 00 00	 DD	 $LN7@stoi
$LN7@stoi:
  00104	5f		 DB	 95			; 0000005fH
  00105	45		 DB	 69			; 00000045H
  00106	70		 DB	 112			; 00000070H
  00107	74		 DB	 116			; 00000074H
  00108	72		 DB	 114			; 00000072H
  00109	00		 DB	 0
?stoi@std@@YAHABV?$basic_string@DU?$char_traits@D@std@@V?$allocator@D@2@@1@PAIH@Z ENDP ; std::stoi
_TEXT	ENDS
; Function compile flags: /Odtp /RTCsu /ZI
; File C:\Program Files (x86)\Microsoft Visual Studio\2019\Community\VC\Tools\MSVC\14.29.30133\include\xlocale
;	COMDAT ??$use_facet@V?$ctype@D@std@@@std@@YAABV?$ctype@D@0@ABVlocale@0@@Z
_TEXT	SEGMENT
$T2 = -288						; size = 4
__Psave_guard$3 = -84					; size = 4
__Pfmod$4 = -72						; size = 4
__Pf$5 = -60						; size = 4
__Id$6 = -48						; size = 4
__Psave$7 = -36						; size = 4
__Lock$8 = -24						; size = 4
__$ArrayPad$ = -16					; size = 4
__$EHRec$ = -12						; size = 12
__Loc$ = 8						; size = 4
??$use_facet@V?$ctype@D@std@@@std@@YAABV?$ctype@D@0@ABVlocale@0@@Z PROC ; std::use_facet<std::ctype<char> >, COMDAT

; 422  : const _Facet& __CRTDECL use_facet(const locale& _Loc) { // get facet reference from locale

  00000	55		 push	 ebp
  00001	8b ec		 mov	 ebp, esp
  00003	6a ff		 push	 -1
  00005	68 00 00 00 00	 push	 __ehhandler$??$use_facet@V?$ctype@D@std@@@std@@YAABV?$ctype@D@0@ABVlocale@0@@Z
  0000a	64 a1 00 00 00
	00		 mov	 eax, DWORD PTR fs:0
  00010	50		 push	 eax
  00011	81 ec 18 01 00
	00		 sub	 esp, 280		; 00000118H
  00017	53		 push	 ebx
  00018	56		 push	 esi
  00019	57		 push	 edi
  0001a	8d 7d 9c	 lea	 edi, DWORD PTR [ebp-100]
  0001d	b9 16 00 00 00	 mov	 ecx, 22			; 00000016H
  00022	b8 cc cc cc cc	 mov	 eax, -858993460		; ccccccccH
  00027	f3 ab		 rep stosd
  00029	a1 00 00 00 00	 mov	 eax, DWORD PTR ___security_cookie
  0002e	33 c5		 xor	 eax, ebp
  00030	89 45 f0	 mov	 DWORD PTR __$ArrayPad$[ebp], eax
  00033	50		 push	 eax
  00034	8d 45 f4	 lea	 eax, DWORD PTR __$EHRec$[ebp]
  00037	64 a3 00 00 00
	00		 mov	 DWORD PTR fs:0, eax
  0003d	b9 00 00 00 00	 mov	 ecx, OFFSET __D23FE460_xlocale
  00042	e8 00 00 00 00	 call	 @__CheckForDebuggerJustMyCode@4

; 423  :     _BEGIN_LOCK(_LOCK_LOCALE) // the thread lock, make get atomic

  00047	8b f4		 mov	 esi, esp
  00049	6a 00		 push	 0
  0004b	8d 4d e8	 lea	 ecx, DWORD PTR __Lock$8[ebp]
  0004e	ff 15 00 00 00
	00		 call	 DWORD PTR __imp_??0_Lockit@std@@QAE@H@Z
  00054	3b f4		 cmp	 esi, esp
  00056	e8 00 00 00 00	 call	 __RTC_CheckEsp
  0005b	c7 45 fc 00 00
	00 00		 mov	 DWORD PTR __$EHRec$[ebp+8], 0

; 424  :     const locale::facet* _Psave = _Facetptr<_Facet>::_Psave; // static pointer to lazy facet

  00062	a1 00 00 00 00	 mov	 eax, DWORD PTR ?_Psave@?$_Facetptr@V?$ctype@D@std@@@std@@2PBVfacet@locale@2@B ; std::_Facetptr<std::ctype<char> >::_Psave
  00067	89 45 dc	 mov	 DWORD PTR __Psave$7[ebp], eax

; 425  : 
; 426  :     const size_t _Id         = _Facet::id;

  0006a	8b f4		 mov	 esi, esp
  0006c	8b 0d 00 00 00
	00		 mov	 ecx, DWORD PTR __imp_?id@?$ctype@D@std@@2V0locale@2@A
  00072	ff 15 00 00 00
	00		 call	 DWORD PTR __imp_??Bid@locale@std@@QAEIXZ
  00078	3b f4		 cmp	 esi, esp
  0007a	e8 00 00 00 00	 call	 __RTC_CheckEsp
  0007f	89 45 d0	 mov	 DWORD PTR __Id$6[ebp], eax

; 427  :     const locale::facet* _Pf = _Loc._Getfacet(_Id);

  00082	8b 45 d0	 mov	 eax, DWORD PTR __Id$6[ebp]
  00085	50		 push	 eax
  00086	8b 4d 08	 mov	 ecx, DWORD PTR __Loc$[ebp]
  00089	e8 00 00 00 00	 call	 ?_Getfacet@locale@std@@QBEPBVfacet@12@I@Z ; std::locale::_Getfacet
  0008e	89 45 c4	 mov	 DWORD PTR __Pf$5[ebp], eax

; 428  : 
; 429  :     if (!_Pf) {

  00091	83 7d c4 00	 cmp	 DWORD PTR __Pf$5[ebp], 0
  00095	0f 85 9b 00 00
	00		 jne	 $LN2@use_facet

; 430  :         if (_Psave) {

  0009b	83 7d dc 00	 cmp	 DWORD PTR __Psave$7[ebp], 0
  0009f	74 0b		 je	 SHORT $LN3@use_facet

; 431  :             _Pf = _Psave; // lazy facet already allocated

  000a1	8b 45 dc	 mov	 eax, DWORD PTR __Psave$7[ebp]
  000a4	89 45 c4	 mov	 DWORD PTR __Pf$5[ebp], eax
  000a7	e9 8a 00 00 00	 jmp	 $LN2@use_facet
$LN3@use_facet:

; 432  :         } else if (_Facet::_Getcat(&_Psave, &_Loc) == static_cast<size_t>(-1)) {

  000ac	8b f4		 mov	 esi, esp
  000ae	8b 45 08	 mov	 eax, DWORD PTR __Loc$[ebp]
  000b1	50		 push	 eax
  000b2	8d 4d dc	 lea	 ecx, DWORD PTR __Psave$7[ebp]
  000b5	51		 push	 ecx
  000b6	ff 15 00 00 00
	00		 call	 DWORD PTR __imp_?_Getcat@?$ctype@D@std@@SAIPAPBVfacet@locale@2@PBV42@@Z
  000bc	83 c4 08	 add	 esp, 8
  000bf	3b f4		 cmp	 esi, esp
  000c1	e8 00 00 00 00	 call	 __RTC_CheckEsp
  000c6	83 f8 ff	 cmp	 eax, -1
  000c9	75 07		 jne	 SHORT $LN5@use_facet

; 433  : #if _HAS_EXCEPTIONS
; 434  :             _Throw_bad_cast(); // lazy disallowed

  000cb	e8 00 00 00 00	 call	 ?_Throw_bad_cast@std@@YAXXZ ; std::_Throw_bad_cast

; 435  : #else // _HAS_EXCEPTIONS
; 436  :             _CSTD abort(); // lazy disallowed
; 437  : #endif // _HAS_EXCEPTIONS
; 438  :         } else { // queue up lazy facet for destruction

  000d0	eb 64		 jmp	 SHORT $LN2@use_facet
$LN5@use_facet:

; 439  :             auto _Pfmod = const_cast<locale::facet*>(_Psave);

  000d2	8b 45 dc	 mov	 eax, DWORD PTR __Psave$7[ebp]
  000d5	89 45 b8	 mov	 DWORD PTR __Pfmod$4[ebp], eax

; 440  :             unique_ptr<_Facet_base> _Psave_guard(static_cast<_Facet_base*>(_Pfmod));

  000d8	6a 04		 push	 4
  000da	8d 4d ac	 lea	 ecx, DWORD PTR __Psave_guard$3[ebp]
  000dd	e8 00 00 00 00	 call	 ?__autoclassinit2@?$unique_ptr@V_Facet_base@std@@U?$default_delete@V_Facet_base@std@@@2@@std@@QAEXI@Z
  000e2	8b 45 b8	 mov	 eax, DWORD PTR __Pfmod$4[ebp]
  000e5	50		 push	 eax
  000e6	8d 4d ac	 lea	 ecx, DWORD PTR __Psave_guard$3[ebp]
  000e9	e8 00 00 00 00	 call	 ??$?0U?$default_delete@V_Facet_base@std@@@std@@$0A@@?$unique_ptr@V_Facet_base@std@@U?$default_delete@V_Facet_base@std@@@2@@std@@QAE@PAV_Facet_base@1@@Z ; std::unique_ptr<std::_Facet_base,std::default_delete<std::_Facet_base> >::unique_ptr<std::_Facet_base,std::default_delete<std::_Facet_base> ><std::default_delete<std::_Facet_base>,0>
  000ee	c6 45 fc 01	 mov	 BYTE PTR __$EHRec$[ebp+8], 1

; 441  : 
; 442  : #if defined(_M_CEE)
; 443  :             _Facet_Register_m(_Pfmod);
; 444  : #else // defined(_M_CEE)
; 445  :             _Facet_Register(_Pfmod);

  000f2	8b 45 b8	 mov	 eax, DWORD PTR __Pfmod$4[ebp]
  000f5	50		 push	 eax
  000f6	e8 00 00 00 00	 call	 ?_Facet_Register@std@@YAXPAV_Facet_base@1@@Z ; std::_Facet_Register
  000fb	83 c4 04	 add	 esp, 4

; 446  : #endif // defined(_M_CEE)
; 447  : 
; 448  :             _Pfmod->_Incref();

  000fe	8b 45 b8	 mov	 eax, DWORD PTR __Pfmod$4[ebp]
  00101	8b 10		 mov	 edx, DWORD PTR [eax]
  00103	8b f4		 mov	 esi, esp
  00105	8b 4d b8	 mov	 ecx, DWORD PTR __Pfmod$4[ebp]
  00108	8b 42 04	 mov	 eax, DWORD PTR [edx+4]
  0010b	ff d0		 call	 eax
  0010d	3b f4		 cmp	 esi, esp
  0010f	e8 00 00 00 00	 call	 __RTC_CheckEsp

; 449  :             _Facetptr<_Facet>::_Psave = _Psave;

  00114	8b 45 dc	 mov	 eax, DWORD PTR __Psave$7[ebp]
  00117	a3 00 00 00 00	 mov	 DWORD PTR ?_Psave@?$_Facetptr@V?$ctype@D@std@@@std@@2PBVfacet@locale@2@B, eax ; std::_Facetptr<std::ctype<char> >::_Psave

; 450  :             _Pf                       = _Psave;

  0011c	8b 45 dc	 mov	 eax, DWORD PTR __Psave$7[ebp]
  0011f	89 45 c4	 mov	 DWORD PTR __Pf$5[ebp], eax

; 451  : 
; 452  :             (void) _Psave_guard.release();

  00122	8d 4d ac	 lea	 ecx, DWORD PTR __Psave_guard$3[ebp]
  00125	e8 00 00 00 00	 call	 ?release@?$unique_ptr@V_Facet_base@std@@U?$default_delete@V_Facet_base@std@@@2@@std@@QAEPAV_Facet_base@2@XZ ; std::unique_ptr<std::_Facet_base,std::default_delete<std::_Facet_base> >::release

; 453  :         }

  0012a	c6 45 fc 00	 mov	 BYTE PTR __$EHRec$[ebp+8], 0
  0012e	8d 4d ac	 lea	 ecx, DWORD PTR __Psave_guard$3[ebp]
  00131	e8 00 00 00 00	 call	 ??1?$unique_ptr@V_Facet_base@std@@U?$default_delete@V_Facet_base@std@@@2@@std@@QAE@XZ ; std::unique_ptr<std::_Facet_base,std::default_delete<std::_Facet_base> >::~unique_ptr<std::_Facet_base,std::default_delete<std::_Facet_base> >
$LN2@use_facet:

; 454  :     }
; 455  : 
; 456  :     return static_cast<const _Facet&>(*_Pf); // should be dynamic_cast

  00136	8b 45 c4	 mov	 eax, DWORD PTR __Pf$5[ebp]
  00139	89 85 e0 fe ff
	ff		 mov	 DWORD PTR $T2[ebp], eax
  0013f	c7 45 fc ff ff
	ff ff		 mov	 DWORD PTR __$EHRec$[ebp+8], -1
  00146	8b f4		 mov	 esi, esp
  00148	8d 4d e8	 lea	 ecx, DWORD PTR __Lock$8[ebp]
  0014b	ff 15 00 00 00
	00		 call	 DWORD PTR __imp_??1_Lockit@std@@QAE@XZ
  00151	3b f4		 cmp	 esi, esp
  00153	e8 00 00 00 00	 call	 __RTC_CheckEsp
  00158	8b 85 e0 fe ff
	ff		 mov	 eax, DWORD PTR $T2[ebp]
$LN7@use_facet:

; 457  :     _END_LOCK()
; 458  : } // end of use_facet body

  0015e	52		 push	 edx
  0015f	8b cd		 mov	 ecx, ebp
  00161	50		 push	 eax
  00162	8d 15 00 00 00
	00		 lea	 edx, DWORD PTR $LN15@use_facet
  00168	e8 00 00 00 00	 call	 @_RTC_CheckStackVars@8
  0016d	58		 pop	 eax
  0016e	5a		 pop	 edx
  0016f	8b 4d f4	 mov	 ecx, DWORD PTR __$EHRec$[ebp]
  00172	64 89 0d 00 00
	00 00		 mov	 DWORD PTR fs:0, ecx
  00179	59		 pop	 ecx
  0017a	5f		 pop	 edi
  0017b	5e		 pop	 esi
  0017c	5b		 pop	 ebx
  0017d	8b 4d f0	 mov	 ecx, DWORD PTR __$ArrayPad$[ebp]
  00180	33 cd		 xor	 ecx, ebp
  00182	e8 00 00 00 00	 call	 @__security_check_cookie@4
  00187	81 c4 24 01 00
	00		 add	 esp, 292		; 00000124H
  0018d	3b ec		 cmp	 ebp, esp
  0018f	e8 00 00 00 00	 call	 __RTC_CheckEsp
  00194	8b e5		 mov	 esp, ebp
  00196	5d		 pop	 ebp
  00197	c3		 ret	 0
$LN15@use_facet:
  00198	03 00 00 00	 DD	 3
  0019c	00 00 00 00	 DD	 $LN14@use_facet
$LN14@use_facet:
  001a0	e8 ff ff ff	 DD	 -24			; ffffffe8H
  001a4	04 00 00 00	 DD	 4
  001a8	00 00 00 00	 DD	 $LN10@use_facet
  001ac	dc ff ff ff	 DD	 -36			; ffffffdcH
  001b0	04 00 00 00	 DD	 4
  001b4	00 00 00 00	 DD	 $LN11@use_facet
  001b8	ac ff ff ff	 DD	 -84			; ffffffacH
  001bc	04 00 00 00	 DD	 4
  001c0	00 00 00 00	 DD	 $LN12@use_facet
$LN12@use_facet:
  001c4	5f		 DB	 95			; 0000005fH
  001c5	50		 DB	 80			; 00000050H
  001c6	73		 DB	 115			; 00000073H
  001c7	61		 DB	 97			; 00000061H
  001c8	76		 DB	 118			; 00000076H
  001c9	65		 DB	 101			; 00000065H
  001ca	5f		 DB	 95			; 0000005fH
  001cb	67		 DB	 103			; 00000067H
  001cc	75		 DB	 117			; 00000075H
  001cd	61		 DB	 97			; 00000061H
  001ce	72		 DB	 114			; 00000072H
  001cf	64		 DB	 100			; 00000064H
  001d0	00		 DB	 0
$LN11@use_facet:
  001d1	5f		 DB	 95			; 0000005fH
  001d2	50		 DB	 80			; 00000050H
  001d3	73		 DB	 115			; 00000073H
  001d4	61		 DB	 97			; 00000061H
  001d5	76		 DB	 118			; 00000076H
  001d6	65		 DB	 101			; 00000065H
  001d7	00		 DB	 0
$LN10@use_facet:
  001d8	5f		 DB	 95			; 0000005fH
  001d9	4c		 DB	 76			; 0000004cH
  001da	6f		 DB	 111			; 0000006fH
  001db	63		 DB	 99			; 00000063H
  001dc	6b		 DB	 107			; 0000006bH
  001dd	00		 DB	 0
_TEXT	ENDS
;	COMDAT text$x
text$x	SEGMENT
__unwindfunclet$??$use_facet@V?$ctype@D@std@@@std@@YAABV?$ctype@D@0@ABVlocale@0@@Z$0:
  00000	8b f4		 mov	 esi, esp
  00002	8d 4d e8	 lea	 ecx, DWORD PTR __Lock$8[ebp]
  00005	ff 15 00 00 00
	00		 call	 DWORD PTR __imp_??1_Lockit@std@@QAE@XZ
  0000b	3b f4		 cmp	 esi, esp
  0000d	e9 00 00 00 00	 jmp	 __RTC_CheckEsp
__unwindfunclet$??$use_facet@V?$ctype@D@std@@@std@@YAABV?$ctype@D@0@ABVlocale@0@@Z$1:
  00012	8d 4d ac	 lea	 ecx, DWORD PTR __Psave_guard$3[ebp]
  00015	e9 00 00 00 00	 jmp	 ??1?$unique_ptr@V_Facet_base@std@@U?$default_delete@V_Facet_base@std@@@2@@std@@QAE@XZ ; std::unique_ptr<std::_Facet_base,std::default_delete<std::_Facet_base> >::~unique_ptr<std::_Facet_base,std::default_delete<std::_Facet_base> >
  0001a	cc		 int	 3
  0001b	cc		 int	 3
  0001c	cc		 int	 3
  0001d	cc		 int	 3
  0001e	cc		 int	 3
__ehhandler$??$use_facet@V?$ctype@D@std@@@std@@YAABV?$ctype@D@0@ABVlocale@0@@Z:
  0001f	90		 npad	 1
  00020	90		 npad	 1
  00021	8b 54 24 08	 mov	 edx, DWORD PTR [esp+8]
  00025	8d 42 0c	 lea	 eax, DWORD PTR [edx+12]
  00028	8b 8a d8 fe ff
	ff		 mov	 ecx, DWORD PTR [edx-296]
  0002e	33 c8		 xor	 ecx, eax
  00030	e8 00 00 00 00	 call	 @__security_check_cookie@4
  00035	8b 4a fc	 mov	 ecx, DWORD PTR [edx-4]
  00038	33 c8		 xor	 ecx, eax
  0003a	e8 00 00 00 00	 call	 @__security_check_cookie@4
  0003f	b8 00 00 00 00	 mov	 eax, OFFSET __ehfuncinfo$??$use_facet@V?$ctype@D@std@@@std@@YAABV?$ctype@D@0@ABVlocale@0@@Z
  00044	e9 00 00 00 00	 jmp	 ___CxxFrameHandler3
text$x	ENDS
??$use_facet@V?$ctype@D@std@@@std@@YAABV?$ctype@D@0@ABVlocale@0@@Z ENDP ; std::use_facet<std::ctype<char> >
; Function compile flags: /Odtp /RTCsu /ZI
; File C:\Program Files (x86)\Microsoft Visual Studio\2019\Community\VC\Tools\MSVC\14.29.30133\include\xlocale
;	COMDAT ?_Getfacet@locale@std@@QBEPBVfacet@12@I@Z
_TEXT	SEGMENT
tv71 = -232						; size = 4
__Ptr0$ = -32						; size = 4
__Facptr$ = -20						; size = 4
_this$ = -8						; size = 4
__Id$ = 8						; size = 4
?_Getfacet@locale@std@@QBEPBVfacet@12@I@Z PROC		; std::locale::_Getfacet, COMDAT
; _this$ = ecx

; 368  :     const facet* _Getfacet(size_t _Id) const { // look up a facet in locale object

  00000	55		 push	 ebp
  00001	8b ec		 mov	 ebp, esp
  00003	81 ec e8 00 00
	00		 sub	 esp, 232		; 000000e8H
  00009	53		 push	 ebx
  0000a	56		 push	 esi
  0000b	57		 push	 edi
  0000c	51		 push	 ecx
  0000d	8d 7d d8	 lea	 edi, DWORD PTR [ebp-40]
  00010	b9 0a 00 00 00	 mov	 ecx, 10			; 0000000aH
  00015	b8 cc cc cc cc	 mov	 eax, -858993460		; ccccccccH
  0001a	f3 ab		 rep stosd
  0001c	59		 pop	 ecx
  0001d	89 4d f8	 mov	 DWORD PTR _this$[ebp], ecx
  00020	b9 00 00 00 00	 mov	 ecx, OFFSET __D23FE460_xlocale
  00025	e8 00 00 00 00	 call	 @__CheckForDebuggerJustMyCode@4

; 369  :         const facet* _Facptr = _Id < _Ptr->_Facetcount ? _Ptr->_Facetvec[_Id] : nullptr; // null if id off end

  0002a	8b 45 f8	 mov	 eax, DWORD PTR _this$[ebp]
  0002d	8b 48 04	 mov	 ecx, DWORD PTR [eax+4]
  00030	8b 55 08	 mov	 edx, DWORD PTR __Id$[ebp]
  00033	3b 51 0c	 cmp	 edx, DWORD PTR [ecx+12]
  00036	73 17		 jae	 SHORT $LN6@Getfacet
  00038	8b 45 f8	 mov	 eax, DWORD PTR _this$[ebp]
  0003b	8b 48 04	 mov	 ecx, DWORD PTR [eax+4]
  0003e	8b 51 08	 mov	 edx, DWORD PTR [ecx+8]
  00041	8b 45 08	 mov	 eax, DWORD PTR __Id$[ebp]
  00044	8b 0c 82	 mov	 ecx, DWORD PTR [edx+eax*4]
  00047	89 8d 18 ff ff
	ff		 mov	 DWORD PTR tv71[ebp], ecx
  0004d	eb 0a		 jmp	 SHORT $LN7@Getfacet
$LN6@Getfacet:
  0004f	c7 85 18 ff ff
	ff 00 00 00 00	 mov	 DWORD PTR tv71[ebp], 0
$LN7@Getfacet:
  00059	8b 95 18 ff ff
	ff		 mov	 edx, DWORD PTR tv71[ebp]
  0005f	89 55 ec	 mov	 DWORD PTR __Facptr$[ebp], edx

; 370  :         if (_Facptr || !_Ptr->_Xparent) {

  00062	83 7d ec 00	 cmp	 DWORD PTR __Facptr$[ebp], 0
  00066	75 0e		 jne	 SHORT $LN3@Getfacet
  00068	8b 45 f8	 mov	 eax, DWORD PTR _this$[ebp]
  0006b	8b 48 04	 mov	 ecx, DWORD PTR [eax+4]
  0006e	0f b6 51 14	 movzx	 edx, BYTE PTR [ecx+20]
  00072	85 d2		 test	 edx, edx
  00074	75 05		 jne	 SHORT $LN2@Getfacet
$LN3@Getfacet:

; 371  :             return _Facptr; // found facet or not transparent

  00076	8b 45 ec	 mov	 eax, DWORD PTR __Facptr$[ebp]
  00079	eb 23		 jmp	 SHORT $LN1@Getfacet
$LN2@Getfacet:

; 372  :         }
; 373  : 
; 374  :         // look in current locale
; 375  :         locale::_Locimp* _Ptr0 = _Getgloballocale();

  0007b	e8 00 00 00 00	 call	 ?_Getgloballocale@locale@std@@CAPAV_Locimp@12@XZ ; std::locale::_Getgloballocale
  00080	89 45 e0	 mov	 DWORD PTR __Ptr0$[ebp], eax

; 376  :         if (_Id < _Ptr0->_Facetcount) {

  00083	8b 45 e0	 mov	 eax, DWORD PTR __Ptr0$[ebp]
  00086	8b 4d 08	 mov	 ecx, DWORD PTR __Id$[ebp]
  00089	3b 48 0c	 cmp	 ecx, DWORD PTR [eax+12]
  0008c	73 0e		 jae	 SHORT $LN4@Getfacet

; 377  :             return _Ptr0->_Facetvec[_Id]; // get from current locale

  0008e	8b 45 e0	 mov	 eax, DWORD PTR __Ptr0$[ebp]
  00091	8b 48 08	 mov	 ecx, DWORD PTR [eax+8]
  00094	8b 55 08	 mov	 edx, DWORD PTR __Id$[ebp]
  00097	8b 04 91	 mov	 eax, DWORD PTR [ecx+edx*4]
  0009a	eb 02		 jmp	 SHORT $LN1@Getfacet
$LN4@Getfacet:

; 378  :         }
; 379  : 
; 380  :         return nullptr; // no entry in current locale

  0009c	33 c0		 xor	 eax, eax
$LN1@Getfacet:

; 381  :     }

  0009e	5f		 pop	 edi
  0009f	5e		 pop	 esi
  000a0	5b		 pop	 ebx
  000a1	81 c4 e8 00 00
	00		 add	 esp, 232		; 000000e8H
  000a7	3b ec		 cmp	 ebp, esp
  000a9	e8 00 00 00 00	 call	 __RTC_CheckEsp
  000ae	8b e5		 mov	 esp, ebp
  000b0	5d		 pop	 ebp
  000b1	c2 04 00	 ret	 4
?_Getfacet@locale@std@@QBEPBVfacet@12@I@Z ENDP		; std::locale::_Getfacet
_TEXT	ENDS
; Function compile flags: /Odtp /RTCsu /ZI
; File C:\Program Files (x86)\Microsoft Visual Studio\2019\Community\VC\Tools\MSVC\14.29.30133\include\xlocale
;	COMDAT ??1locale@std@@QAE@XZ
_TEXT	SEGMENT
tv84 = -220						; size = 4
$T1 = -212						; size = 4
_this$ = -8						; size = 4
??1locale@std@@QAE@XZ PROC				; std::locale::~locale, COMDAT
; _this$ = ecx

; 345  :     ~locale() noexcept {

  00000	55		 push	 ebp
  00001	8b ec		 mov	 ebp, esp
  00003	81 ec dc 00 00
	00		 sub	 esp, 220		; 000000dcH
  00009	53		 push	 ebx
  0000a	56		 push	 esi
  0000b	57		 push	 edi
  0000c	51		 push	 ecx
  0000d	8d 7d e4	 lea	 edi, DWORD PTR [ebp-28]
  00010	b9 07 00 00 00	 mov	 ecx, 7
  00015	b8 cc cc cc cc	 mov	 eax, -858993460		; ccccccccH
  0001a	f3 ab		 rep stosd
  0001c	59		 pop	 ecx
  0001d	89 4d f8	 mov	 DWORD PTR _this$[ebp], ecx
  00020	b9 00 00 00 00	 mov	 ecx, OFFSET __D23FE460_xlocale
  00025	e8 00 00 00 00	 call	 @__CheckForDebuggerJustMyCode@4

; 346  :         if (_Ptr) {

  0002a	8b 45 f8	 mov	 eax, DWORD PTR _this$[ebp]
  0002d	83 78 04 00	 cmp	 DWORD PTR [eax+4], 0
  00031	74 5a		 je	 SHORT $LN3@locale

; 347  :             delete _Ptr->_Decref();

  00033	8b 45 f8	 mov	 eax, DWORD PTR _this$[ebp]
  00036	8b 48 04	 mov	 ecx, DWORD PTR [eax+4]
  00039	8b 55 f8	 mov	 edx, DWORD PTR _this$[ebp]
  0003c	8b 01		 mov	 eax, DWORD PTR [ecx]
  0003e	8b f4		 mov	 esi, esp
  00040	8b 4a 04	 mov	 ecx, DWORD PTR [edx+4]
  00043	8b 50 08	 mov	 edx, DWORD PTR [eax+8]
  00046	ff d2		 call	 edx
  00048	3b f4		 cmp	 esi, esp
  0004a	e8 00 00 00 00	 call	 __RTC_CheckEsp
  0004f	89 85 2c ff ff
	ff		 mov	 DWORD PTR $T1[ebp], eax
  00055	83 bd 2c ff ff
	ff 00		 cmp	 DWORD PTR $T1[ebp], 0
  0005c	74 25		 je	 SHORT $LN4@locale
  0005e	8b f4		 mov	 esi, esp
  00060	6a 01		 push	 1
  00062	8b 85 2c ff ff
	ff		 mov	 eax, DWORD PTR $T1[ebp]
  00068	8b 10		 mov	 edx, DWORD PTR [eax]
  0006a	8b 8d 2c ff ff
	ff		 mov	 ecx, DWORD PTR $T1[ebp]
  00070	8b 02		 mov	 eax, DWORD PTR [edx]
  00072	ff d0		 call	 eax
  00074	3b f4		 cmp	 esi, esp
  00076	e8 00 00 00 00	 call	 __RTC_CheckEsp
  0007b	89 85 24 ff ff
	ff		 mov	 DWORD PTR tv84[ebp], eax
  00081	eb 0a		 jmp	 SHORT $LN3@locale
$LN4@locale:
  00083	c7 85 24 ff ff
	ff 00 00 00 00	 mov	 DWORD PTR tv84[ebp], 0
$LN3@locale:

; 348  :         }
; 349  :     }

  0008d	5f		 pop	 edi
  0008e	5e		 pop	 esi
  0008f	5b		 pop	 ebx
  00090	81 c4 dc 00 00
	00		 add	 esp, 220		; 000000dcH
  00096	3b ec		 cmp	 ebp, esp
  00098	e8 00 00 00 00	 call	 __RTC_CheckEsp
  0009d	8b e5		 mov	 esp, ebp
  0009f	5d		 pop	 ebp
  000a0	c3		 ret	 0
??1locale@std@@QAE@XZ ENDP				; std::locale::~locale
_TEXT	ENDS
; Function compile flags: /Odtp /RTCsu /ZI
; File C:\Program Files (x86)\Microsoft Visual Studio\2019\Community\VC\Tools\MSVC\14.29.30133\include\typeinfo
;	COMDAT ?_Throw_bad_cast@std@@YAXXZ
_TEXT	SEGMENT
$T1 = -208						; size = 12
?_Throw_bad_cast@std@@YAXXZ PROC			; std::_Throw_bad_cast, COMDAT

; 62   : [[noreturn]] inline void _Throw_bad_cast() {

  00000	55		 push	 ebp
  00001	8b ec		 mov	 ebp, esp
  00003	81 ec d4 00 00
	00		 sub	 esp, 212		; 000000d4H
  00009	53		 push	 ebx
  0000a	56		 push	 esi
  0000b	57		 push	 edi
  0000c	8d 7d ec	 lea	 edi, DWORD PTR [ebp-20]
  0000f	b9 05 00 00 00	 mov	 ecx, 5
  00014	b8 cc cc cc cc	 mov	 eax, -858993460		; ccccccccH
  00019	f3 ab		 rep stosd
  0001b	b9 00 00 00 00	 mov	 ecx, OFFSET __62F96EFF_typeinfo
  00020	e8 00 00 00 00	 call	 @__CheckForDebuggerJustMyCode@4

; 63   :     _THROW(bad_cast{});

  00025	8d 8d 30 ff ff
	ff		 lea	 ecx, DWORD PTR $T1[ebp]
  0002b	e8 00 00 00 00	 call	 ??0bad_cast@std@@QAE@XZ	; std::bad_cast::bad_cast
  00030	68 00 00 00 00	 push	 OFFSET __TI2?AVbad_cast@std@@
  00035	8d 85 30 ff ff
	ff		 lea	 eax, DWORD PTR $T1[ebp]
  0003b	50		 push	 eax
  0003c	e8 00 00 00 00	 call	 __CxxThrowException@8
$LN2@Throw_bad_:

; 64   : }

  00041	5f		 pop	 edi
  00042	5e		 pop	 esi
  00043	5b		 pop	 ebx
  00044	81 c4 d4 00 00
	00		 add	 esp, 212		; 000000d4H
  0004a	3b ec		 cmp	 ebp, esp
  0004c	e8 00 00 00 00	 call	 __RTC_CheckEsp
  00051	8b e5		 mov	 esp, ebp
  00053	5d		 pop	 ebp
  00054	c3		 ret	 0
?_Throw_bad_cast@std@@YAXXZ ENDP			; std::_Throw_bad_cast
_TEXT	ENDS
; Function compile flags: /Odtp /RTCsu /ZI
;	COMDAT ??_Gbad_cast@std@@UAEPAXI@Z
_TEXT	SEGMENT
_this$ = -8						; size = 4
___flags$ = 8						; size = 4
??_Gbad_cast@std@@UAEPAXI@Z PROC			; std::bad_cast::`scalar deleting destructor', COMDAT
; _this$ = ecx
  00000	55		 push	 ebp
  00001	8b ec		 mov	 ebp, esp
  00003	81 ec cc 00 00
	00		 sub	 esp, 204		; 000000ccH
  00009	53		 push	 ebx
  0000a	56		 push	 esi
  0000b	57		 push	 edi
  0000c	51		 push	 ecx
  0000d	8d 7d f4	 lea	 edi, DWORD PTR [ebp-12]
  00010	b9 03 00 00 00	 mov	 ecx, 3
  00015	b8 cc cc cc cc	 mov	 eax, -858993460		; ccccccccH
  0001a	f3 ab		 rep stosd
  0001c	59		 pop	 ecx
  0001d	89 4d f8	 mov	 DWORD PTR _this$[ebp], ecx
  00020	8b 4d f8	 mov	 ecx, DWORD PTR _this$[ebp]
  00023	e8 00 00 00 00	 call	 ??1bad_cast@std@@UAE@XZ
  00028	8b 45 08	 mov	 eax, DWORD PTR ___flags$[ebp]
  0002b	83 e0 01	 and	 eax, 1
  0002e	74 0e		 je	 SHORT $LN2@scalar
  00030	6a 0c		 push	 12			; 0000000cH
  00032	8b 45 f8	 mov	 eax, DWORD PTR _this$[ebp]
  00035	50		 push	 eax
  00036	e8 00 00 00 00	 call	 ??3@YAXPAXI@Z		; operator delete
  0003b	83 c4 08	 add	 esp, 8
$LN2@scalar:
  0003e	8b 45 f8	 mov	 eax, DWORD PTR _this$[ebp]
  00041	5f		 pop	 edi
  00042	5e		 pop	 esi
  00043	5b		 pop	 ebx
  00044	81 c4 cc 00 00
	00		 add	 esp, 204		; 000000ccH
  0004a	3b ec		 cmp	 ebp, esp
  0004c	e8 00 00 00 00	 call	 __RTC_CheckEsp
  00051	8b e5		 mov	 esp, ebp
  00053	5d		 pop	 ebp
  00054	c2 04 00	 ret	 4
??_Gbad_cast@std@@UAEPAXI@Z ENDP			; std::bad_cast::`scalar deleting destructor'
_TEXT	ENDS
; Function compile flags: /Odtp /RTCsu /ZI
;	COMDAT ??0bad_cast@std@@QAE@ABV01@@Z
_TEXT	SEGMENT
_this$ = -8						; size = 4
___that$ = 8						; size = 4
??0bad_cast@std@@QAE@ABV01@@Z PROC			; std::bad_cast::bad_cast, COMDAT
; _this$ = ecx
  00000	55		 push	 ebp
  00001	8b ec		 mov	 ebp, esp
  00003	81 ec cc 00 00
	00		 sub	 esp, 204		; 000000ccH
  00009	53		 push	 ebx
  0000a	56		 push	 esi
  0000b	57		 push	 edi
  0000c	51		 push	 ecx
  0000d	8d 7d f4	 lea	 edi, DWORD PTR [ebp-12]
  00010	b9 03 00 00 00	 mov	 ecx, 3
  00015	b8 cc cc cc cc	 mov	 eax, -858993460		; ccccccccH
  0001a	f3 ab		 rep stosd
  0001c	59		 pop	 ecx
  0001d	89 4d f8	 mov	 DWORD PTR _this$[ebp], ecx
  00020	8b 45 08	 mov	 eax, DWORD PTR ___that$[ebp]
  00023	50		 push	 eax
  00024	8b 4d f8	 mov	 ecx, DWORD PTR _this$[ebp]
  00027	e8 00 00 00 00	 call	 ??0exception@std@@QAE@ABV01@@Z ; std::exception::exception
  0002c	8b 45 f8	 mov	 eax, DWORD PTR _this$[ebp]
  0002f	c7 00 00 00 00
	00		 mov	 DWORD PTR [eax], OFFSET ??_7bad_cast@std@@6B@
  00035	8b 45 f8	 mov	 eax, DWORD PTR _this$[ebp]
  00038	5f		 pop	 edi
  00039	5e		 pop	 esi
  0003a	5b		 pop	 ebx
  0003b	81 c4 cc 00 00
	00		 add	 esp, 204		; 000000ccH
  00041	3b ec		 cmp	 ebp, esp
  00043	e8 00 00 00 00	 call	 __RTC_CheckEsp
  00048	8b e5		 mov	 esp, ebp
  0004a	5d		 pop	 ebp
  0004b	c2 04 00	 ret	 4
??0bad_cast@std@@QAE@ABV01@@Z ENDP			; std::bad_cast::bad_cast
_TEXT	ENDS
; Function compile flags: /Odtp /RTCsu /ZI
;	COMDAT ??1bad_cast@std@@UAE@XZ
_TEXT	SEGMENT
_this$ = -8						; size = 4
??1bad_cast@std@@UAE@XZ PROC				; std::bad_cast::~bad_cast, COMDAT
; _this$ = ecx
  00000	55		 push	 ebp
  00001	8b ec		 mov	 ebp, esp
  00003	81 ec cc 00 00
	00		 sub	 esp, 204		; 000000ccH
  00009	53		 push	 ebx
  0000a	56		 push	 esi
  0000b	57		 push	 edi
  0000c	51		 push	 ecx
  0000d	8d 7d f4	 lea	 edi, DWORD PTR [ebp-12]
  00010	b9 03 00 00 00	 mov	 ecx, 3
  00015	b8 cc cc cc cc	 mov	 eax, -858993460		; ccccccccH
  0001a	f3 ab		 rep stosd
  0001c	59		 pop	 ecx
  0001d	89 4d f8	 mov	 DWORD PTR _this$[ebp], ecx
  00020	8b 4d f8	 mov	 ecx, DWORD PTR _this$[ebp]
  00023	e8 00 00 00 00	 call	 ??1exception@std@@UAE@XZ ; std::exception::~exception
  00028	5f		 pop	 edi
  00029	5e		 pop	 esi
  0002a	5b		 pop	 ebx
  0002b	81 c4 cc 00 00
	00		 add	 esp, 204		; 000000ccH
  00031	3b ec		 cmp	 ebp, esp
  00033	e8 00 00 00 00	 call	 __RTC_CheckEsp
  00038	8b e5		 mov	 esp, ebp
  0003a	5d		 pop	 ebp
  0003b	c3		 ret	 0
??1bad_cast@std@@UAE@XZ ENDP				; std::bad_cast::~bad_cast
_TEXT	ENDS
; Function compile flags: /Odtp /RTCsu /ZI
; File C:\Program Files (x86)\Microsoft Visual Studio\2019\Community\VC\Tools\MSVC\14.29.30133\include\vcruntime_typeinfo.h
;	COMDAT ??0bad_cast@std@@QAE@XZ
_TEXT	SEGMENT
_this$ = -8						; size = 4
??0bad_cast@std@@QAE@XZ PROC				; std::bad_cast::bad_cast, COMDAT
; _this$ = ecx

; 137  :     {

  00000	55		 push	 ebp
  00001	8b ec		 mov	 ebp, esp
  00003	81 ec cc 00 00
	00		 sub	 esp, 204		; 000000ccH
  00009	53		 push	 ebx
  0000a	56		 push	 esi
  0000b	57		 push	 edi
  0000c	51		 push	 ecx
  0000d	8d 7d f4	 lea	 edi, DWORD PTR [ebp-12]
  00010	b9 03 00 00 00	 mov	 ecx, 3
  00015	b8 cc cc cc cc	 mov	 eax, -858993460		; ccccccccH
  0001a	f3 ab		 rep stosd
  0001c	59		 pop	 ecx
  0001d	89 4d f8	 mov	 DWORD PTR _this$[ebp], ecx
  00020	b9 00 00 00 00	 mov	 ecx, OFFSET __65ADBEC9_vcruntime_typeinfo@h
  00025	e8 00 00 00 00	 call	 @__CheckForDebuggerJustMyCode@4

; 136  :         : exception("bad cast", 1)

  0002a	6a 01		 push	 1
  0002c	68 00 00 00 00	 push	 OFFSET ??_C@_08EPJLHIJG@bad?5cast@
  00031	8b 4d f8	 mov	 ecx, DWORD PTR _this$[ebp]
  00034	e8 00 00 00 00	 call	 ??0exception@std@@QAE@QBDH@Z ; std::exception::exception

; 137  :     {

  00039	8b 45 f8	 mov	 eax, DWORD PTR _this$[ebp]
  0003c	c7 00 00 00 00
	00		 mov	 DWORD PTR [eax], OFFSET ??_7bad_cast@std@@6B@

; 138  :     }

  00042	8b 45 f8	 mov	 eax, DWORD PTR _this$[ebp]
  00045	5f		 pop	 edi
  00046	5e		 pop	 esi
  00047	5b		 pop	 ebx
  00048	81 c4 cc 00 00
	00		 add	 esp, 204		; 000000ccH
  0004e	3b ec		 cmp	 ebp, esp
  00050	e8 00 00 00 00	 call	 __RTC_CheckEsp
  00055	8b e5		 mov	 esp, ebp
  00057	5d		 pop	 ebp
  00058	c3		 ret	 0
??0bad_cast@std@@QAE@XZ ENDP				; std::bad_cast::bad_cast
_TEXT	ENDS
; Function compile flags: /Odtp /RTCsu /ZI
;	COMDAT ??1?$_Compressed_pair@V?$allocator@D@std@@V?$_String_val@U?$_Simple_types@D@std@@@2@$00@std@@QAE@XZ
_TEXT	SEGMENT
_this$ = -8						; size = 4
??1?$_Compressed_pair@V?$allocator@D@std@@V?$_String_val@U?$_Simple_types@D@std@@@2@$00@std@@QAE@XZ PROC ; std::_Compressed_pair<std::allocator<char>,std::_String_val<std::_Simple_types<char> >,1>::~_Compressed_pair<std::allocator<char>,std::_String_val<std::_Simple_types<char> >,1>, COMDAT
; _this$ = ecx
  00000	55		 push	 ebp
  00001	8b ec		 mov	 ebp, esp
  00003	81 ec cc 00 00
	00		 sub	 esp, 204		; 000000ccH
  00009	53		 push	 ebx
  0000a	56		 push	 esi
  0000b	57		 push	 edi
  0000c	51		 push	 ecx
  0000d	8d 7d f4	 lea	 edi, DWORD PTR [ebp-12]
  00010	b9 03 00 00 00	 mov	 ecx, 3
  00015	b8 cc cc cc cc	 mov	 eax, -858993460		; ccccccccH
  0001a	f3 ab		 rep stosd
  0001c	59		 pop	 ecx
  0001d	89 4d f8	 mov	 DWORD PTR _this$[ebp], ecx
  00020	8b 4d f8	 mov	 ecx, DWORD PTR _this$[ebp]
  00023	e8 00 00 00 00	 call	 ??1?$_String_val@U?$_Simple_types@D@std@@@std@@QAE@XZ
  00028	5f		 pop	 edi
  00029	5e		 pop	 esi
  0002a	5b		 pop	 ebx
  0002b	81 c4 cc 00 00
	00		 add	 esp, 204		; 000000ccH
  00031	3b ec		 cmp	 ebp, esp
  00033	e8 00 00 00 00	 call	 __RTC_CheckEsp
  00038	8b e5		 mov	 esp, ebp
  0003a	5d		 pop	 ebp
  0003b	c3		 ret	 0
??1?$_Compressed_pair@V?$allocator@D@std@@V?$_String_val@U?$_Simple_types@D@std@@@2@$00@std@@QAE@XZ ENDP ; std::_Compressed_pair<std::allocator<char>,std::_String_val<std::_Simple_types<char> >,1>::~_Compressed_pair<std::allocator<char>,std::_String_val<std::_Simple_types<char> >,1>
_TEXT	ENDS
; Function compile flags: /Odtp /RTCsu /ZI
; File C:\Program Files (x86)\Microsoft Visual Studio\2019\Community\VC\Tools\MSVC\14.29.30133\include\xmemory
;	COMDAT ?_Get_first@?$_Compressed_pair@V?$allocator@D@std@@V?$_String_val@U?$_Simple_types@D@std@@@2@$00@std@@QBEABV?$allocator@D@2@XZ
_TEXT	SEGMENT
_this$ = -8						; size = 4
?_Get_first@?$_Compressed_pair@V?$allocator@D@std@@V?$_String_val@U?$_Simple_types@D@std@@@2@$00@std@@QBEABV?$allocator@D@2@XZ PROC ; std::_Compressed_pair<std::allocator<char>,std::_String_val<std::_Simple_types<char> >,1>::_Get_first, COMDAT
; _this$ = ecx

; 1342 :     constexpr const _Ty1& _Get_first() const noexcept {

  00000	55		 push	 ebp
  00001	8b ec		 mov	 ebp, esp
  00003	81 ec cc 00 00
	00		 sub	 esp, 204		; 000000ccH
  00009	53		 push	 ebx
  0000a	56		 push	 esi
  0000b	57		 push	 edi
  0000c	51		 push	 ecx
  0000d	8d 7d f4	 lea	 edi, DWORD PTR [ebp-12]
  00010	b9 03 00 00 00	 mov	 ecx, 3
  00015	b8 cc cc cc cc	 mov	 eax, -858993460		; ccccccccH
  0001a	f3 ab		 rep stosd
  0001c	59		 pop	 ecx
  0001d	89 4d f8	 mov	 DWORD PTR _this$[ebp], ecx
  00020	b9 00 00 00 00	 mov	 ecx, OFFSET __79D216CD_xmemory
  00025	e8 00 00 00 00	 call	 @__CheckForDebuggerJustMyCode@4

; 1343 :         return *this;

  0002a	8b 45 f8	 mov	 eax, DWORD PTR _this$[ebp]

; 1344 :     }

  0002d	5f		 pop	 edi
  0002e	5e		 pop	 esi
  0002f	5b		 pop	 ebx
  00030	81 c4 cc 00 00
	00		 add	 esp, 204		; 000000ccH
  00036	3b ec		 cmp	 ebp, esp
  00038	e8 00 00 00 00	 call	 __RTC_CheckEsp
  0003d	8b e5		 mov	 esp, ebp
  0003f	5d		 pop	 ebp
  00040	c3		 ret	 0
?_Get_first@?$_Compressed_pair@V?$allocator@D@std@@V?$_String_val@U?$_Simple_types@D@std@@@2@$00@std@@QBEABV?$allocator@D@2@XZ ENDP ; std::_Compressed_pair<std::allocator<char>,std::_String_val<std::_Simple_types<char> >,1>::_Get_first
_TEXT	ENDS
; Function compile flags: /Odtp /RTCsu /ZI
; File C:\Program Files (x86)\Microsoft Visual Studio\2019\Community\VC\Tools\MSVC\14.29.30133\include\xmemory
;	COMDAT ?_Get_first@?$_Compressed_pair@V?$allocator@D@std@@V?$_String_val@U?$_Simple_types@D@std@@@2@$00@std@@QAEAAV?$allocator@D@2@XZ
_TEXT	SEGMENT
_this$ = -8						; size = 4
?_Get_first@?$_Compressed_pair@V?$allocator@D@std@@V?$_String_val@U?$_Simple_types@D@std@@@2@$00@std@@QAEAAV?$allocator@D@2@XZ PROC ; std::_Compressed_pair<std::allocator<char>,std::_String_val<std::_Simple_types<char> >,1>::_Get_first, COMDAT
; _this$ = ecx

; 1338 :     constexpr _Ty1& _Get_first() noexcept {

  00000	55		 push	 ebp
  00001	8b ec		 mov	 ebp, esp
  00003	81 ec cc 00 00
	00		 sub	 esp, 204		; 000000ccH
  00009	53		 push	 ebx
  0000a	56		 push	 esi
  0000b	57		 push	 edi
  0000c	51		 push	 ecx
  0000d	8d 7d f4	 lea	 edi, DWORD PTR [ebp-12]
  00010	b9 03 00 00 00	 mov	 ecx, 3
  00015	b8 cc cc cc cc	 mov	 eax, -858993460		; ccccccccH
  0001a	f3 ab		 rep stosd
  0001c	59		 pop	 ecx
  0001d	89 4d f8	 mov	 DWORD PTR _this$[ebp], ecx
  00020	b9 00 00 00 00	 mov	 ecx, OFFSET __79D216CD_xmemory
  00025	e8 00 00 00 00	 call	 @__CheckForDebuggerJustMyCode@4

; 1339 :         return *this;

  0002a	8b 45 f8	 mov	 eax, DWORD PTR _this$[ebp]

; 1340 :     }

  0002d	5f		 pop	 edi
  0002e	5e		 pop	 esi
  0002f	5b		 pop	 ebx
  00030	81 c4 cc 00 00
	00		 add	 esp, 204		; 000000ccH
  00036	3b ec		 cmp	 ebp, esp
  00038	e8 00 00 00 00	 call	 __RTC_CheckEsp
  0003d	8b e5		 mov	 esp, ebp
  0003f	5d		 pop	 ebp
  00040	c3		 ret	 0
?_Get_first@?$_Compressed_pair@V?$allocator@D@std@@V?$_String_val@U?$_Simple_types@D@std@@@2@$00@std@@QAEAAV?$allocator@D@2@XZ ENDP ; std::_Compressed_pair<std::allocator<char>,std::_String_val<std::_Simple_types<char> >,1>::_Get_first
_TEXT	ENDS
; Function compile flags: /Odtp /RTCsu /ZI
; File C:\Program Files (x86)\Microsoft Visual Studio\2019\Community\VC\Tools\MSVC\14.29.30133\include\xstring
;	COMDAT ?_Getal@?$basic_string@DU?$char_traits@D@std@@V?$allocator@D@2@@std@@ABEABV?$allocator@D@2@XZ
_TEXT	SEGMENT
_this$ = -8						; size = 4
?_Getal@?$basic_string@DU?$char_traits@D@std@@V?$allocator@D@2@@std@@ABEABV?$allocator@D@2@XZ PROC ; std::basic_string<char,std::char_traits<char>,std::allocator<char> >::_Getal, COMDAT
; _this$ = ecx

; 4620 :     _CONSTEXPR20_CONTAINER const _Alty& _Getal() const noexcept {

  00000	55		 push	 ebp
  00001	8b ec		 mov	 ebp, esp
  00003	81 ec cc 00 00
	00		 sub	 esp, 204		; 000000ccH
  00009	53		 push	 ebx
  0000a	56		 push	 esi
  0000b	57		 push	 edi
  0000c	51		 push	 ecx
  0000d	8d 7d f4	 lea	 edi, DWORD PTR [ebp-12]
  00010	b9 03 00 00 00	 mov	 ecx, 3
  00015	b8 cc cc cc cc	 mov	 eax, -858993460		; ccccccccH
  0001a	f3 ab		 rep stosd
  0001c	59		 pop	 ecx
  0001d	89 4d f8	 mov	 DWORD PTR _this$[ebp], ecx
  00020	b9 00 00 00 00	 mov	 ecx, OFFSET __0D019051_xstring
  00025	e8 00 00 00 00	 call	 @__CheckForDebuggerJustMyCode@4

; 4621 :         return _Mypair._Get_first();

  0002a	8b 4d f8	 mov	 ecx, DWORD PTR _this$[ebp]
  0002d	e8 00 00 00 00	 call	 ?_Get_first@?$_Compressed_pair@V?$allocator@D@std@@V?$_String_val@U?$_Simple_types@D@std@@@2@$00@std@@QBEABV?$allocator@D@2@XZ ; std::_Compressed_pair<std::allocator<char>,std::_String_val<std::_Simple_types<char> >,1>::_Get_first

; 4622 :     }

  00032	5f		 pop	 edi
  00033	5e		 pop	 esi
  00034	5b		 pop	 ebx
  00035	81 c4 cc 00 00
	00		 add	 esp, 204		; 000000ccH
  0003b	3b ec		 cmp	 ebp, esp
  0003d	e8 00 00 00 00	 call	 __RTC_CheckEsp
  00042	8b e5		 mov	 esp, ebp
  00044	5d		 pop	 ebp
  00045	c3		 ret	 0
?_Getal@?$basic_string@DU?$char_traits@D@std@@V?$allocator@D@2@@std@@ABEABV?$allocator@D@2@XZ ENDP ; std::basic_string<char,std::char_traits<char>,std::allocator<char> >::_Getal
_TEXT	ENDS
; Function compile flags: /Odtp /RTCsu /ZI
; File C:\Program Files (x86)\Microsoft Visual Studio\2019\Community\VC\Tools\MSVC\14.29.30133\include\xstring
;	COMDAT ?_Getal@?$basic_string@DU?$char_traits@D@std@@V?$allocator@D@2@@std@@AAEAAV?$allocator@D@2@XZ
_TEXT	SEGMENT
_this$ = -8						; size = 4
?_Getal@?$basic_string@DU?$char_traits@D@std@@V?$allocator@D@2@@std@@AAEAAV?$allocator@D@2@XZ PROC ; std::basic_string<char,std::char_traits<char>,std::allocator<char> >::_Getal, COMDAT
; _this$ = ecx

; 4616 :     _CONSTEXPR20_CONTAINER _Alty& _Getal() noexcept {

  00000	55		 push	 ebp
  00001	8b ec		 mov	 ebp, esp
  00003	81 ec cc 00 00
	00		 sub	 esp, 204		; 000000ccH
  00009	53		 push	 ebx
  0000a	56		 push	 esi
  0000b	57		 push	 edi
  0000c	51		 push	 ecx
  0000d	8d 7d f4	 lea	 edi, DWORD PTR [ebp-12]
  00010	b9 03 00 00 00	 mov	 ecx, 3
  00015	b8 cc cc cc cc	 mov	 eax, -858993460		; ccccccccH
  0001a	f3 ab		 rep stosd
  0001c	59		 pop	 ecx
  0001d	89 4d f8	 mov	 DWORD PTR _this$[ebp], ecx
  00020	b9 00 00 00 00	 mov	 ecx, OFFSET __0D019051_xstring
  00025	e8 00 00 00 00	 call	 @__CheckForDebuggerJustMyCode@4

; 4617 :         return _Mypair._Get_first();

  0002a	8b 4d f8	 mov	 ecx, DWORD PTR _this$[ebp]
  0002d	e8 00 00 00 00	 call	 ?_Get_first@?$_Compressed_pair@V?$allocator@D@std@@V?$_String_val@U?$_Simple_types@D@std@@@2@$00@std@@QAEAAV?$allocator@D@2@XZ ; std::_Compressed_pair<std::allocator<char>,std::_String_val<std::_Simple_types<char> >,1>::_Get_first

; 4618 :     }

  00032	5f		 pop	 edi
  00033	5e		 pop	 esi
  00034	5b		 pop	 ebx
  00035	81 c4 cc 00 00
	00		 add	 esp, 204		; 000000ccH
  0003b	3b ec		 cmp	 ebp, esp
  0003d	e8 00 00 00 00	 call	 __RTC_CheckEsp
  00042	8b e5		 mov	 esp, ebp
  00044	5d		 pop	 ebp
  00045	c3		 ret	 0
?_Getal@?$basic_string@DU?$char_traits@D@std@@V?$allocator@D@2@@std@@AAEAAV?$allocator@D@2@XZ ENDP ; std::basic_string<char,std::char_traits<char>,std::allocator<char> >::_Getal
_TEXT	ENDS
; Function compile flags: /Odtp /RTCsu /ZI
; File C:\Program Files (x86)\Microsoft Visual Studio\2019\Community\VC\Tools\MSVC\14.29.30133\include\xstring
;	COMDAT ?_Swap_proxy_and_iterators@?$basic_string@DU?$char_traits@D@std@@V?$allocator@D@2@@std@@AAEXAAV12@@Z
_TEXT	SEGMENT
_this$ = -8						; size = 4
__Right$ = 8						; size = 4
?_Swap_proxy_and_iterators@?$basic_string@DU?$char_traits@D@std@@V?$allocator@D@2@@std@@AAEXAAV12@@Z PROC ; std::basic_string<char,std::char_traits<char>,std::allocator<char> >::_Swap_proxy_and_iterators, COMDAT
; _this$ = ecx

; 4612 :     _CONSTEXPR20_CONTAINER void _Swap_proxy_and_iterators(basic_string& _Right) {

  00000	55		 push	 ebp
  00001	8b ec		 mov	 ebp, esp
  00003	81 ec cc 00 00
	00		 sub	 esp, 204		; 000000ccH
  00009	53		 push	 ebx
  0000a	56		 push	 esi
  0000b	57		 push	 edi
  0000c	51		 push	 ecx
  0000d	8d 7d f4	 lea	 edi, DWORD PTR [ebp-12]
  00010	b9 03 00 00 00	 mov	 ecx, 3
  00015	b8 cc cc cc cc	 mov	 eax, -858993460		; ccccccccH
  0001a	f3 ab		 rep stosd
  0001c	59		 pop	 ecx
  0001d	89 4d f8	 mov	 DWORD PTR _this$[ebp], ecx
  00020	b9 00 00 00 00	 mov	 ecx, OFFSET __0D019051_xstring
  00025	e8 00 00 00 00	 call	 @__CheckForDebuggerJustMyCode@4

; 4613 :         _Mypair._Myval2._Swap_proxy_and_iterators(_Right._Mypair._Myval2);

  0002a	8b 45 08	 mov	 eax, DWORD PTR __Right$[ebp]
  0002d	50		 push	 eax
  0002e	8b 4d f8	 mov	 ecx, DWORD PTR _this$[ebp]
  00031	e8 00 00 00 00	 call	 ?_Swap_proxy_and_iterators@_Container_base12@std@@QAEXAAU12@@Z ; std::_Container_base12::_Swap_proxy_and_iterators

; 4614 :     }

  00036	5f		 pop	 edi
  00037	5e		 pop	 esi
  00038	5b		 pop	 ebx
  00039	81 c4 cc 00 00
	00		 add	 esp, 204		; 000000ccH
  0003f	3b ec		 cmp	 ebp, esp
  00041	e8 00 00 00 00	 call	 __RTC_CheckEsp
  00046	8b e5		 mov	 esp, ebp
  00048	5d		 pop	 ebp
  00049	c2 04 00	 ret	 4
?_Swap_proxy_and_iterators@?$basic_string@DU?$char_traits@D@std@@V?$allocator@D@2@@std@@AAEXAAV12@@Z ENDP ; std::basic_string<char,std::char_traits<char>,std::allocator<char> >::_Swap_proxy_and_iterators
_TEXT	ENDS
; Function compile flags: /Odtp /RTCsu /ZI
; File C:\Program Files (x86)\Microsoft Visual Studio\2019\Community\VC\Tools\MSVC\14.29.30133\include\xstring
;	COMDAT ?_Tidy_deallocate@?$basic_string@DU?$char_traits@D@std@@V?$allocator@D@2@@std@@AAEXXZ
_TEXT	SEGMENT
$T2 = -245						; size = 1
__Al$3 = -44						; size = 4
__Ptr$4 = -32						; size = 4
_this$ = -20						; size = 4
__$EHRec$ = -12						; size = 12
?_Tidy_deallocate@?$basic_string@DU?$char_traits@D@std@@V?$allocator@D@2@@std@@AAEXXZ PROC ; std::basic_string<char,std::char_traits<char>,std::allocator<char> >::_Tidy_deallocate, COMDAT
; _this$ = ecx

; 4582 :     _CONSTEXPR20_CONTAINER void _Tidy_deallocate() noexcept { // initialize buffer, deallocating any storage

  00000	55		 push	 ebp
  00001	8b ec		 mov	 ebp, esp
  00003	6a ff		 push	 -1
  00005	68 00 00 00 00	 push	 __ehhandler$?_Tidy_deallocate@?$basic_string@DU?$char_traits@D@std@@V?$allocator@D@2@@std@@AAEXXZ
  0000a	64 a1 00 00 00
	00		 mov	 eax, DWORD PTR fs:0
  00010	50		 push	 eax
  00011	81 ec f0 00 00
	00		 sub	 esp, 240		; 000000f0H
  00017	53		 push	 ebx
  00018	56		 push	 esi
  00019	57		 push	 edi
  0001a	51		 push	 ecx
  0001b	8d 7d c4	 lea	 edi, DWORD PTR [ebp-60]
  0001e	b9 0c 00 00 00	 mov	 ecx, 12			; 0000000cH
  00023	b8 cc cc cc cc	 mov	 eax, -858993460		; ccccccccH
  00028	f3 ab		 rep stosd
  0002a	59		 pop	 ecx
  0002b	a1 00 00 00 00	 mov	 eax, DWORD PTR ___security_cookie
  00030	33 c5		 xor	 eax, ebp
  00032	50		 push	 eax
  00033	8d 45 f4	 lea	 eax, DWORD PTR __$EHRec$[ebp]
  00036	64 a3 00 00 00
	00		 mov	 DWORD PTR fs:0, eax
  0003c	89 4d ec	 mov	 DWORD PTR _this$[ebp], ecx
  0003f	b9 00 00 00 00	 mov	 ecx, OFFSET __0D019051_xstring
  00044	e8 00 00 00 00	 call	 @__CheckForDebuggerJustMyCode@4

; 4583 :         _Mypair._Myval2._Orphan_all();

  00049	8b 4d ec	 mov	 ecx, DWORD PTR _this$[ebp]
  0004c	e8 00 00 00 00	 call	 ?_Orphan_all@_Container_base12@std@@QAEXXZ ; std::_Container_base12::_Orphan_all

; 4584 :         if (_Mypair._Myval2._Large_string_engaged()) {

  00051	8b 4d ec	 mov	 ecx, DWORD PTR _this$[ebp]
  00054	e8 00 00 00 00	 call	 ?_Large_string_engaged@?$_String_val@U?$_Simple_types@D@std@@@std@@QBE_NXZ ; std::_String_val<std::_Simple_types<char> >::_Large_string_engaged
  00059	0f b6 c0	 movzx	 eax, al
  0005c	85 c0		 test	 eax, eax
  0005e	74 39		 je	 SHORT $LN2@Tidy_deall

; 4585 :             const pointer _Ptr = _Mypair._Myval2._Bx._Ptr;

  00060	8b 45 ec	 mov	 eax, DWORD PTR _this$[ebp]
  00063	8b 48 04	 mov	 ecx, DWORD PTR [eax+4]
  00066	89 4d e0	 mov	 DWORD PTR __Ptr$4[ebp], ecx

; 4586 :             auto& _Al          = _Getal();

  00069	8b 4d ec	 mov	 ecx, DWORD PTR _this$[ebp]
  0006c	e8 00 00 00 00	 call	 ?_Getal@?$basic_string@DU?$char_traits@D@std@@V?$allocator@D@2@@std@@AAEAAV?$allocator@D@2@XZ ; std::basic_string<char,std::char_traits<char>,std::allocator<char> >::_Getal
  00071	89 45 d4	 mov	 DWORD PTR __Al$3[ebp], eax

; 4587 :             _Destroy_in_place(_Mypair._Myval2._Bx._Ptr);

  00074	8b 45 ec	 mov	 eax, DWORD PTR _this$[ebp]
  00077	83 c0 04	 add	 eax, 4
  0007a	50		 push	 eax
  0007b	e8 00 00 00 00	 call	 ??$_Destroy_in_place@PAD@std@@YAXAAPAD@Z ; std::_Destroy_in_place<char *>
  00080	83 c4 04	 add	 esp, 4

; 4588 :             _Al.deallocate(_Ptr, _Mypair._Myval2._Myres + 1);

  00083	8b 45 ec	 mov	 eax, DWORD PTR _this$[ebp]
  00086	8b 48 18	 mov	 ecx, DWORD PTR [eax+24]
  00089	83 c1 01	 add	 ecx, 1
  0008c	51		 push	 ecx
  0008d	8b 55 e0	 mov	 edx, DWORD PTR __Ptr$4[ebp]
  00090	52		 push	 edx
  00091	8b 4d d4	 mov	 ecx, DWORD PTR __Al$3[ebp]
  00094	e8 00 00 00 00	 call	 ?deallocate@?$allocator@D@std@@QAEXQADI@Z ; std::allocator<char>::deallocate
$LN2@Tidy_deall:

; 4589 :         }
; 4590 : 
; 4591 : #ifdef __cpp_lib_constexpr_string
; 4592 :         if (_STD is_constant_evaluated()) {
; 4593 :             _Mypair._Myval2._Bx._Ptr = nullptr;
; 4594 :             _Mypair._Myval2._Mysize  = 0;
; 4595 :             _Mypair._Myval2._Myres   = 0;
; 4596 :         } else
; 4597 : #endif // __cpp_lib_constexpr_string
; 4598 :         {
; 4599 :             _Mypair._Myval2._Mysize = 0;

  00099	8b 45 ec	 mov	 eax, DWORD PTR _this$[ebp]
  0009c	c7 40 14 00 00
	00 00		 mov	 DWORD PTR [eax+20], 0

; 4600 :             _Mypair._Myval2._Myres  = _BUF_SIZE - 1;

  000a3	8b 45 ec	 mov	 eax, DWORD PTR _this$[ebp]
  000a6	c7 40 18 0f 00
	00 00		 mov	 DWORD PTR [eax+24], 15	; 0000000fH

; 4601 :             // the _Traits::assign is last so the codegen doesn't think the char write can alias this
; 4602 :             _Traits::assign(_Mypair._Myval2._Bx._Buf[0], _Elem());

  000ad	c6 85 0b ff ff
	ff 00		 mov	 BYTE PTR $T2[ebp], 0
  000b4	8d 85 0b ff ff
	ff		 lea	 eax, DWORD PTR $T2[ebp]
  000ba	50		 push	 eax
  000bb	b9 01 00 00 00	 mov	 ecx, 1
  000c0	6b d1 00	 imul	 edx, ecx, 0
  000c3	8b 45 ec	 mov	 eax, DWORD PTR _this$[ebp]
  000c6	8d 4c 10 04	 lea	 ecx, DWORD PTR [eax+edx+4]
  000ca	51		 push	 ecx
  000cb	e8 00 00 00 00	 call	 ?assign@?$_Narrow_char_traits@DH@std@@SAXAADABD@Z ; std::_Narrow_char_traits<char,int>::assign
  000d0	83 c4 08	 add	 esp, 8

; 4603 :         }
; 4604 :     }

  000d3	8b 4d f4	 mov	 ecx, DWORD PTR __$EHRec$[ebp]
  000d6	64 89 0d 00 00
	00 00		 mov	 DWORD PTR fs:0, ecx
  000dd	59		 pop	 ecx
  000de	5f		 pop	 edi
  000df	5e		 pop	 esi
  000e0	5b		 pop	 ebx
  000e1	81 c4 fc 00 00
	00		 add	 esp, 252		; 000000fcH
  000e7	3b ec		 cmp	 ebp, esp
  000e9	e8 00 00 00 00	 call	 __RTC_CheckEsp
  000ee	8b e5		 mov	 esp, ebp
  000f0	5d		 pop	 ebp
  000f1	c3		 ret	 0
  000f2	cc		 int	 3
  000f3	cc		 int	 3
  000f4	cc		 int	 3
  000f5	cc		 int	 3
  000f6	cc		 int	 3
_TEXT	ENDS
;	COMDAT text$x
text$x	SEGMENT
__ehhandler$?_Tidy_deallocate@?$basic_string@DU?$char_traits@D@std@@V?$allocator@D@2@@std@@AAEXXZ:
  00000	90		 npad	 1
  00001	90		 npad	 1
  00002	8b 54 24 08	 mov	 edx, DWORD PTR [esp+8]
  00006	8d 42 0c	 lea	 eax, DWORD PTR [edx+12]
  00009	8b 8a 00 ff ff
	ff		 mov	 ecx, DWORD PTR [edx-256]
  0000f	33 c8		 xor	 ecx, eax
  00011	e8 00 00 00 00	 call	 @__security_check_cookie@4
  00016	b8 00 00 00 00	 mov	 eax, OFFSET __ehfuncinfo$?_Tidy_deallocate@?$basic_string@DU?$char_traits@D@std@@V?$allocator@D@2@@std@@AAEXXZ
  0001b	e9 00 00 00 00	 jmp	 ___CxxFrameHandler3
text$x	ENDS
?_Tidy_deallocate@?$basic_string@DU?$char_traits@D@std@@V?$allocator@D@2@@std@@AAEXXZ ENDP ; std::basic_string<char,std::char_traits<char>,std::allocator<char> >::_Tidy_deallocate
; Function compile flags: /Odtp /RTCsu /ZI
; File C:\Program Files (x86)\Microsoft Visual Studio\2019\Community\VC\Tools\MSVC\14.29.30133\include\xstring
;	COMDAT ?_Tidy_init@?$basic_string@DU?$char_traits@D@std@@V?$allocator@D@2@@std@@AAEXXZ
_TEXT	SEGMENT
$T1 = -221						; size = 1
__My_data$ = -20					; size = 4
_this$ = -8						; size = 4
?_Tidy_init@?$basic_string@DU?$char_traits@D@std@@V?$allocator@D@2@@std@@AAEXXZ PROC ; std::basic_string<char,std::char_traits<char>,std::allocator<char> >::_Tidy_init, COMDAT
; _this$ = ecx

; 4560 :     _CONSTEXPR20_CONTAINER void _Tidy_init() noexcept { // initialize basic_string data members

  00000	55		 push	 ebp
  00001	8b ec		 mov	 ebp, esp
  00003	81 ec e4 00 00
	00		 sub	 esp, 228		; 000000e4H
  00009	53		 push	 ebx
  0000a	56		 push	 esi
  0000b	57		 push	 edi
  0000c	51		 push	 ecx
  0000d	8d 7d dc	 lea	 edi, DWORD PTR [ebp-36]
  00010	b9 09 00 00 00	 mov	 ecx, 9
  00015	b8 cc cc cc cc	 mov	 eax, -858993460		; ccccccccH
  0001a	f3 ab		 rep stosd
  0001c	59		 pop	 ecx
  0001d	89 4d f8	 mov	 DWORD PTR _this$[ebp], ecx
  00020	b9 00 00 00 00	 mov	 ecx, OFFSET __0D019051_xstring
  00025	e8 00 00 00 00	 call	 @__CheckForDebuggerJustMyCode@4

; 4561 :         auto& _My_data   = _Mypair._Myval2;

  0002a	8b 45 f8	 mov	 eax, DWORD PTR _this$[ebp]
  0002d	89 45 ec	 mov	 DWORD PTR __My_data$[ebp], eax

; 4562 :         _My_data._Mysize = 0;

  00030	8b 45 ec	 mov	 eax, DWORD PTR __My_data$[ebp]
  00033	c7 40 14 00 00
	00 00		 mov	 DWORD PTR [eax+20], 0

; 4563 : 
; 4564 : #ifdef __cpp_lib_constexpr_string
; 4565 :         if (_STD is_constant_evaluated()) {
; 4566 :             _My_data._Myres        = _BUF_SIZE; // SSO disabled in constexpr context
; 4567 :             auto& _Al              = _Getal();
; 4568 :             const pointer _New_ptr = _Al.allocate(_BUF_SIZE + 1); // throws
; 4569 :             _My_data._Bx._Ptr      = _New_ptr;
; 4570 : 
; 4571 :             _Elem* const _Raw_new = _Unfancy(_New_ptr);
; 4572 :             _Traits::assign(_Raw_new, _BUF_SIZE + 1, _Elem());
; 4573 :         } else
; 4574 : #endif // __cpp_lib_constexpr_string
; 4575 :         {
; 4576 :             _My_data._Myres = _BUF_SIZE - 1;

  0003a	8b 45 ec	 mov	 eax, DWORD PTR __My_data$[ebp]
  0003d	c7 40 18 0f 00
	00 00		 mov	 DWORD PTR [eax+24], 15	; 0000000fH

; 4577 :             // the _Traits::assign is last so the codegen doesn't think the char write can alias this
; 4578 :             _Traits::assign(_My_data._Bx._Buf[0], _Elem());

  00044	c6 85 23 ff ff
	ff 00		 mov	 BYTE PTR $T1[ebp], 0
  0004b	8d 85 23 ff ff
	ff		 lea	 eax, DWORD PTR $T1[ebp]
  00051	50		 push	 eax
  00052	b9 01 00 00 00	 mov	 ecx, 1
  00057	6b d1 00	 imul	 edx, ecx, 0
  0005a	8b 45 ec	 mov	 eax, DWORD PTR __My_data$[ebp]
  0005d	8d 4c 10 04	 lea	 ecx, DWORD PTR [eax+edx+4]
  00061	51		 push	 ecx
  00062	e8 00 00 00 00	 call	 ?assign@?$_Narrow_char_traits@DH@std@@SAXAADABD@Z ; std::_Narrow_char_traits<char,int>::assign
  00067	83 c4 08	 add	 esp, 8

; 4579 :         }
; 4580 :     }

  0006a	5f		 pop	 edi
  0006b	5e		 pop	 esi
  0006c	5b		 pop	 ebx
  0006d	81 c4 e4 00 00
	00		 add	 esp, 228		; 000000e4H
  00073	3b ec		 cmp	 ebp, esp
  00075	e8 00 00 00 00	 call	 __RTC_CheckEsp
  0007a	8b e5		 mov	 esp, ebp
  0007c	5d		 pop	 ebp
  0007d	c3		 ret	 0
?_Tidy_init@?$basic_string@DU?$char_traits@D@std@@V?$allocator@D@2@@std@@AAEXXZ ENDP ; std::basic_string<char,std::char_traits<char>,std::allocator<char> >::_Tidy_init
_TEXT	ENDS
; Function compile flags: /Odtp /RTCsu /ZI
; File C:\Program Files (x86)\Microsoft Visual Studio\2019\Community\VC\Tools\MSVC\14.29.30133\include\xstring
;	COMDAT ?_Eos@?$basic_string@DU?$char_traits@D@std@@V?$allocator@D@2@@std@@AAEXI@Z
_TEXT	SEGMENT
$T1 = -209						; size = 1
_this$ = -8						; size = 4
__Newsize$ = 8						; size = 4
?_Eos@?$basic_string@DU?$char_traits@D@std@@V?$allocator@D@2@@std@@AAEXI@Z PROC ; std::basic_string<char,std::char_traits<char>,std::allocator<char> >::_Eos, COMDAT
; _this$ = ecx

; 4556 :     _CONSTEXPR20_CONTAINER void _Eos(const size_type _Newsize) { // set new length and null terminator

  00000	55		 push	 ebp
  00001	8b ec		 mov	 ebp, esp
  00003	81 ec d8 00 00
	00		 sub	 esp, 216		; 000000d8H
  00009	53		 push	 ebx
  0000a	56		 push	 esi
  0000b	57		 push	 edi
  0000c	51		 push	 ecx
  0000d	8d 7d e8	 lea	 edi, DWORD PTR [ebp-24]
  00010	b9 06 00 00 00	 mov	 ecx, 6
  00015	b8 cc cc cc cc	 mov	 eax, -858993460		; ccccccccH
  0001a	f3 ab		 rep stosd
  0001c	59		 pop	 ecx
  0001d	89 4d f8	 mov	 DWORD PTR _this$[ebp], ecx
  00020	b9 00 00 00 00	 mov	 ecx, OFFSET __0D019051_xstring
  00025	e8 00 00 00 00	 call	 @__CheckForDebuggerJustMyCode@4

; 4557 :         _Traits::assign(_Mypair._Myval2._Myptr()[_Mypair._Myval2._Mysize = _Newsize], _Elem());

  0002a	c6 85 2f ff ff
	ff 00		 mov	 BYTE PTR $T1[ebp], 0
  00031	8b 45 f8	 mov	 eax, DWORD PTR _this$[ebp]
  00034	8b 4d 08	 mov	 ecx, DWORD PTR __Newsize$[ebp]
  00037	89 48 14	 mov	 DWORD PTR [eax+20], ecx
  0003a	8d 95 2f ff ff
	ff		 lea	 edx, DWORD PTR $T1[ebp]
  00040	52		 push	 edx
  00041	8b 4d f8	 mov	 ecx, DWORD PTR _this$[ebp]
  00044	e8 00 00 00 00	 call	 ?_Myptr@?$_String_val@U?$_Simple_types@D@std@@@std@@QAEPADXZ ; std::_String_val<std::_Simple_types<char> >::_Myptr
  00049	03 45 08	 add	 eax, DWORD PTR __Newsize$[ebp]
  0004c	50		 push	 eax
  0004d	e8 00 00 00 00	 call	 ?assign@?$_Narrow_char_traits@DH@std@@SAXAADABD@Z ; std::_Narrow_char_traits<char,int>::assign
  00052	83 c4 08	 add	 esp, 8

; 4558 :     }

  00055	5f		 pop	 edi
  00056	5e		 pop	 esi
  00057	5b		 pop	 ebx
  00058	81 c4 d8 00 00
	00		 add	 esp, 216		; 000000d8H
  0005e	3b ec		 cmp	 ebp, esp
  00060	e8 00 00 00 00	 call	 __RTC_CheckEsp
  00065	8b e5		 mov	 esp, ebp
  00067	5d		 pop	 ebp
  00068	c2 04 00	 ret	 4
?_Eos@?$basic_string@DU?$char_traits@D@std@@V?$allocator@D@2@@std@@AAEXI@Z ENDP ; std::basic_string<char,std::char_traits<char>,std::allocator<char> >::_Eos
_TEXT	ENDS
; Function compile flags: /Odtp /RTCsu /ZI
; File C:\Program Files (x86)\Microsoft Visual Studio\2019\Community\VC\Tools\MSVC\14.29.30133\include\xstring
;	COMDAT ?_Calculate_growth@?$basic_string@DU?$char_traits@D@std@@V?$allocator@D@2@@std@@ABEII@Z
_TEXT	SEGMENT
_this$ = -8						; size = 4
__Requested$ = 8					; size = 4
?_Calculate_growth@?$basic_string@DU?$char_traits@D@std@@V?$allocator@D@2@@std@@ABEII@Z PROC ; std::basic_string<char,std::char_traits<char>,std::allocator<char> >::_Calculate_growth, COMDAT
; _this$ = ecx

; 4466 :     _NODISCARD _CONSTEXPR20_CONTAINER size_type _Calculate_growth(const size_type _Requested) const noexcept {

  00000	55		 push	 ebp
  00001	8b ec		 mov	 ebp, esp
  00003	81 ec cc 00 00
	00		 sub	 esp, 204		; 000000ccH
  00009	53		 push	 ebx
  0000a	56		 push	 esi
  0000b	57		 push	 edi
  0000c	51		 push	 ecx
  0000d	8d 7d f4	 lea	 edi, DWORD PTR [ebp-12]
  00010	b9 03 00 00 00	 mov	 ecx, 3
  00015	b8 cc cc cc cc	 mov	 eax, -858993460		; ccccccccH
  0001a	f3 ab		 rep stosd
  0001c	59		 pop	 ecx
  0001d	89 4d f8	 mov	 DWORD PTR _this$[ebp], ecx
  00020	b9 00 00 00 00	 mov	 ecx, OFFSET __0D019051_xstring
  00025	e8 00 00 00 00	 call	 @__CheckForDebuggerJustMyCode@4

; 4467 :         return _Calculate_growth(_Requested, _Mypair._Myval2._Myres, max_size());

  0002a	8b 4d f8	 mov	 ecx, DWORD PTR _this$[ebp]
  0002d	e8 00 00 00 00	 call	 ?max_size@?$basic_string@DU?$char_traits@D@std@@V?$allocator@D@2@@std@@QBEIXZ ; std::basic_string<char,std::char_traits<char>,std::allocator<char> >::max_size
  00032	50		 push	 eax
  00033	8b 45 f8	 mov	 eax, DWORD PTR _this$[ebp]
  00036	8b 48 18	 mov	 ecx, DWORD PTR [eax+24]
  00039	51		 push	 ecx
  0003a	8b 55 08	 mov	 edx, DWORD PTR __Requested$[ebp]
  0003d	52		 push	 edx
  0003e	e8 00 00 00 00	 call	 ?_Calculate_growth@?$basic_string@DU?$char_traits@D@std@@V?$allocator@D@2@@std@@CAIIII@Z ; std::basic_string<char,std::char_traits<char>,std::allocator<char> >::_Calculate_growth
  00043	83 c4 0c	 add	 esp, 12			; 0000000cH

; 4468 :     }

  00046	5f		 pop	 edi
  00047	5e		 pop	 esi
  00048	5b		 pop	 ebx
  00049	81 c4 cc 00 00
	00		 add	 esp, 204		; 000000ccH
  0004f	3b ec		 cmp	 ebp, esp
  00051	e8 00 00 00 00	 call	 __RTC_CheckEsp
  00056	8b e5		 mov	 esp, ebp
  00058	5d		 pop	 ebp
  00059	c2 04 00	 ret	 4
?_Calculate_growth@?$basic_string@DU?$char_traits@D@std@@V?$allocator@D@2@@std@@ABEII@Z ENDP ; std::basic_string<char,std::char_traits<char>,std::allocator<char> >::_Calculate_growth
_TEXT	ENDS
; Function compile flags: /Odtp /RTCsu /ZI
; File C:\Program Files (x86)\Microsoft Visual Studio\2019\Community\VC\Tools\MSVC\14.29.30133\include\xstring
;	COMDAT ?_Calculate_growth@?$basic_string@DU?$char_traits@D@std@@V?$allocator@D@2@@std@@CAIIII@Z
_TEXT	SEGMENT
$T1 = -216						; size = 4
__Masked$ = -12						; size = 4
__$ArrayPad$ = -4					; size = 4
__Requested$ = 8					; size = 4
__Old$ = 12						; size = 4
__Max$ = 16						; size = 4
?_Calculate_growth@?$basic_string@DU?$char_traits@D@std@@V?$allocator@D@2@@std@@CAIIII@Z PROC ; std::basic_string<char,std::char_traits<char>,std::allocator<char> >::_Calculate_growth, COMDAT

; 4453 :         const size_type _Requested, const size_type _Old, const size_type _Max) noexcept {

  00000	55		 push	 ebp
  00001	8b ec		 mov	 ebp, esp
  00003	81 ec dc 00 00
	00		 sub	 esp, 220		; 000000dcH
  00009	53		 push	 ebx
  0000a	56		 push	 esi
  0000b	57		 push	 edi
  0000c	8d 7d e4	 lea	 edi, DWORD PTR [ebp-28]
  0000f	b9 07 00 00 00	 mov	 ecx, 7
  00014	b8 cc cc cc cc	 mov	 eax, -858993460		; ccccccccH
  00019	f3 ab		 rep stosd
  0001b	a1 00 00 00 00	 mov	 eax, DWORD PTR ___security_cookie
  00020	33 c5		 xor	 eax, ebp
  00022	89 45 fc	 mov	 DWORD PTR __$ArrayPad$[ebp], eax
  00025	b9 00 00 00 00	 mov	 ecx, OFFSET __0D019051_xstring
  0002a	e8 00 00 00 00	 call	 @__CheckForDebuggerJustMyCode@4

; 4454 :         const size_type _Masked = _Requested | _ALLOC_MASK;

  0002f	8b 45 08	 mov	 eax, DWORD PTR __Requested$[ebp]
  00032	83 c8 0f	 or	 eax, 15			; 0000000fH
  00035	89 45 f4	 mov	 DWORD PTR __Masked$[ebp], eax

; 4455 :         if (_Masked > _Max) { // the mask overflows, settle for max_size()

  00038	8b 45 f4	 mov	 eax, DWORD PTR __Masked$[ebp]
  0003b	3b 45 10	 cmp	 eax, DWORD PTR __Max$[ebp]
  0003e	76 05		 jbe	 SHORT $LN2@Calculate_

; 4456 :             return _Max;

  00040	8b 45 10	 mov	 eax, DWORD PTR __Max$[ebp]
  00043	eb 37		 jmp	 SHORT $LN4@Calculate_
$LN2@Calculate_:

; 4457 :         }
; 4458 : 
; 4459 :         if (_Old > _Max - _Old / 2) { // similarly, geometric overflows

  00045	8b 45 0c	 mov	 eax, DWORD PTR __Old$[ebp]
  00048	d1 e8		 shr	 eax, 1
  0004a	8b 4d 10	 mov	 ecx, DWORD PTR __Max$[ebp]
  0004d	2b c8		 sub	 ecx, eax
  0004f	39 4d 0c	 cmp	 DWORD PTR __Old$[ebp], ecx
  00052	76 05		 jbe	 SHORT $LN3@Calculate_

; 4460 :             return _Max;

  00054	8b 45 10	 mov	 eax, DWORD PTR __Max$[ebp]
  00057	eb 23		 jmp	 SHORT $LN4@Calculate_
$LN3@Calculate_:

; 4461 :         }
; 4462 : 
; 4463 :         return (_STD max)(_Masked, _Old + _Old / 2);

  00059	8b 45 0c	 mov	 eax, DWORD PTR __Old$[ebp]
  0005c	d1 e8		 shr	 eax, 1
  0005e	03 45 0c	 add	 eax, DWORD PTR __Old$[ebp]
  00061	89 85 28 ff ff
	ff		 mov	 DWORD PTR $T1[ebp], eax
  00067	8d 8d 28 ff ff
	ff		 lea	 ecx, DWORD PTR $T1[ebp]
  0006d	51		 push	 ecx
  0006e	8d 55 f4	 lea	 edx, DWORD PTR __Masked$[ebp]
  00071	52		 push	 edx
  00072	e8 00 00 00 00	 call	 ??$max@I@std@@YAABIABI0@Z ; std::max<unsigned int>
  00077	83 c4 08	 add	 esp, 8
  0007a	8b 00		 mov	 eax, DWORD PTR [eax]
$LN4@Calculate_:

; 4464 :     }

  0007c	52		 push	 edx
  0007d	8b cd		 mov	 ecx, ebp
  0007f	50		 push	 eax
  00080	8d 15 00 00 00
	00		 lea	 edx, DWORD PTR $LN7@Calculate_
  00086	e8 00 00 00 00	 call	 @_RTC_CheckStackVars@8
  0008b	58		 pop	 eax
  0008c	5a		 pop	 edx
  0008d	5f		 pop	 edi
  0008e	5e		 pop	 esi
  0008f	5b		 pop	 ebx
  00090	8b 4d fc	 mov	 ecx, DWORD PTR __$ArrayPad$[ebp]
  00093	33 cd		 xor	 ecx, ebp
  00095	e8 00 00 00 00	 call	 @__security_check_cookie@4
  0009a	81 c4 dc 00 00
	00		 add	 esp, 220		; 000000dcH
  000a0	3b ec		 cmp	 ebp, esp
  000a2	e8 00 00 00 00	 call	 __RTC_CheckEsp
  000a7	8b e5		 mov	 esp, ebp
  000a9	5d		 pop	 ebp
  000aa	c3		 ret	 0
  000ab	90		 npad	 1
$LN7@Calculate_:
  000ac	01 00 00 00	 DD	 1
  000b0	00 00 00 00	 DD	 $LN6@Calculate_
$LN6@Calculate_:
  000b4	f4 ff ff ff	 DD	 -12			; fffffff4H
  000b8	04 00 00 00	 DD	 4
  000bc	00 00 00 00	 DD	 $LN5@Calculate_
$LN5@Calculate_:
  000c0	5f		 DB	 95			; 0000005fH
  000c1	4d		 DB	 77			; 0000004dH
  000c2	61		 DB	 97			; 00000061H
  000c3	73		 DB	 115			; 00000073H
  000c4	6b		 DB	 107			; 0000006bH
  000c5	65		 DB	 101			; 00000065H
  000c6	64		 DB	 100			; 00000064H
  000c7	00		 DB	 0
?_Calculate_growth@?$basic_string@DU?$char_traits@D@std@@V?$allocator@D@2@@std@@CAIIII@Z ENDP ; std::basic_string<char,std::char_traits<char>,std::allocator<char> >::_Calculate_growth
_TEXT	ENDS
; Function compile flags: /Odtp /RTCsu /ZI
; File C:\Program Files (x86)\Microsoft Visual Studio\2019\Community\VC\Tools\MSVC\14.29.30133\include\xstring
;	COMDAT ?get_allocator@?$basic_string@DU?$char_traits@D@std@@V?$allocator@D@2@@std@@QBE?AV?$allocator@D@2@XZ
_TEXT	SEGMENT
_this$ = -8						; size = 4
___$ReturnUdt$ = 8					; size = 4
?get_allocator@?$basic_string@DU?$char_traits@D@std@@V?$allocator@D@2@@std@@QBE?AV?$allocator@D@2@XZ PROC ; std::basic_string<char,std::char_traits<char>,std::allocator<char> >::get_allocator, COMDAT
; _this$ = ecx

; 4447 :     _NODISCARD _CONSTEXPR20_CONTAINER allocator_type get_allocator() const noexcept {

  00000	55		 push	 ebp
  00001	8b ec		 mov	 ebp, esp
  00003	81 ec d8 00 00
	00		 sub	 esp, 216		; 000000d8H
  00009	53		 push	 ebx
  0000a	56		 push	 esi
  0000b	57		 push	 edi
  0000c	51		 push	 ecx
  0000d	8d 7d e8	 lea	 edi, DWORD PTR [ebp-24]
  00010	b9 06 00 00 00	 mov	 ecx, 6
  00015	b8 cc cc cc cc	 mov	 eax, -858993460		; ccccccccH
  0001a	f3 ab		 rep stosd
  0001c	59		 pop	 ecx
  0001d	89 4d f8	 mov	 DWORD PTR _this$[ebp], ecx
  00020	b9 00 00 00 00	 mov	 ecx, OFFSET __0D019051_xstring
  00025	e8 00 00 00 00	 call	 @__CheckForDebuggerJustMyCode@4

; 4448 :         return static_cast<allocator_type>(_Getal());

  0002a	8b 4d f8	 mov	 ecx, DWORD PTR _this$[ebp]
  0002d	e8 00 00 00 00	 call	 ?_Getal@?$basic_string@DU?$char_traits@D@std@@V?$allocator@D@2@@std@@ABEABV?$allocator@D@2@XZ ; std::basic_string<char,std::char_traits<char>,std::allocator<char> >::_Getal
  00032	8b 45 08	 mov	 eax, DWORD PTR ___$ReturnUdt$[ebp]

; 4449 :     }

  00035	5f		 pop	 edi
  00036	5e		 pop	 esi
  00037	5b		 pop	 ebx
  00038	81 c4 d8 00 00
	00		 add	 esp, 216		; 000000d8H
  0003e	3b ec		 cmp	 ebp, esp
  00040	e8 00 00 00 00	 call	 __RTC_CheckEsp
  00045	8b e5		 mov	 esp, ebp
  00047	5d		 pop	 ebp
  00048	c2 04 00	 ret	 4
?get_allocator@?$basic_string@DU?$char_traits@D@std@@V?$allocator@D@2@@std@@QBE?AV?$allocator@D@2@XZ ENDP ; std::basic_string<char,std::char_traits<char>,std::allocator<char> >::get_allocator
_TEXT	ENDS
; Function compile flags: /Odtp /RTCsu /ZI
; File C:\Program Files (x86)\Microsoft Visual Studio\2019\Community\VC\Tools\MSVC\14.29.30133\include\xstring
;	COMDAT ?substr@?$basic_string@DU?$char_traits@D@std@@V?$allocator@D@2@@std@@QBE?AV12@II@Z
_TEXT	SEGMENT
$T1 = -224						; size = 4
$T2 = -209						; size = 1
_this$ = -8						; size = 4
___$ReturnUdt$ = 8					; size = 4
__Off$ = 12						; size = 4
__Count$ = 16						; size = 4
?substr@?$basic_string@DU?$char_traits@D@std@@V?$allocator@D@2@@std@@QBE?AV12@II@Z PROC ; std::basic_string<char,std::char_traits<char>,std::allocator<char> >::substr, COMDAT
; _this$ = ecx

; 4331 :         const size_type _Off = 0, const size_type _Count = npos) const {

  00000	55		 push	 ebp
  00001	8b ec		 mov	 ebp, esp
  00003	81 ec e4 00 00
	00		 sub	 esp, 228		; 000000e4H
  00009	53		 push	 ebx
  0000a	56		 push	 esi
  0000b	57		 push	 edi
  0000c	51		 push	 ecx
  0000d	8d 7d dc	 lea	 edi, DWORD PTR [ebp-36]
  00010	b9 09 00 00 00	 mov	 ecx, 9
  00015	b8 cc cc cc cc	 mov	 eax, -858993460		; ccccccccH
  0001a	f3 ab		 rep stosd
  0001c	59		 pop	 ecx
  0001d	89 4d f8	 mov	 DWORD PTR _this$[ebp], ecx
  00020	c7 85 20 ff ff
	ff 00 00 00 00	 mov	 DWORD PTR $T1[ebp], 0
  0002a	b9 00 00 00 00	 mov	 ecx, OFFSET __0D019051_xstring
  0002f	e8 00 00 00 00	 call	 @__CheckForDebuggerJustMyCode@4

; 4332 :         // return [_Off, _Off + _Count) as new string
; 4333 :         return basic_string(*this, _Off, _Count, get_allocator());

  00034	8d 85 2f ff ff
	ff		 lea	 eax, DWORD PTR $T2[ebp]
  0003a	50		 push	 eax
  0003b	8b 4d f8	 mov	 ecx, DWORD PTR _this$[ebp]
  0003e	e8 00 00 00 00	 call	 ?get_allocator@?$basic_string@DU?$char_traits@D@std@@V?$allocator@D@2@@std@@QBE?AV?$allocator@D@2@XZ ; std::basic_string<char,std::char_traits<char>,std::allocator<char> >::get_allocator
  00043	50		 push	 eax
  00044	8b 4d 10	 mov	 ecx, DWORD PTR __Count$[ebp]
  00047	51		 push	 ecx
  00048	8b 55 0c	 mov	 edx, DWORD PTR __Off$[ebp]
  0004b	52		 push	 edx
  0004c	8b 45 f8	 mov	 eax, DWORD PTR _this$[ebp]
  0004f	50		 push	 eax
  00050	8b 4d 08	 mov	 ecx, DWORD PTR ___$ReturnUdt$[ebp]
  00053	e8 00 00 00 00	 call	 ??0?$basic_string@DU?$char_traits@D@std@@V?$allocator@D@2@@std@@QAE@ABV01@IIABV?$allocator@D@1@@Z ; std::basic_string<char,std::char_traits<char>,std::allocator<char> >::basic_string<char,std::char_traits<char>,std::allocator<char> >
  00058	8b 8d 20 ff ff
	ff		 mov	 ecx, DWORD PTR $T1[ebp]
  0005e	83 c9 01	 or	 ecx, 1
  00061	89 8d 20 ff ff
	ff		 mov	 DWORD PTR $T1[ebp], ecx
  00067	8b 45 08	 mov	 eax, DWORD PTR ___$ReturnUdt$[ebp]

; 4334 :     }

  0006a	5f		 pop	 edi
  0006b	5e		 pop	 esi
  0006c	5b		 pop	 ebx
  0006d	81 c4 e4 00 00
	00		 add	 esp, 228		; 000000e4H
  00073	3b ec		 cmp	 ebp, esp
  00075	e8 00 00 00 00	 call	 __RTC_CheckEsp
  0007a	8b e5		 mov	 esp, ebp
  0007c	5d		 pop	 ebp
  0007d	c2 0c 00	 ret	 12			; 0000000cH
?substr@?$basic_string@DU?$char_traits@D@std@@V?$allocator@D@2@@std@@QBE?AV12@II@Z ENDP ; std::basic_string<char,std::char_traits<char>,std::allocator<char> >::substr
_TEXT	ENDS
; Function compile flags: /Odtp /RTCsu /ZI
; File C:\Program Files (x86)\Microsoft Visual Studio\2019\Community\VC\Tools\MSVC\14.29.30133\include\xstring
;	COMDAT ?max_size@?$basic_string@DU?$char_traits@D@std@@V?$allocator@D@2@@std@@QBEIXZ
_TEXT	SEGMENT
$T1 = -264						; size = 4
$T2 = -252						; size = 4
$T3 = -240						; size = 4
__Storage_max$ = -36					; size = 4
__Alloc_max$ = -24					; size = 4
_this$ = -12						; size = 4
__$ArrayPad$ = -4					; size = 4
?max_size@?$basic_string@DU?$char_traits@D@std@@V?$allocator@D@2@@std@@QBEIXZ PROC ; std::basic_string<char,std::char_traits<char>,std::allocator<char> >::max_size, COMDAT
; _this$ = ecx

; 3909 :     _NODISCARD _CONSTEXPR20_CONTAINER size_type max_size() const noexcept {

  00000	55		 push	 ebp
  00001	8b ec		 mov	 ebp, esp
  00003	81 ec 0c 01 00
	00		 sub	 esp, 268		; 0000010cH
  00009	53		 push	 ebx
  0000a	56		 push	 esi
  0000b	57		 push	 edi
  0000c	51		 push	 ecx
  0000d	8d 7d b4	 lea	 edi, DWORD PTR [ebp-76]
  00010	b9 13 00 00 00	 mov	 ecx, 19			; 00000013H
  00015	b8 cc cc cc cc	 mov	 eax, -858993460		; ccccccccH
  0001a	f3 ab		 rep stosd
  0001c	59		 pop	 ecx
  0001d	a1 00 00 00 00	 mov	 eax, DWORD PTR ___security_cookie
  00022	33 c5		 xor	 eax, ebp
  00024	89 45 fc	 mov	 DWORD PTR __$ArrayPad$[ebp], eax
  00027	89 4d f4	 mov	 DWORD PTR _this$[ebp], ecx
  0002a	b9 00 00 00 00	 mov	 ecx, OFFSET __0D019051_xstring
  0002f	e8 00 00 00 00	 call	 @__CheckForDebuggerJustMyCode@4

; 3910 :         const size_type _Alloc_max   = _Alty_traits::max_size(_Getal());

  00034	8b 4d f4	 mov	 ecx, DWORD PTR _this$[ebp]
  00037	e8 00 00 00 00	 call	 ?_Getal@?$basic_string@DU?$char_traits@D@std@@V?$allocator@D@2@@std@@ABEABV?$allocator@D@2@XZ ; std::basic_string<char,std::char_traits<char>,std::allocator<char> >::_Getal
  0003c	50		 push	 eax
  0003d	e8 00 00 00 00	 call	 ?max_size@?$_Default_allocator_traits@V?$allocator@D@std@@@std@@SAIABV?$allocator@D@2@@Z ; std::_Default_allocator_traits<std::allocator<char> >::max_size
  00042	83 c4 04	 add	 esp, 4
  00045	89 45 e8	 mov	 DWORD PTR __Alloc_max$[ebp], eax

; 3911 :         const size_type _Storage_max = // can always store small string

  00048	c7 85 10 ff ff
	ff 10 00 00 00	 mov	 DWORD PTR $T3[ebp], 16	; 00000010H
  00052	8d 85 10 ff ff
	ff		 lea	 eax, DWORD PTR $T3[ebp]
  00058	50		 push	 eax
  00059	8d 4d e8	 lea	 ecx, DWORD PTR __Alloc_max$[ebp]
  0005c	51		 push	 ecx
  0005d	e8 00 00 00 00	 call	 ??$max@I@std@@YAABIABI0@Z ; std::max<unsigned int>
  00062	83 c4 08	 add	 esp, 8
  00065	8b 10		 mov	 edx, DWORD PTR [eax]
  00067	89 55 dc	 mov	 DWORD PTR __Storage_max$[ebp], edx

; 3912 :             (_STD max)(_Alloc_max, static_cast<size_type>(_BUF_SIZE));
; 3913 :         return (_STD min)(static_cast<size_type>((numeric_limits<difference_type>::max)()),

  0006a	8b 45 dc	 mov	 eax, DWORD PTR __Storage_max$[ebp]
  0006d	83 e8 01	 sub	 eax, 1
  00070	89 85 04 ff ff
	ff		 mov	 DWORD PTR $T2[ebp], eax
  00076	e8 00 00 00 00	 call	 ?max@?$numeric_limits@H@std@@SAHXZ ; std::numeric_limits<int>::max
  0007b	89 85 f8 fe ff
	ff		 mov	 DWORD PTR $T1[ebp], eax
  00081	8d 8d 04 ff ff
	ff		 lea	 ecx, DWORD PTR $T2[ebp]
  00087	51		 push	 ecx
  00088	8d 95 f8 fe ff
	ff		 lea	 edx, DWORD PTR $T1[ebp]
  0008e	52		 push	 edx
  0008f	e8 00 00 00 00	 call	 ??$min@I@std@@YAABIABI0@Z ; std::min<unsigned int>
  00094	83 c4 08	 add	 esp, 8
  00097	8b 00		 mov	 eax, DWORD PTR [eax]

; 3914 :             _Storage_max - 1 // -1 is for null terminator and/or npos
; 3915 :         );
; 3916 :     }

  00099	52		 push	 edx
  0009a	8b cd		 mov	 ecx, ebp
  0009c	50		 push	 eax
  0009d	8d 15 00 00 00
	00		 lea	 edx, DWORD PTR $LN5@max_size
  000a3	e8 00 00 00 00	 call	 @_RTC_CheckStackVars@8
  000a8	58		 pop	 eax
  000a9	5a		 pop	 edx
  000aa	5f		 pop	 edi
  000ab	5e		 pop	 esi
  000ac	5b		 pop	 ebx
  000ad	8b 4d fc	 mov	 ecx, DWORD PTR __$ArrayPad$[ebp]
  000b0	33 cd		 xor	 ecx, ebp
  000b2	e8 00 00 00 00	 call	 @__security_check_cookie@4
  000b7	81 c4 0c 01 00
	00		 add	 esp, 268		; 0000010cH
  000bd	3b ec		 cmp	 ebp, esp
  000bf	e8 00 00 00 00	 call	 __RTC_CheckEsp
  000c4	8b e5		 mov	 esp, ebp
  000c6	5d		 pop	 ebp
  000c7	c3		 ret	 0
$LN5@max_size:
  000c8	01 00 00 00	 DD	 1
  000cc	00 00 00 00	 DD	 $LN4@max_size
$LN4@max_size:
  000d0	e8 ff ff ff	 DD	 -24			; ffffffe8H
  000d4	04 00 00 00	 DD	 4
  000d8	00 00 00 00	 DD	 $LN3@max_size
$LN3@max_size:
  000dc	5f		 DB	 95			; 0000005fH
  000dd	41		 DB	 65			; 00000041H
  000de	6c		 DB	 108			; 0000006cH
  000df	6c		 DB	 108			; 0000006cH
  000e0	6f		 DB	 111			; 0000006fH
  000e1	63		 DB	 99			; 00000063H
  000e2	5f		 DB	 95			; 0000005fH
  000e3	6d		 DB	 109			; 0000006dH
  000e4	61		 DB	 97			; 00000061H
  000e5	78		 DB	 120			; 00000078H
  000e6	00		 DB	 0
?max_size@?$basic_string@DU?$char_traits@D@std@@V?$allocator@D@2@@std@@QBEIXZ ENDP ; std::basic_string<char,std::char_traits<char>,std::allocator<char> >::max_size
_TEXT	ENDS
; Function compile flags: /Odtp /RTCsu /ZI
; File C:\Program Files (x86)\Microsoft Visual Studio\2019\Community\VC\Tools\MSVC\14.29.30133\include\xstring
;	COMDAT ?size@?$basic_string@DU?$char_traits@D@std@@V?$allocator@D@2@@std@@QBEIXZ
_TEXT	SEGMENT
_this$ = -8						; size = 4
?size@?$basic_string@DU?$char_traits@D@std@@V?$allocator@D@2@@std@@QBEIXZ PROC ; std::basic_string<char,std::char_traits<char>,std::allocator<char> >::size, COMDAT
; _this$ = ecx

; 3905 :     _NODISCARD _CONSTEXPR20_CONTAINER size_type size() const noexcept {

  00000	55		 push	 ebp
  00001	8b ec		 mov	 ebp, esp
  00003	81 ec cc 00 00
	00		 sub	 esp, 204		; 000000ccH
  00009	53		 push	 ebx
  0000a	56		 push	 esi
  0000b	57		 push	 edi
  0000c	51		 push	 ecx
  0000d	8d 7d f4	 lea	 edi, DWORD PTR [ebp-12]
  00010	b9 03 00 00 00	 mov	 ecx, 3
  00015	b8 cc cc cc cc	 mov	 eax, -858993460		; ccccccccH
  0001a	f3 ab		 rep stosd
  0001c	59		 pop	 ecx
  0001d	89 4d f8	 mov	 DWORD PTR _this$[ebp], ecx
  00020	b9 00 00 00 00	 mov	 ecx, OFFSET __0D019051_xstring
  00025	e8 00 00 00 00	 call	 @__CheckForDebuggerJustMyCode@4

; 3906 :         return _Mypair._Myval2._Mysize;

  0002a	8b 45 f8	 mov	 eax, DWORD PTR _this$[ebp]
  0002d	8b 40 14	 mov	 eax, DWORD PTR [eax+20]

; 3907 :     }

  00030	5f		 pop	 edi
  00031	5e		 pop	 esi
  00032	5b		 pop	 ebx
  00033	81 c4 cc 00 00
	00		 add	 esp, 204		; 000000ccH
  00039	3b ec		 cmp	 ebp, esp
  0003b	e8 00 00 00 00	 call	 __RTC_CheckEsp
  00040	8b e5		 mov	 esp, ebp
  00042	5d		 pop	 ebp
  00043	c3		 ret	 0
?size@?$basic_string@DU?$char_traits@D@std@@V?$allocator@D@2@@std@@QBEIXZ ENDP ; std::basic_string<char,std::char_traits<char>,std::allocator<char> >::size
_TEXT	ENDS
; Function compile flags: /Odtp /RTCsu /ZI
; File C:\Program Files (x86)\Microsoft Visual Studio\2019\Community\VC\Tools\MSVC\14.29.30133\include\xstring
;	COMDAT ?data@?$basic_string@DU?$char_traits@D@std@@V?$allocator@D@2@@std@@QBEPBDXZ
_TEXT	SEGMENT
_this$ = -8						; size = 4
?data@?$basic_string@DU?$char_traits@D@std@@V?$allocator@D@2@@std@@QBEPBDXZ PROC ; std::basic_string<char,std::char_traits<char>,std::allocator<char> >::data, COMDAT
; _this$ = ecx

; 3891 :     _NODISCARD _CONSTEXPR20_CONTAINER _Ret_z_ const _Elem* data() const noexcept {

  00000	55		 push	 ebp
  00001	8b ec		 mov	 ebp, esp
  00003	81 ec cc 00 00
	00		 sub	 esp, 204		; 000000ccH
  00009	53		 push	 ebx
  0000a	56		 push	 esi
  0000b	57		 push	 edi
  0000c	51		 push	 ecx
  0000d	8d 7d f4	 lea	 edi, DWORD PTR [ebp-12]
  00010	b9 03 00 00 00	 mov	 ecx, 3
  00015	b8 cc cc cc cc	 mov	 eax, -858993460		; ccccccccH
  0001a	f3 ab		 rep stosd
  0001c	59		 pop	 ecx
  0001d	89 4d f8	 mov	 DWORD PTR _this$[ebp], ecx
  00020	b9 00 00 00 00	 mov	 ecx, OFFSET __0D019051_xstring
  00025	e8 00 00 00 00	 call	 @__CheckForDebuggerJustMyCode@4

; 3892 :         return _Mypair._Myval2._Myptr();

  0002a	8b 4d f8	 mov	 ecx, DWORD PTR _this$[ebp]
  0002d	e8 00 00 00 00	 call	 ?_Myptr@?$_String_val@U?$_Simple_types@D@std@@@std@@QBEPBDXZ ; std::_String_val<std::_Simple_types<char> >::_Myptr

; 3893 :     }

  00032	5f		 pop	 edi
  00033	5e		 pop	 esi
  00034	5b		 pop	 ebx
  00035	81 c4 cc 00 00
	00		 add	 esp, 204		; 000000ccH
  0003b	3b ec		 cmp	 ebp, esp
  0003d	e8 00 00 00 00	 call	 __RTC_CheckEsp
  00042	8b e5		 mov	 esp, ebp
  00044	5d		 pop	 ebp
  00045	c3		 ret	 0
?data@?$basic_string@DU?$char_traits@D@std@@V?$allocator@D@2@@std@@QBEPBDXZ ENDP ; std::basic_string<char,std::char_traits<char>,std::allocator<char> >::data
_TEXT	ENDS
; Function compile flags: /Odtp /RTCsu /ZI
; File C:\Program Files (x86)\Microsoft Visual Studio\2019\Community\VC\Tools\MSVC\14.29.30133\include\xstring
;	COMDAT ?c_str@?$basic_string@DU?$char_traits@D@std@@V?$allocator@D@2@@std@@QBEPBDXZ
_TEXT	SEGMENT
_this$ = -8						; size = 4
?c_str@?$basic_string@DU?$char_traits@D@std@@V?$allocator@D@2@@std@@QBEPBDXZ PROC ; std::basic_string<char,std::char_traits<char>,std::allocator<char> >::c_str, COMDAT
; _this$ = ecx

; 3887 :     _NODISCARD _CONSTEXPR20_CONTAINER _Ret_z_ const _Elem* c_str() const noexcept {

  00000	55		 push	 ebp
  00001	8b ec		 mov	 ebp, esp
  00003	81 ec cc 00 00
	00		 sub	 esp, 204		; 000000ccH
  00009	53		 push	 ebx
  0000a	56		 push	 esi
  0000b	57		 push	 edi
  0000c	51		 push	 ecx
  0000d	8d 7d f4	 lea	 edi, DWORD PTR [ebp-12]
  00010	b9 03 00 00 00	 mov	 ecx, 3
  00015	b8 cc cc cc cc	 mov	 eax, -858993460		; ccccccccH
  0001a	f3 ab		 rep stosd
  0001c	59		 pop	 ecx
  0001d	89 4d f8	 mov	 DWORD PTR _this$[ebp], ecx
  00020	b9 00 00 00 00	 mov	 ecx, OFFSET __0D019051_xstring
  00025	e8 00 00 00 00	 call	 @__CheckForDebuggerJustMyCode@4

; 3888 :         return _Mypair._Myval2._Myptr();

  0002a	8b 4d f8	 mov	 ecx, DWORD PTR _this$[ebp]
  0002d	e8 00 00 00 00	 call	 ?_Myptr@?$_String_val@U?$_Simple_types@D@std@@@std@@QBEPBDXZ ; std::_String_val<std::_Simple_types<char> >::_Myptr

; 3889 :     }

  00032	5f		 pop	 edi
  00033	5e		 pop	 esi
  00034	5b		 pop	 ebx
  00035	81 c4 cc 00 00
	00		 add	 esp, 204		; 000000ccH
  0003b	3b ec		 cmp	 ebp, esp
  0003d	e8 00 00 00 00	 call	 __RTC_CheckEsp
  00042	8b e5		 mov	 esp, ebp
  00044	5d		 pop	 ebp
  00045	c3		 ret	 0
?c_str@?$basic_string@DU?$char_traits@D@std@@V?$allocator@D@2@@std@@QBEPBDXZ ENDP ; std::basic_string<char,std::char_traits<char>,std::allocator<char> >::c_str
_TEXT	ENDS
; Function compile flags: /Odtp /RTCsu /ZI
; File C:\Program Files (x86)\Microsoft Visual Studio\2019\Community\VC\Tools\MSVC\14.29.30133\include\xstring
;	COMDAT ?push_back@?$basic_string@DU?$char_traits@D@std@@V?$allocator@D@2@@std@@QAEXD@Z
_TEXT	SEGMENT
$T1 = -245						; size = 1
$T2 = -233						; size = 1
__Ptr$3 = -32						; size = 4
__Old_size$ = -20					; size = 4
_this$ = -8						; size = 4
__Ch$ = 8						; size = 1
?push_back@?$basic_string@DU?$char_traits@D@std@@V?$allocator@D@2@@std@@QAEXD@Z PROC ; std::basic_string<char,std::char_traits<char>,std::allocator<char> >::push_back, COMDAT
; _this$ = ecx

; 3827 :     _CONSTEXPR20_CONTAINER void push_back(const _Elem _Ch) { // insert element at end

  00000	55		 push	 ebp
  00001	8b ec		 mov	 ebp, esp
  00003	81 ec fc 00 00
	00		 sub	 esp, 252		; 000000fcH
  00009	53		 push	 ebx
  0000a	56		 push	 esi
  0000b	57		 push	 edi
  0000c	51		 push	 ecx
  0000d	8d 7d c4	 lea	 edi, DWORD PTR [ebp-60]
  00010	b9 0f 00 00 00	 mov	 ecx, 15			; 0000000fH
  00015	b8 cc cc cc cc	 mov	 eax, -858993460		; ccccccccH
  0001a	f3 ab		 rep stosd
  0001c	59		 pop	 ecx
  0001d	89 4d f8	 mov	 DWORD PTR _this$[ebp], ecx
  00020	b9 00 00 00 00	 mov	 ecx, OFFSET __0D019051_xstring
  00025	e8 00 00 00 00	 call	 @__CheckForDebuggerJustMyCode@4

; 3828 :         const size_type _Old_size = _Mypair._Myval2._Mysize;

  0002a	8b 45 f8	 mov	 eax, DWORD PTR _this$[ebp]
  0002d	8b 48 14	 mov	 ecx, DWORD PTR [eax+20]
  00030	89 4d ec	 mov	 DWORD PTR __Old_size$[ebp], ecx

; 3829 :         if (_Old_size < _Mypair._Myval2._Myres) {

  00033	8b 45 f8	 mov	 eax, DWORD PTR _this$[ebp]
  00036	8b 4d ec	 mov	 ecx, DWORD PTR __Old_size$[ebp]
  00039	3b 48 18	 cmp	 ecx, DWORD PTR [eax+24]
  0003c	73 4d		 jae	 SHORT $LN2@push_back

; 3830 :             _Mypair._Myval2._Mysize = _Old_size + 1;

  0003e	8b 45 ec	 mov	 eax, DWORD PTR __Old_size$[ebp]
  00041	83 c0 01	 add	 eax, 1
  00044	8b 4d f8	 mov	 ecx, DWORD PTR _this$[ebp]
  00047	89 41 14	 mov	 DWORD PTR [ecx+20], eax

; 3831 :             _Elem* const _Ptr       = _Mypair._Myval2._Myptr();

  0004a	8b 4d f8	 mov	 ecx, DWORD PTR _this$[ebp]
  0004d	e8 00 00 00 00	 call	 ?_Myptr@?$_String_val@U?$_Simple_types@D@std@@@std@@QAEPADXZ ; std::_String_val<std::_Simple_types<char> >::_Myptr
  00052	89 45 e0	 mov	 DWORD PTR __Ptr$3[ebp], eax

; 3832 :             _Traits::assign(_Ptr[_Old_size], _Ch);

  00055	8d 45 08	 lea	 eax, DWORD PTR __Ch$[ebp]
  00058	50		 push	 eax
  00059	8b 4d e0	 mov	 ecx, DWORD PTR __Ptr$3[ebp]
  0005c	03 4d ec	 add	 ecx, DWORD PTR __Old_size$[ebp]
  0005f	51		 push	 ecx
  00060	e8 00 00 00 00	 call	 ?assign@?$_Narrow_char_traits@DH@std@@SAXAADABD@Z ; std::_Narrow_char_traits<char,int>::assign
  00065	83 c4 08	 add	 esp, 8

; 3833 :             _Traits::assign(_Ptr[_Old_size + 1], _Elem());

  00068	c6 85 17 ff ff
	ff 00		 mov	 BYTE PTR $T2[ebp], 0
  0006f	8d 85 17 ff ff
	ff		 lea	 eax, DWORD PTR $T2[ebp]
  00075	50		 push	 eax
  00076	8b 4d ec	 mov	 ecx, DWORD PTR __Old_size$[ebp]
  00079	8b 55 e0	 mov	 edx, DWORD PTR __Ptr$3[ebp]
  0007c	8d 44 0a 01	 lea	 eax, DWORD PTR [edx+ecx+1]
  00080	50		 push	 eax
  00081	e8 00 00 00 00	 call	 ?assign@?$_Narrow_char_traits@DH@std@@SAXAADABD@Z ; std::_Narrow_char_traits<char,int>::assign
  00086	83 c4 08	 add	 esp, 8

; 3834 :             return;

  00089	eb 1f		 jmp	 SHORT $LN1@push_back
$LN2@push_back:

; 3835 :         }
; 3836 : 
; 3837 :         _Reallocate_grow_by(

  0008b	33 c0		 xor	 eax, eax
  0008d	88 85 0b ff ff
	ff		 mov	 BYTE PTR $T1[ebp], al
  00093	0f b6 4d 08	 movzx	 ecx, BYTE PTR __Ch$[ebp]
  00097	51		 push	 ecx
  00098	0f b6 95 0b ff
	ff ff		 movzx	 edx, BYTE PTR $T1[ebp]
  0009f	52		 push	 edx
  000a0	6a 01		 push	 1
  000a2	8b 4d f8	 mov	 ecx, DWORD PTR _this$[ebp]
  000a5	e8 00 00 00 00	 call	 ??$_Reallocate_grow_by@V<lambda_15711c68e099a15a58f4d77303cb286d>@@D@?$basic_string@DU?$char_traits@D@std@@V?$allocator@D@2@@std@@AAEAAV01@IV<lambda_15711c68e099a15a58f4d77303cb286d>@@D@Z ; std::basic_string<char,std::char_traits<char>,std::allocator<char> >::_Reallocate_grow_by<<lambda_15711c68e099a15a58f4d77303cb286d>,char>
$LN1@push_back:

; 3838 :             1,
; 3839 :             [](_Elem* const _New_ptr, const _Elem* const _Old_ptr, const size_type _Old_size, const _Elem _Ch) {
; 3840 :                 _Traits::copy(_New_ptr, _Old_ptr, _Old_size);
; 3841 :                 _Traits::assign(_New_ptr[_Old_size], _Ch);
; 3842 :                 _Traits::assign(_New_ptr[_Old_size + 1], _Elem());
; 3843 :             },
; 3844 :             _Ch);
; 3845 :     }

  000aa	5f		 pop	 edi
  000ab	5e		 pop	 esi
  000ac	5b		 pop	 ebx
  000ad	81 c4 fc 00 00
	00		 add	 esp, 252		; 000000fcH
  000b3	3b ec		 cmp	 ebp, esp
  000b5	e8 00 00 00 00	 call	 __RTC_CheckEsp
  000ba	8b e5		 mov	 esp, ebp
  000bc	5d		 pop	 ebp
  000bd	c2 04 00	 ret	 4
?push_back@?$basic_string@DU?$char_traits@D@std@@V?$allocator@D@2@@std@@QAEXD@Z ENDP ; std::basic_string<char,std::char_traits<char>,std::allocator<char> >::push_back
_TEXT	ENDS
; Function compile flags: /Odtp /RTCsu /ZI
; File C:\Program Files (x86)\Microsoft Visual Studio\2019\Community\VC\Tools\MSVC\14.29.30133\include\xstring
;	COMDAT ?erase@?$basic_string@DU?$char_traits@D@std@@V?$allocator@D@2@@std@@QAEAAV12@I@Z
_TEXT	SEGMENT
_this$ = -8						; size = 4
__Off$ = 8						; size = 4
?erase@?$basic_string@DU?$char_traits@D@std@@V?$allocator@D@2@@std@@QAEAAV12@I@Z PROC ; std::basic_string<char,std::char_traits<char>,std::allocator<char> >::erase, COMDAT
; _this$ = ecx

; 3419 :     _CONSTEXPR20_CONTAINER basic_string& erase(const size_type _Off = 0) { // erase elements [_Off, ...)

  00000	55		 push	 ebp
  00001	8b ec		 mov	 ebp, esp
  00003	81 ec cc 00 00
	00		 sub	 esp, 204		; 000000ccH
  00009	53		 push	 ebx
  0000a	56		 push	 esi
  0000b	57		 push	 edi
  0000c	51		 push	 ecx
  0000d	8d 7d f4	 lea	 edi, DWORD PTR [ebp-12]
  00010	b9 03 00 00 00	 mov	 ecx, 3
  00015	b8 cc cc cc cc	 mov	 eax, -858993460		; ccccccccH
  0001a	f3 ab		 rep stosd
  0001c	59		 pop	 ecx
  0001d	89 4d f8	 mov	 DWORD PTR _this$[ebp], ecx
  00020	b9 00 00 00 00	 mov	 ecx, OFFSET __0D019051_xstring
  00025	e8 00 00 00 00	 call	 @__CheckForDebuggerJustMyCode@4

; 3420 :         _Mypair._Myval2._Check_offset(_Off);

  0002a	8b 45 08	 mov	 eax, DWORD PTR __Off$[ebp]
  0002d	50		 push	 eax
  0002e	8b 4d f8	 mov	 ecx, DWORD PTR _this$[ebp]
  00031	e8 00 00 00 00	 call	 ?_Check_offset@?$_String_val@U?$_Simple_types@D@std@@@std@@QBEXI@Z ; std::_String_val<std::_Simple_types<char> >::_Check_offset

; 3421 :         _Eos(_Off);

  00036	8b 45 08	 mov	 eax, DWORD PTR __Off$[ebp]
  00039	50		 push	 eax
  0003a	8b 4d f8	 mov	 ecx, DWORD PTR _this$[ebp]
  0003d	e8 00 00 00 00	 call	 ?_Eos@?$basic_string@DU?$char_traits@D@std@@V?$allocator@D@2@@std@@AAEXI@Z ; std::basic_string<char,std::char_traits<char>,std::allocator<char> >::_Eos

; 3422 :         return *this;

  00042	8b 45 f8	 mov	 eax, DWORD PTR _this$[ebp]

; 3423 :     }

  00045	5f		 pop	 edi
  00046	5e		 pop	 esi
  00047	5b		 pop	 ebx
  00048	81 c4 cc 00 00
	00		 add	 esp, 204		; 000000ccH
  0004e	3b ec		 cmp	 ebp, esp
  00050	e8 00 00 00 00	 call	 __RTC_CheckEsp
  00055	8b e5		 mov	 esp, ebp
  00057	5d		 pop	 ebp
  00058	c2 04 00	 ret	 4
?erase@?$basic_string@DU?$char_traits@D@std@@V?$allocator@D@2@@std@@QAEAAV12@I@Z ENDP ; std::basic_string<char,std::char_traits<char>,std::allocator<char> >::erase
_TEXT	ENDS
; Function compile flags: /Odtp /RTCsu /ZI
; File C:\Program Files (x86)\Microsoft Visual Studio\2019\Community\VC\Tools\MSVC\14.29.30133\include\xstring
;	COMDAT ?assign@?$basic_string@DU?$char_traits@D@std@@V?$allocator@D@2@@std@@QAEAAV12@QBDI@Z
_TEXT	SEGMENT
$T1 = -233						; size = 1
$T2 = -221						; size = 1
__Old_ptr$3 = -20					; size = 4
_this$ = -8						; size = 4
__Ptr$ = 8						; size = 4
__Count$ = 12						; size = 4
?assign@?$basic_string@DU?$char_traits@D@std@@V?$allocator@D@2@@std@@QAEAAV12@QBDI@Z PROC ; std::basic_string<char,std::char_traits<char>,std::allocator<char> >::assign, COMDAT
; _this$ = ecx

; 3210 :         _In_reads_(_Count) const _Elem* const _Ptr, _CRT_GUARDOVERFLOW const size_type _Count) {

  00000	55		 push	 ebp
  00001	8b ec		 mov	 ebp, esp
  00003	81 ec f0 00 00
	00		 sub	 esp, 240		; 000000f0H
  00009	53		 push	 ebx
  0000a	56		 push	 esi
  0000b	57		 push	 edi
  0000c	51		 push	 ecx
  0000d	8d 7d d0	 lea	 edi, DWORD PTR [ebp-48]
  00010	b9 0c 00 00 00	 mov	 ecx, 12			; 0000000cH
  00015	b8 cc cc cc cc	 mov	 eax, -858993460		; ccccccccH
  0001a	f3 ab		 rep stosd
  0001c	59		 pop	 ecx
  0001d	89 4d f8	 mov	 DWORD PTR _this$[ebp], ecx
  00020	b9 00 00 00 00	 mov	 ecx, OFFSET __0D019051_xstring
  00025	e8 00 00 00 00	 call	 @__CheckForDebuggerJustMyCode@4

; 3211 :         // assign [_Ptr, _Ptr + _Count)
; 3212 :         if (_Count <= _Mypair._Myval2._Myres) {

  0002a	8b 45 f8	 mov	 eax, DWORD PTR _this$[ebp]
  0002d	8b 4d 0c	 mov	 ecx, DWORD PTR __Count$[ebp]
  00030	3b 48 18	 cmp	 ecx, DWORD PTR [eax+24]
  00033	77 4a		 ja	 SHORT $LN2@assign

; 3213 :             _Elem* const _Old_ptr   = _Mypair._Myval2._Myptr();

  00035	8b 4d f8	 mov	 ecx, DWORD PTR _this$[ebp]
  00038	e8 00 00 00 00	 call	 ?_Myptr@?$_String_val@U?$_Simple_types@D@std@@@std@@QAEPADXZ ; std::_String_val<std::_Simple_types<char> >::_Myptr
  0003d	89 45 ec	 mov	 DWORD PTR __Old_ptr$3[ebp], eax

; 3214 :             _Mypair._Myval2._Mysize = _Count;

  00040	8b 45 f8	 mov	 eax, DWORD PTR _this$[ebp]
  00043	8b 4d 0c	 mov	 ecx, DWORD PTR __Count$[ebp]
  00046	89 48 14	 mov	 DWORD PTR [eax+20], ecx

; 3215 :             _Traits::move(_Old_ptr, _Ptr, _Count);

  00049	8b 45 0c	 mov	 eax, DWORD PTR __Count$[ebp]
  0004c	50		 push	 eax
  0004d	8b 4d 08	 mov	 ecx, DWORD PTR __Ptr$[ebp]
  00050	51		 push	 ecx
  00051	8b 55 ec	 mov	 edx, DWORD PTR __Old_ptr$3[ebp]
  00054	52		 push	 edx
  00055	e8 00 00 00 00	 call	 ?move@?$_Char_traits@DH@std@@SAPADQADQBDI@Z ; std::_Char_traits<char,int>::move
  0005a	83 c4 0c	 add	 esp, 12			; 0000000cH

; 3216 :             _Traits::assign(_Old_ptr[_Count], _Elem());

  0005d	c6 85 23 ff ff
	ff 00		 mov	 BYTE PTR $T2[ebp], 0
  00064	8d 85 23 ff ff
	ff		 lea	 eax, DWORD PTR $T2[ebp]
  0006a	50		 push	 eax
  0006b	8b 4d ec	 mov	 ecx, DWORD PTR __Old_ptr$3[ebp]
  0006e	03 4d 0c	 add	 ecx, DWORD PTR __Count$[ebp]
  00071	51		 push	 ecx
  00072	e8 00 00 00 00	 call	 ?assign@?$_Narrow_char_traits@DH@std@@SAXAADABD@Z ; std::_Narrow_char_traits<char,int>::assign
  00077	83 c4 08	 add	 esp, 8

; 3217 :             return *this;

  0007a	8b 45 f8	 mov	 eax, DWORD PTR _this$[ebp]
  0007d	eb 20		 jmp	 SHORT $LN1@assign
$LN2@assign:

; 3218 :         }
; 3219 : 
; 3220 :         return _Reallocate_for(

  0007f	33 c0		 xor	 eax, eax
  00081	88 85 17 ff ff
	ff		 mov	 BYTE PTR $T1[ebp], al
  00087	8b 4d 08	 mov	 ecx, DWORD PTR __Ptr$[ebp]
  0008a	51		 push	 ecx
  0008b	0f b6 95 17 ff
	ff ff		 movzx	 edx, BYTE PTR $T1[ebp]
  00092	52		 push	 edx
  00093	8b 45 0c	 mov	 eax, DWORD PTR __Count$[ebp]
  00096	50		 push	 eax
  00097	8b 4d f8	 mov	 ecx, DWORD PTR _this$[ebp]
  0009a	e8 00 00 00 00	 call	 ??$_Reallocate_for@V<lambda_9366063389c5f42a00a5088cf24e69de>@@PBD@?$basic_string@DU?$char_traits@D@std@@V?$allocator@D@2@@std@@AAEAAV01@IV<lambda_9366063389c5f42a00a5088cf24e69de>@@PBD@Z ; std::basic_string<char,std::char_traits<char>,std::allocator<char> >::_Reallocate_for<<lambda_9366063389c5f42a00a5088cf24e69de>,char const *>
$LN1@assign:

; 3221 :             _Count,
; 3222 :             [](_Elem* const _New_ptr, const size_type _Count, const _Elem* const _Ptr) {
; 3223 :                 _Traits::copy(_New_ptr, _Ptr, _Count);
; 3224 :                 _Traits::assign(_New_ptr[_Count], _Elem());
; 3225 :             },
; 3226 :             _Ptr);
; 3227 :     }

  0009f	5f		 pop	 edi
  000a0	5e		 pop	 esi
  000a1	5b		 pop	 ebx
  000a2	81 c4 f0 00 00
	00		 add	 esp, 240		; 000000f0H
  000a8	3b ec		 cmp	 ebp, esp
  000aa	e8 00 00 00 00	 call	 __RTC_CheckEsp
  000af	8b e5		 mov	 esp, ebp
  000b1	5d		 pop	 ebp
  000b2	c2 08 00	 ret	 8
?assign@?$basic_string@DU?$char_traits@D@std@@V?$allocator@D@2@@std@@QAEAAV12@QBDI@Z ENDP ; std::basic_string<char,std::char_traits<char>,std::allocator<char> >::assign
_TEXT	ENDS
; Function compile flags: /Odtp /RTCsu /ZI
; File C:\Program Files (x86)\Microsoft Visual Studio\2019\Community\VC\Tools\MSVC\14.29.30133\include\xstring
;	COMDAT ?assign@?$basic_string@DU?$char_traits@D@std@@V?$allocator@D@2@@std@@QAEAAV12@ABV12@II@Z
_TEXT	SEGMENT
_this$ = -8						; size = 4
__Right$ = 8						; size = 4
__Roff$ = 12						; size = 4
__Count$ = 16						; size = 4
?assign@?$basic_string@DU?$char_traits@D@std@@V?$allocator@D@2@@std@@QAEAAV12@ABV12@II@Z PROC ; std::basic_string<char,std::char_traits<char>,std::allocator<char> >::assign, COMDAT
; _this$ = ecx

; 3186 :         const basic_string& _Right, const size_type _Roff, size_type _Count = npos) {

  00000	55		 push	 ebp
  00001	8b ec		 mov	 ebp, esp
  00003	81 ec cc 00 00
	00		 sub	 esp, 204		; 000000ccH
  00009	53		 push	 ebx
  0000a	56		 push	 esi
  0000b	57		 push	 edi
  0000c	51		 push	 ecx
  0000d	8d 7d f4	 lea	 edi, DWORD PTR [ebp-12]
  00010	b9 03 00 00 00	 mov	 ecx, 3
  00015	b8 cc cc cc cc	 mov	 eax, -858993460		; ccccccccH
  0001a	f3 ab		 rep stosd
  0001c	59		 pop	 ecx
  0001d	89 4d f8	 mov	 DWORD PTR _this$[ebp], ecx
  00020	b9 00 00 00 00	 mov	 ecx, OFFSET __0D019051_xstring
  00025	e8 00 00 00 00	 call	 @__CheckForDebuggerJustMyCode@4

; 3187 :         // assign _Right [_Roff, _Roff + _Count)
; 3188 :         _Right._Mypair._Myval2._Check_offset(_Roff);

  0002a	8b 45 0c	 mov	 eax, DWORD PTR __Roff$[ebp]
  0002d	50		 push	 eax
  0002e	8b 4d 08	 mov	 ecx, DWORD PTR __Right$[ebp]
  00031	e8 00 00 00 00	 call	 ?_Check_offset@?$_String_val@U?$_Simple_types@D@std@@@std@@QBEXI@Z ; std::_String_val<std::_Simple_types<char> >::_Check_offset

; 3189 :         _Count = _Right._Mypair._Myval2._Clamp_suffix_size(_Roff, _Count);

  00036	8b 45 10	 mov	 eax, DWORD PTR __Count$[ebp]
  00039	50		 push	 eax
  0003a	8b 4d 0c	 mov	 ecx, DWORD PTR __Roff$[ebp]
  0003d	51		 push	 ecx
  0003e	8b 4d 08	 mov	 ecx, DWORD PTR __Right$[ebp]
  00041	e8 00 00 00 00	 call	 ?_Clamp_suffix_size@?$_String_val@U?$_Simple_types@D@std@@@std@@QBEIII@Z ; std::_String_val<std::_Simple_types<char> >::_Clamp_suffix_size
  00046	89 45 10	 mov	 DWORD PTR __Count$[ebp], eax

; 3190 :         return assign(_Right._Mypair._Myval2._Myptr() + _Roff, _Count);

  00049	8b 45 10	 mov	 eax, DWORD PTR __Count$[ebp]
  0004c	50		 push	 eax
  0004d	8b 4d 08	 mov	 ecx, DWORD PTR __Right$[ebp]
  00050	e8 00 00 00 00	 call	 ?_Myptr@?$_String_val@U?$_Simple_types@D@std@@@std@@QBEPBDXZ ; std::_String_val<std::_Simple_types<char> >::_Myptr
  00055	03 45 0c	 add	 eax, DWORD PTR __Roff$[ebp]
  00058	50		 push	 eax
  00059	8b 4d f8	 mov	 ecx, DWORD PTR _this$[ebp]
  0005c	e8 00 00 00 00	 call	 ?assign@?$basic_string@DU?$char_traits@D@std@@V?$allocator@D@2@@std@@QAEAAV12@QBDI@Z ; std::basic_string<char,std::char_traits<char>,std::allocator<char> >::assign

; 3191 :     }

  00061	5f		 pop	 edi
  00062	5e		 pop	 esi
  00063	5b		 pop	 ebx
  00064	81 c4 cc 00 00
	00		 add	 esp, 204		; 000000ccH
  0006a	3b ec		 cmp	 ebp, esp
  0006c	e8 00 00 00 00	 call	 __RTC_CheckEsp
  00071	8b e5		 mov	 esp, ebp
  00073	5d		 pop	 ebp
  00074	c2 0c 00	 ret	 12			; 0000000cH
?assign@?$basic_string@DU?$char_traits@D@std@@V?$allocator@D@2@@std@@QAEAAV12@ABV12@II@Z ENDP ; std::basic_string<char,std::char_traits<char>,std::allocator<char> >::assign
_TEXT	ENDS
; Function compile flags: /Odtp /RTCsu /ZI
; File C:\Program Files (x86)\Microsoft Visual Studio\2019\Community\VC\Tools\MSVC\14.29.30133\include\xstring
;	COMDAT ??1?$basic_string@DU?$char_traits@D@std@@V?$allocator@D@2@@std@@QAE@XZ
_TEXT	SEGMENT
__To_delete$ = -48					; size = 4
_$S8$ = -33						; size = 1
__Alproxy$ = -24					; size = 4
_this$ = -12						; size = 4
__$ArrayPad$ = -4					; size = 4
??1?$basic_string@DU?$char_traits@D@std@@V?$allocator@D@2@@std@@QAE@XZ PROC ; std::basic_string<char,std::char_traits<char>,std::allocator<char> >::~basic_string<char,std::char_traits<char>,std::allocator<char> >, COMDAT
; _this$ = ecx

; 2968 :     _CONSTEXPR20_CONTAINER ~basic_string() noexcept {

  00000	55		 push	 ebp
  00001	8b ec		 mov	 ebp, esp
  00003	81 ec f4 00 00
	00		 sub	 esp, 244		; 000000f4H
  00009	53		 push	 ebx
  0000a	56		 push	 esi
  0000b	57		 push	 edi
  0000c	51		 push	 ecx
  0000d	8d 7d cc	 lea	 edi, DWORD PTR [ebp-52]
  00010	b9 0d 00 00 00	 mov	 ecx, 13			; 0000000dH
  00015	b8 cc cc cc cc	 mov	 eax, -858993460		; ccccccccH
  0001a	f3 ab		 rep stosd
  0001c	59		 pop	 ecx
  0001d	a1 00 00 00 00	 mov	 eax, DWORD PTR ___security_cookie
  00022	33 c5		 xor	 eax, ebp
  00024	89 45 fc	 mov	 DWORD PTR __$ArrayPad$[ebp], eax
  00027	89 4d f4	 mov	 DWORD PTR _this$[ebp], ecx
  0002a	b9 00 00 00 00	 mov	 ecx, OFFSET __0D019051_xstring
  0002f	e8 00 00 00 00	 call	 @__CheckForDebuggerJustMyCode@4

; 2969 :         _Tidy_deallocate();

  00034	8b 4d f4	 mov	 ecx, DWORD PTR _this$[ebp]
  00037	e8 00 00 00 00	 call	 ?_Tidy_deallocate@?$basic_string@DU?$char_traits@D@std@@V?$allocator@D@2@@std@@AAEXXZ ; std::basic_string<char,std::char_traits<char>,std::allocator<char> >::_Tidy_deallocate

; 2970 : #if _ITERATOR_DEBUG_LEVEL != 0
; 2971 :         auto&& _Alproxy          = _GET_PROXY_ALLOCATOR(_Alty, _Getal());

  0003c	8b 4d f4	 mov	 ecx, DWORD PTR _this$[ebp]
  0003f	e8 00 00 00 00	 call	 ?_Getal@?$basic_string@DU?$char_traits@D@std@@V?$allocator@D@2@@std@@AAEAAV?$allocator@D@2@XZ ; std::basic_string<char,std::char_traits<char>,std::allocator<char> >::_Getal
  00044	50		 push	 eax
  00045	8d 4d df	 lea	 ecx, DWORD PTR _$S8$[ebp]
  00048	e8 00 00 00 00	 call	 ??$?0D@?$allocator@U_Container_proxy@std@@@std@@QAE@ABV?$allocator@D@1@@Z ; std::allocator<std::_Container_proxy>::allocator<std::_Container_proxy><char>
  0004d	8d 45 df	 lea	 eax, DWORD PTR _$S8$[ebp]
  00050	89 45 e8	 mov	 DWORD PTR __Alproxy$[ebp], eax

; 2972 :         const auto _To_delete    = _Mypair._Myval2._Myproxy;

  00053	8b 45 f4	 mov	 eax, DWORD PTR _this$[ebp]
  00056	8b 08		 mov	 ecx, DWORD PTR [eax]
  00058	89 4d d0	 mov	 DWORD PTR __To_delete$[ebp], ecx

; 2973 :         _Mypair._Myval2._Myproxy = nullptr;

  0005b	8b 45 f4	 mov	 eax, DWORD PTR _this$[ebp]
  0005e	c7 00 00 00 00
	00		 mov	 DWORD PTR [eax], 0

; 2974 :         _Delete_plain_internal(_Alproxy, _To_delete);

  00064	8b 45 d0	 mov	 eax, DWORD PTR __To_delete$[ebp]
  00067	50		 push	 eax
  00068	8b 4d e8	 mov	 ecx, DWORD PTR __Alproxy$[ebp]
  0006b	51		 push	 ecx
  0006c	e8 00 00 00 00	 call	 ??$_Delete_plain_internal@V?$allocator@U_Container_proxy@std@@@std@@@std@@YAXAAV?$allocator@U_Container_proxy@std@@@0@QAU_Container_proxy@0@@Z ; std::_Delete_plain_internal<std::allocator<std::_Container_proxy> >
  00071	83 c4 08	 add	 esp, 8

; 2975 : #endif // _ITERATOR_DEBUG_LEVEL != 0
; 2976 :     }

  00074	8b 4d f4	 mov	 ecx, DWORD PTR _this$[ebp]
  00077	e8 00 00 00 00	 call	 ??1?$_Compressed_pair@V?$allocator@D@std@@V?$_String_val@U?$_Simple_types@D@std@@@2@$00@std@@QAE@XZ
  0007c	52		 push	 edx
  0007d	8b cd		 mov	 ecx, ebp
  0007f	50		 push	 eax
  00080	8d 15 00 00 00
	00		 lea	 edx, DWORD PTR $LN5@basic_stri
  00086	e8 00 00 00 00	 call	 @_RTC_CheckStackVars@8
  0008b	58		 pop	 eax
  0008c	5a		 pop	 edx
  0008d	5f		 pop	 edi
  0008e	5e		 pop	 esi
  0008f	5b		 pop	 ebx
  00090	8b 4d fc	 mov	 ecx, DWORD PTR __$ArrayPad$[ebp]
  00093	33 cd		 xor	 ecx, ebp
  00095	e8 00 00 00 00	 call	 @__security_check_cookie@4
  0009a	81 c4 f4 00 00
	00		 add	 esp, 244		; 000000f4H
  000a0	3b ec		 cmp	 ebp, esp
  000a2	e8 00 00 00 00	 call	 __RTC_CheckEsp
  000a7	8b e5		 mov	 esp, ebp
  000a9	5d		 pop	 ebp
  000aa	c3		 ret	 0
  000ab	90		 npad	 1
$LN5@basic_stri:
  000ac	01 00 00 00	 DD	 1
  000b0	00 00 00 00	 DD	 $LN4@basic_stri
$LN4@basic_stri:
  000b4	df ff ff ff	 DD	 -33			; ffffffdfH
  000b8	01 00 00 00	 DD	 1
  000bc	00 00 00 00	 DD	 $LN3@basic_stri
$LN3@basic_stri:
  000c0	24		 DB	 36			; 00000024H
  000c1	53		 DB	 83			; 00000053H
  000c2	38		 DB	 56			; 00000038H
  000c3	00		 DB	 0
??1?$basic_string@DU?$char_traits@D@std@@V?$allocator@D@2@@std@@QAE@XZ ENDP ; std::basic_string<char,std::char_traits<char>,std::allocator<char> >::~basic_string<char,std::char_traits<char>,std::allocator<char> >
_TEXT	ENDS
; Function compile flags: /Odtp /RTCsu /ZI
; File C:\Program Files (x86)\Microsoft Visual Studio\2019\Community\VC\Tools\MSVC\14.29.30133\include\xstring
;	COMDAT ?_Take_contents@?$basic_string@DU?$char_traits@D@std@@V?$allocator@D@2@@std@@AAEXAAV12@@Z
_TEXT	SEGMENT
__Right_data$ = -44					; size = 4
__My_data$ = -32					; size = 4
_this$ = -20						; size = 4
__$EHRec$ = -12						; size = 12
__Right$ = 8						; size = 4
?_Take_contents@?$basic_string@DU?$char_traits@D@std@@V?$allocator@D@2@@std@@AAEXAAV12@@Z PROC ; std::basic_string<char,std::char_traits<char>,std::allocator<char> >::_Take_contents, COMDAT
; _this$ = ecx

; 2838 :     _CONSTEXPR20_CONTAINER void _Take_contents(basic_string& _Right) noexcept {

  00000	55		 push	 ebp
  00001	8b ec		 mov	 ebp, esp
  00003	6a ff		 push	 -1
  00005	68 00 00 00 00	 push	 __ehhandler$?_Take_contents@?$basic_string@DU?$char_traits@D@std@@V?$allocator@D@2@@std@@AAEXAAV12@@Z
  0000a	64 a1 00 00 00
	00		 mov	 eax, DWORD PTR fs:0
  00010	50		 push	 eax
  00011	81 ec e4 00 00
	00		 sub	 esp, 228		; 000000e4H
  00017	53		 push	 ebx
  00018	56		 push	 esi
  00019	57		 push	 edi
  0001a	51		 push	 ecx
  0001b	8d 7d d0	 lea	 edi, DWORD PTR [ebp-48]
  0001e	b9 09 00 00 00	 mov	 ecx, 9
  00023	b8 cc cc cc cc	 mov	 eax, -858993460		; ccccccccH
  00028	f3 ab		 rep stosd
  0002a	59		 pop	 ecx
  0002b	a1 00 00 00 00	 mov	 eax, DWORD PTR ___security_cookie
  00030	33 c5		 xor	 eax, ebp
  00032	50		 push	 eax
  00033	8d 45 f4	 lea	 eax, DWORD PTR __$EHRec$[ebp]
  00036	64 a3 00 00 00
	00		 mov	 DWORD PTR fs:0, eax
  0003c	89 4d ec	 mov	 DWORD PTR _this$[ebp], ecx
  0003f	b9 00 00 00 00	 mov	 ecx, OFFSET __0D019051_xstring
  00044	e8 00 00 00 00	 call	 @__CheckForDebuggerJustMyCode@4

; 2839 :         // assign by stealing _Right's buffer
; 2840 :         // pre: this != &_Right
; 2841 :         // pre: allocator propagation (POCMA) from _Right, if necessary, is complete
; 2842 :         // pre: *this owns no memory, iterators orphaned
; 2843 :         // (note: _Buf/_Ptr/_Mysize/_Myres may be garbage init)
; 2844 :         auto& _My_data    = _Mypair._Myval2;

  00049	8b 45 ec	 mov	 eax, DWORD PTR _this$[ebp]
  0004c	89 45 e0	 mov	 DWORD PTR __My_data$[ebp], eax

; 2845 :         auto& _Right_data = _Right._Mypair._Myval2;

  0004f	8b 45 08	 mov	 eax, DWORD PTR __Right$[ebp]
  00052	89 45 d4	 mov	 DWORD PTR __Right_data$[ebp], eax

; 2846 : 
; 2847 :         if constexpr (_Can_memcpy_val) {
; 2848 : #ifdef __cpp_lib_constexpr_string
; 2849 :             if (!_STD is_constant_evaluated())
; 2850 : #endif // __cpp_lib_constexpr_string
; 2851 :             {
; 2852 : #if _ITERATOR_DEBUG_LEVEL != 0
; 2853 :                 if (_Right_data._Large_string_engaged()) {

  00055	8b 4d d4	 mov	 ecx, DWORD PTR __Right_data$[ebp]
  00058	e8 00 00 00 00	 call	 ?_Large_string_engaged@?$_String_val@U?$_Simple_types@D@std@@@std@@QBE_NXZ ; std::_String_val<std::_Simple_types<char> >::_Large_string_engaged
  0005d	0f b6 c0	 movzx	 eax, al
  00060	85 c0		 test	 eax, eax
  00062	74 0e		 je	 SHORT $LN2@Take_conte

; 2854 :                     // take ownership of _Right's iterators along with its buffer
; 2855 :                     _Swap_proxy_and_iterators(_Right);

  00064	8b 45 08	 mov	 eax, DWORD PTR __Right$[ebp]
  00067	50		 push	 eax
  00068	8b 4d ec	 mov	 ecx, DWORD PTR _this$[ebp]
  0006b	e8 00 00 00 00	 call	 ?_Swap_proxy_and_iterators@?$basic_string@DU?$char_traits@D@std@@V?$allocator@D@2@@std@@AAEXAAV12@@Z ; std::basic_string<char,std::char_traits<char>,std::allocator<char> >::_Swap_proxy_and_iterators

; 2856 :                 } else {

  00070	eb 08		 jmp	 SHORT $LN3@Take_conte
$LN2@Take_conte:

; 2857 :                     _Right_data._Orphan_all();

  00072	8b 4d d4	 mov	 ecx, DWORD PTR __Right_data$[ebp]
  00075	e8 00 00 00 00	 call	 ?_Orphan_all@_Container_base12@std@@QAEXXZ ; std::_Container_base12::_Orphan_all
$LN3@Take_conte:

; 2858 :                 }
; 2859 : #endif // _ITERATOR_DEBUG_LEVEL != 0
; 2860 : 
; 2861 :                 _Memcpy_val_from(_Right);

  0007a	8b 45 08	 mov	 eax, DWORD PTR __Right$[ebp]
  0007d	50		 push	 eax
  0007e	8b 4d ec	 mov	 ecx, DWORD PTR _this$[ebp]
  00081	e8 00 00 00 00	 call	 ?_Memcpy_val_from@?$basic_string@DU?$char_traits@D@std@@V?$allocator@D@2@@std@@AAEXABV12@@Z ; std::basic_string<char,std::char_traits<char>,std::allocator<char> >::_Memcpy_val_from

; 2862 :                 _Right._Tidy_init();

  00086	8b 4d 08	 mov	 ecx, DWORD PTR __Right$[ebp]
  00089	e8 00 00 00 00	 call	 ?_Tidy_init@?$basic_string@DU?$char_traits@D@std@@V?$allocator@D@2@@std@@AAEXXZ ; std::basic_string<char,std::char_traits<char>,std::allocator<char> >::_Tidy_init

; 2863 :                 return;

  0008e	e9 85 00 00 00	 jmp	 $LN6@Take_conte

; 2864 :             }
; 2865 :         }
; 2866 : 
; 2867 :         if (_Right_data._Large_string_engaged()) { // steal buffer

  00093	8b 4d d4	 mov	 ecx, DWORD PTR __Right_data$[ebp]
  00096	e8 00 00 00 00	 call	 ?_Large_string_engaged@?$_String_val@U?$_Simple_types@D@std@@@std@@QBE_NXZ ; std::_String_val<std::_Simple_types<char> >::_Large_string_engaged
  0009b	0f b6 c0	 movzx	 eax, al
  0009e	85 c0		 test	 eax, eax
  000a0	74 2e		 je	 SHORT $LN4@Take_conte

; 2868 :             _Construct_in_place(_My_data._Bx._Ptr, _Right_data._Bx._Ptr);

  000a2	8b 45 d4	 mov	 eax, DWORD PTR __Right_data$[ebp]
  000a5	83 c0 04	 add	 eax, 4
  000a8	50		 push	 eax
  000a9	8b 4d e0	 mov	 ecx, DWORD PTR __My_data$[ebp]
  000ac	83 c1 04	 add	 ecx, 4
  000af	51		 push	 ecx
  000b0	e8 00 00 00 00	 call	 ??$_Construct_in_place@PADAAPAD@std@@YAXAAPAD0@Z ; std::_Construct_in_place<char *,char * &>
  000b5	83 c4 08	 add	 esp, 8

; 2869 :             _Right_data._Bx._Ptr = nullptr;

  000b8	8b 45 d4	 mov	 eax, DWORD PTR __Right_data$[ebp]
  000bb	c7 40 04 00 00
	00 00		 mov	 DWORD PTR [eax+4], 0

; 2870 :             _Swap_proxy_and_iterators(_Right);

  000c2	8b 45 08	 mov	 eax, DWORD PTR __Right$[ebp]
  000c5	50		 push	 eax
  000c6	8b 4d ec	 mov	 ecx, DWORD PTR _this$[ebp]
  000c9	e8 00 00 00 00	 call	 ?_Swap_proxy_and_iterators@?$basic_string@DU?$char_traits@D@std@@V?$allocator@D@2@@std@@AAEXAAV12@@Z ; std::basic_string<char,std::char_traits<char>,std::allocator<char> >::_Swap_proxy_and_iterators

; 2871 :         } else { // copy small string buffer

  000ce	eb 28		 jmp	 SHORT $LN5@Take_conte
$LN4@Take_conte:

; 2872 :             _Traits::copy(_My_data._Bx._Buf, _Right_data._Bx._Buf, _Right_data._Mysize + 1);

  000d0	8b 45 d4	 mov	 eax, DWORD PTR __Right_data$[ebp]
  000d3	8b 48 14	 mov	 ecx, DWORD PTR [eax+20]
  000d6	83 c1 01	 add	 ecx, 1
  000d9	51		 push	 ecx
  000da	8b 55 d4	 mov	 edx, DWORD PTR __Right_data$[ebp]
  000dd	83 c2 04	 add	 edx, 4
  000e0	52		 push	 edx
  000e1	8b 45 e0	 mov	 eax, DWORD PTR __My_data$[ebp]
  000e4	83 c0 04	 add	 eax, 4
  000e7	50		 push	 eax
  000e8	e8 00 00 00 00	 call	 ?copy@?$_Char_traits@DH@std@@SAPADQADQBDI@Z ; std::_Char_traits<char,int>::copy
  000ed	83 c4 0c	 add	 esp, 12			; 0000000cH

; 2873 :             _Right_data._Orphan_all();

  000f0	8b 4d d4	 mov	 ecx, DWORD PTR __Right_data$[ebp]
  000f3	e8 00 00 00 00	 call	 ?_Orphan_all@_Container_base12@std@@QAEXXZ ; std::_Container_base12::_Orphan_all
$LN5@Take_conte:

; 2874 :         }
; 2875 : 
; 2876 :         _My_data._Mysize = _Right_data._Mysize;

  000f8	8b 45 e0	 mov	 eax, DWORD PTR __My_data$[ebp]
  000fb	8b 4d d4	 mov	 ecx, DWORD PTR __Right_data$[ebp]
  000fe	8b 51 14	 mov	 edx, DWORD PTR [ecx+20]
  00101	89 50 14	 mov	 DWORD PTR [eax+20], edx

; 2877 :         _My_data._Myres  = _Right_data._Myres;

  00104	8b 45 e0	 mov	 eax, DWORD PTR __My_data$[ebp]
  00107	8b 4d d4	 mov	 ecx, DWORD PTR __Right_data$[ebp]
  0010a	8b 51 18	 mov	 edx, DWORD PTR [ecx+24]
  0010d	89 50 18	 mov	 DWORD PTR [eax+24], edx

; 2878 :         _Right._Tidy_init();

  00110	8b 4d 08	 mov	 ecx, DWORD PTR __Right$[ebp]
  00113	e8 00 00 00 00	 call	 ?_Tidy_init@?$basic_string@DU?$char_traits@D@std@@V?$allocator@D@2@@std@@AAEXXZ ; std::basic_string<char,std::char_traits<char>,std::allocator<char> >::_Tidy_init
$LN6@Take_conte:

; 2879 :     }

  00118	8b 4d f4	 mov	 ecx, DWORD PTR __$EHRec$[ebp]
  0011b	64 89 0d 00 00
	00 00		 mov	 DWORD PTR fs:0, ecx
  00122	59		 pop	 ecx
  00123	5f		 pop	 edi
  00124	5e		 pop	 esi
  00125	5b		 pop	 ebx
  00126	81 c4 f0 00 00
	00		 add	 esp, 240		; 000000f0H
  0012c	3b ec		 cmp	 ebp, esp
  0012e	e8 00 00 00 00	 call	 __RTC_CheckEsp
  00133	8b e5		 mov	 esp, ebp
  00135	5d		 pop	 ebp
  00136	c2 04 00	 ret	 4
  00139	cc		 int	 3
  0013a	cc		 int	 3
  0013b	cc		 int	 3
  0013c	cc		 int	 3
  0013d	cc		 int	 3
_TEXT	ENDS
;	COMDAT text$x
text$x	SEGMENT
__ehhandler$?_Take_contents@?$basic_string@DU?$char_traits@D@std@@V?$allocator@D@2@@std@@AAEXAAV12@@Z:
  00000	90		 npad	 1
  00001	90		 npad	 1
  00002	8b 54 24 08	 mov	 edx, DWORD PTR [esp+8]
  00006	8d 42 0c	 lea	 eax, DWORD PTR [edx+12]
  00009	8b 8a 0c ff ff
	ff		 mov	 ecx, DWORD PTR [edx-244]
  0000f	33 c8		 xor	 ecx, eax
  00011	e8 00 00 00 00	 call	 @__security_check_cookie@4
  00016	b8 00 00 00 00	 mov	 eax, OFFSET __ehfuncinfo$?_Take_contents@?$basic_string@DU?$char_traits@D@std@@V?$allocator@D@2@@std@@AAEXAAV12@@Z
  0001b	e9 00 00 00 00	 jmp	 ___CxxFrameHandler3
text$x	ENDS
?_Take_contents@?$basic_string@DU?$char_traits@D@std@@V?$allocator@D@2@@std@@AAEXAAV12@@Z ENDP ; std::basic_string<char,std::char_traits<char>,std::allocator<char> >::_Take_contents
; Function compile flags: /Odtp /RTCsu /ZI
; File C:\Program Files (x86)\Microsoft Visual Studio\2019\Community\VC\Tools\MSVC\14.29.30133\include\xstring
;	COMDAT ?_Memcpy_val_from@?$basic_string@DU?$char_traits@D@std@@V?$allocator@D@2@@std@@AAEXABV12@@Z
_TEXT	SEGMENT
__Right_data_mem$ = -32					; size = 4
__My_data_mem$ = -20					; size = 4
_this$ = -8						; size = 4
__Right$ = 8						; size = 4
?_Memcpy_val_from@?$basic_string@DU?$char_traits@D@std@@V?$allocator@D@2@@std@@AAEXABV12@@Z PROC ; std::basic_string<char,std::char_traits<char>,std::allocator<char> >::_Memcpy_val_from, COMDAT
; _this$ = ecx

; 2829 :     void _Memcpy_val_from(const basic_string& _Right) noexcept {

  00000	55		 push	 ebp
  00001	8b ec		 mov	 ebp, esp
  00003	81 ec e4 00 00
	00		 sub	 esp, 228		; 000000e4H
  00009	53		 push	 ebx
  0000a	56		 push	 esi
  0000b	57		 push	 edi
  0000c	51		 push	 ecx
  0000d	8d 7d dc	 lea	 edi, DWORD PTR [ebp-36]
  00010	b9 09 00 00 00	 mov	 ecx, 9
  00015	b8 cc cc cc cc	 mov	 eax, -858993460		; ccccccccH
  0001a	f3 ab		 rep stosd
  0001c	59		 pop	 ecx
  0001d	89 4d f8	 mov	 DWORD PTR _this$[ebp], ecx
  00020	b9 00 00 00 00	 mov	 ecx, OFFSET __0D019051_xstring
  00025	e8 00 00 00 00	 call	 @__CheckForDebuggerJustMyCode@4

; 2830 :         _STL_INTERNAL_CHECK(_Can_memcpy_val); // TRANSITION, if constexpr
; 2831 :         const auto _My_data_mem =

  0002a	8b 45 f8	 mov	 eax, DWORD PTR _this$[ebp]
  0002d	50		 push	 eax
  0002e	e8 00 00 00 00	 call	 ??$addressof@V?$_String_val@U?$_Simple_types@D@std@@@std@@@std@@YAPAV?$_String_val@U?$_Simple_types@D@std@@@0@AAV10@@Z ; std::addressof<std::_String_val<std::_Simple_types<char> > >
  00033	83 c4 04	 add	 esp, 4
  00036	83 c0 04	 add	 eax, 4
  00039	89 45 ec	 mov	 DWORD PTR __My_data_mem$[ebp], eax

; 2832 :             reinterpret_cast<unsigned char*>(_STD addressof(_Mypair._Myval2)) + _Memcpy_val_offset;
; 2833 :         const auto _Right_data_mem =

  0003c	8b 45 08	 mov	 eax, DWORD PTR __Right$[ebp]
  0003f	50		 push	 eax
  00040	e8 00 00 00 00	 call	 ??$addressof@$$CBV?$_String_val@U?$_Simple_types@D@std@@@std@@@std@@YAPBV?$_String_val@U?$_Simple_types@D@std@@@0@ABV10@@Z ; std::addressof<std::_String_val<std::_Simple_types<char> > const >
  00045	83 c4 04	 add	 esp, 4
  00048	83 c0 04	 add	 eax, 4
  0004b	89 45 e0	 mov	 DWORD PTR __Right_data_mem$[ebp], eax

; 2834 :             reinterpret_cast<const unsigned char*>(_STD addressof(_Right._Mypair._Myval2)) + _Memcpy_val_offset;
; 2835 :         _CSTD memcpy(_My_data_mem, _Right_data_mem, _Memcpy_val_size);

  0004e	6a 18		 push	 24			; 00000018H
  00050	8b 45 e0	 mov	 eax, DWORD PTR __Right_data_mem$[ebp]
  00053	50		 push	 eax
  00054	8b 4d ec	 mov	 ecx, DWORD PTR __My_data_mem$[ebp]
  00057	51		 push	 ecx
  00058	e8 00 00 00 00	 call	 _memcpy
  0005d	83 c4 0c	 add	 esp, 12			; 0000000cH

; 2836 :     }

  00060	5f		 pop	 edi
  00061	5e		 pop	 esi
  00062	5b		 pop	 ebx
  00063	81 c4 e4 00 00
	00		 add	 esp, 228		; 000000e4H
  00069	3b ec		 cmp	 ebp, esp
  0006b	e8 00 00 00 00	 call	 __RTC_CheckEsp
  00070	8b e5		 mov	 esp, ebp
  00072	5d		 pop	 ebp
  00073	c2 04 00	 ret	 4
?_Memcpy_val_from@?$basic_string@DU?$char_traits@D@std@@V?$allocator@D@2@@std@@AAEXABV12@@Z ENDP ; std::basic_string<char,std::char_traits<char>,std::allocator<char> >::_Memcpy_val_from
_TEXT	ENDS
; Function compile flags: /Odtp /RTCsu /ZI
; File C:\Program Files (x86)\Microsoft Visual Studio\2019\Community\VC\Tools\MSVC\14.29.30133\include\xstring
;	COMDAT ??4?$basic_string@DU?$char_traits@D@std@@V?$allocator@D@2@@std@@QAEAAV01@$$QAV01@@Z
_TEXT	SEGMENT
$T1 = -209						; size = 1
_this$ = -8						; size = 4
__Right$ = 8						; size = 4
??4?$basic_string@DU?$char_traits@D@std@@V?$allocator@D@2@@std@@QAEAAV01@$$QAV01@@Z PROC ; std::basic_string<char,std::char_traits<char>,std::allocator<char> >::operator=, COMDAT
; _this$ = ecx

; 2815 :         noexcept(_Move_assign(_Right, _Choose_pocma<_Alty>{}))) {

  00000	55		 push	 ebp
  00001	8b ec		 mov	 ebp, esp
  00003	81 ec d8 00 00
	00		 sub	 esp, 216		; 000000d8H
  00009	53		 push	 ebx
  0000a	56		 push	 esi
  0000b	57		 push	 edi
  0000c	51		 push	 ecx
  0000d	8d 7d e8	 lea	 edi, DWORD PTR [ebp-24]
  00010	b9 06 00 00 00	 mov	 ecx, 6
  00015	b8 cc cc cc cc	 mov	 eax, -858993460		; ccccccccH
  0001a	f3 ab		 rep stosd
  0001c	59		 pop	 ecx
  0001d	89 4d f8	 mov	 DWORD PTR _this$[ebp], ecx
  00020	b9 00 00 00 00	 mov	 ecx, OFFSET __0D019051_xstring
  00025	e8 00 00 00 00	 call	 @__CheckForDebuggerJustMyCode@4

; 2816 :         if (this != _STD addressof(_Right)) {

  0002a	8b 45 08	 mov	 eax, DWORD PTR __Right$[ebp]
  0002d	50		 push	 eax
  0002e	e8 00 00 00 00	 call	 ??$addressof@V?$basic_string@DU?$char_traits@D@std@@V?$allocator@D@2@@std@@@std@@YAPAV?$basic_string@DU?$char_traits@D@std@@V?$allocator@D@2@@0@AAV10@@Z ; std::addressof<std::basic_string<char,std::char_traits<char>,std::allocator<char> > >
  00033	83 c4 04	 add	 esp, 4
  00036	39 45 f8	 cmp	 DWORD PTR _this$[ebp], eax
  00039	74 1c		 je	 SHORT $LN2@operator

; 2817 :             _Move_assign(_Right, _Choose_pocma<_Alty>{});

  0003b	33 c0		 xor	 eax, eax
  0003d	88 85 2f ff ff
	ff		 mov	 BYTE PTR $T1[ebp], al
  00043	0f b6 8d 2f ff
	ff ff		 movzx	 ecx, BYTE PTR $T1[ebp]
  0004a	51		 push	 ecx
  0004b	8b 55 08	 mov	 edx, DWORD PTR __Right$[ebp]
  0004e	52		 push	 edx
  0004f	8b 4d f8	 mov	 ecx, DWORD PTR _this$[ebp]
  00052	e8 00 00 00 00	 call	 ?_Move_assign@?$basic_string@DU?$char_traits@D@std@@V?$allocator@D@2@@std@@AAEXAAV12@U_Equal_allocators@2@@Z ; std::basic_string<char,std::char_traits<char>,std::allocator<char> >::_Move_assign
$LN2@operator:

; 2818 :         }
; 2819 : 
; 2820 :         return *this;

  00057	8b 45 f8	 mov	 eax, DWORD PTR _this$[ebp]

; 2821 :     }

  0005a	5f		 pop	 edi
  0005b	5e		 pop	 esi
  0005c	5b		 pop	 ebx
  0005d	81 c4 d8 00 00
	00		 add	 esp, 216		; 000000d8H
  00063	3b ec		 cmp	 ebp, esp
  00065	e8 00 00 00 00	 call	 __RTC_CheckEsp
  0006a	8b e5		 mov	 esp, ebp
  0006c	5d		 pop	 ebp
  0006d	c2 04 00	 ret	 4
??4?$basic_string@DU?$char_traits@D@std@@V?$allocator@D@2@@std@@QAEAAV01@$$QAV01@@Z ENDP ; std::basic_string<char,std::char_traits<char>,std::allocator<char> >::operator=
_TEXT	ENDS
; Function compile flags: /Odtp /RTCsu /ZI
; File C:\Program Files (x86)\Microsoft Visual Studio\2019\Community\VC\Tools\MSVC\14.29.30133\include\xstring
;	COMDAT ?_Move_assign@?$basic_string@DU?$char_traits@D@std@@V?$allocator@D@2@@std@@AAEXAAV12@U_Equal_allocators@2@@Z
_TEXT	SEGMENT
_this$ = -8						; size = 4
__Right$ = 8						; size = 4
___formal$ = 12						; size = 1
?_Move_assign@?$basic_string@DU?$char_traits@D@std@@V?$allocator@D@2@@std@@AAEXAAV12@U_Equal_allocators@2@@Z PROC ; std::basic_string<char,std::char_traits<char>,std::allocator<char> >::_Move_assign, COMDAT
; _this$ = ecx

; 2741 :     _CONSTEXPR20_CONTAINER void _Move_assign(basic_string& _Right, _Equal_allocators) noexcept {

  00000	55		 push	 ebp
  00001	8b ec		 mov	 ebp, esp
  00003	81 ec cc 00 00
	00		 sub	 esp, 204		; 000000ccH
  00009	53		 push	 ebx
  0000a	56		 push	 esi
  0000b	57		 push	 edi
  0000c	51		 push	 ecx
  0000d	8d 7d f4	 lea	 edi, DWORD PTR [ebp-12]
  00010	b9 03 00 00 00	 mov	 ecx, 3
  00015	b8 cc cc cc cc	 mov	 eax, -858993460		; ccccccccH
  0001a	f3 ab		 rep stosd
  0001c	59		 pop	 ecx
  0001d	89 4d f8	 mov	 DWORD PTR _this$[ebp], ecx
  00020	b9 00 00 00 00	 mov	 ecx, OFFSET __0D019051_xstring
  00025	e8 00 00 00 00	 call	 @__CheckForDebuggerJustMyCode@4

; 2742 :         _Tidy_deallocate();

  0002a	8b 4d f8	 mov	 ecx, DWORD PTR _this$[ebp]
  0002d	e8 00 00 00 00	 call	 ?_Tidy_deallocate@?$basic_string@DU?$char_traits@D@std@@V?$allocator@D@2@@std@@AAEXXZ ; std::basic_string<char,std::char_traits<char>,std::allocator<char> >::_Tidy_deallocate

; 2743 :         _Pocma(_Getal(), _Right._Getal());

  00032	8b 4d 08	 mov	 ecx, DWORD PTR __Right$[ebp]
  00035	e8 00 00 00 00	 call	 ?_Getal@?$basic_string@DU?$char_traits@D@std@@V?$allocator@D@2@@std@@AAEAAV?$allocator@D@2@XZ ; std::basic_string<char,std::char_traits<char>,std::allocator<char> >::_Getal
  0003a	50		 push	 eax
  0003b	8b 4d f8	 mov	 ecx, DWORD PTR _this$[ebp]
  0003e	e8 00 00 00 00	 call	 ?_Getal@?$basic_string@DU?$char_traits@D@std@@V?$allocator@D@2@@std@@AAEAAV?$allocator@D@2@XZ ; std::basic_string<char,std::char_traits<char>,std::allocator<char> >::_Getal
  00043	50		 push	 eax
  00044	e8 00 00 00 00	 call	 ??$_Pocma@V?$allocator@D@std@@@std@@YAXAAV?$allocator@D@0@0@Z ; std::_Pocma<std::allocator<char> >
  00049	83 c4 08	 add	 esp, 8

; 2744 :         _Take_contents(_Right);

  0004c	8b 45 08	 mov	 eax, DWORD PTR __Right$[ebp]
  0004f	50		 push	 eax
  00050	8b 4d f8	 mov	 ecx, DWORD PTR _this$[ebp]
  00053	e8 00 00 00 00	 call	 ?_Take_contents@?$basic_string@DU?$char_traits@D@std@@V?$allocator@D@2@@std@@AAEXAAV12@@Z ; std::basic_string<char,std::char_traits<char>,std::allocator<char> >::_Take_contents

; 2745 :     }

  00058	5f		 pop	 edi
  00059	5e		 pop	 esi
  0005a	5b		 pop	 ebx
  0005b	81 c4 cc 00 00
	00		 add	 esp, 204		; 000000ccH
  00061	3b ec		 cmp	 ebp, esp
  00063	e8 00 00 00 00	 call	 __RTC_CheckEsp
  00068	8b e5		 mov	 esp, ebp
  0006a	5d		 pop	 ebp
  0006b	c2 08 00	 ret	 8
?_Move_assign@?$basic_string@DU?$char_traits@D@std@@V?$allocator@D@2@@std@@AAEXAAV12@U_Equal_allocators@2@@Z ENDP ; std::basic_string<char,std::char_traits<char>,std::allocator<char> >::_Move_assign
_TEXT	ENDS
; Function compile flags: /Odtp /RTCsu /ZI
; File C:\Program Files (x86)\Microsoft Visual Studio\2019\Community\VC\Tools\MSVC\14.29.30133\include\xstring
;	COMDAT ??0?$basic_string@DU?$char_traits@D@std@@V?$allocator@D@2@@std@@QAE@ABV01@IIABV?$allocator@D@1@@Z
_TEXT	SEGMENT
$T2 = -265						; size = 1
__Proxy$ = -64						; size = 8
_$S16$ = -45						; size = 1
__Alproxy$ = -36					; size = 4
_this$ = -24						; size = 4
__$ArrayPad$ = -16					; size = 4
__$EHRec$ = -12						; size = 12
__Right$ = 8						; size = 4
__Roff$ = 12						; size = 4
__Count$ = 16						; size = 4
__Al$ = 20						; size = 4
??0?$basic_string@DU?$char_traits@D@std@@V?$allocator@D@2@@std@@QAE@ABV01@IIABV?$allocator@D@1@@Z PROC ; std::basic_string<char,std::char_traits<char>,std::allocator<char> >::basic_string<char,std::char_traits<char>,std::allocator<char> >, COMDAT
; _this$ = ecx

; 2455 :         : _Mypair(_One_then_variadic_args_t{}, _Al) { // construct from _Right [_Roff, _Roff + _Count)

  00000	55		 push	 ebp
  00001	8b ec		 mov	 ebp, esp
  00003	6a ff		 push	 -1
  00005	68 00 00 00 00	 push	 __ehhandler$??0?$basic_string@DU?$char_traits@D@std@@V?$allocator@D@2@@std@@QAE@ABV01@IIABV?$allocator@D@1@@Z
  0000a	64 a1 00 00 00
	00		 mov	 eax, DWORD PTR fs:0
  00010	50		 push	 eax
  00011	81 ec 04 01 00
	00		 sub	 esp, 260		; 00000104H
  00017	53		 push	 ebx
  00018	56		 push	 esi
  00019	57		 push	 edi
  0001a	51		 push	 ecx
  0001b	8d 7d b0	 lea	 edi, DWORD PTR [ebp-80]
  0001e	b9 11 00 00 00	 mov	 ecx, 17			; 00000011H
  00023	b8 cc cc cc cc	 mov	 eax, -858993460		; ccccccccH
  00028	f3 ab		 rep stosd
  0002a	59		 pop	 ecx
  0002b	a1 00 00 00 00	 mov	 eax, DWORD PTR ___security_cookie
  00030	33 c5		 xor	 eax, ebp
  00032	89 45 f0	 mov	 DWORD PTR __$ArrayPad$[ebp], eax
  00035	50		 push	 eax
  00036	8d 45 f4	 lea	 eax, DWORD PTR __$EHRec$[ebp]
  00039	64 a3 00 00 00
	00		 mov	 DWORD PTR fs:0, eax
  0003f	89 4d e8	 mov	 DWORD PTR _this$[ebp], ecx
  00042	b9 00 00 00 00	 mov	 ecx, OFFSET __0D019051_xstring
  00047	e8 00 00 00 00	 call	 @__CheckForDebuggerJustMyCode@4
  0004c	8b 45 14	 mov	 eax, DWORD PTR __Al$[ebp]
  0004f	50		 push	 eax
  00050	0f b6 8d f7 fe
	ff ff		 movzx	 ecx, BYTE PTR $T2[ebp]
  00057	51		 push	 ecx
  00058	8b 4d e8	 mov	 ecx, DWORD PTR _this$[ebp]
  0005b	e8 00 00 00 00	 call	 ??$?0ABV?$allocator@D@std@@$$V@?$_Compressed_pair@V?$allocator@D@std@@V?$_String_val@U?$_Simple_types@D@std@@@2@$00@std@@QAE@U_One_then_variadic_args_t@1@ABV?$allocator@D@1@@Z ; std::_Compressed_pair<std::allocator<char>,std::_String_val<std::_Simple_types<char> >,1>::_Compressed_pair<std::allocator<char>,std::_String_val<std::_Simple_types<char> >,1><std::allocator<char> const &>
  00060	c7 45 fc 00 00
	00 00		 mov	 DWORD PTR __$EHRec$[ebp+8], 0

; 2456 :         auto&& _Alproxy = _GET_PROXY_ALLOCATOR(_Alty, _Getal());

  00067	8b 4d e8	 mov	 ecx, DWORD PTR _this$[ebp]
  0006a	e8 00 00 00 00	 call	 ?_Getal@?$basic_string@DU?$char_traits@D@std@@V?$allocator@D@2@@std@@AAEAAV?$allocator@D@2@XZ ; std::basic_string<char,std::char_traits<char>,std::allocator<char> >::_Getal
  0006f	50		 push	 eax
  00070	8d 4d d3	 lea	 ecx, DWORD PTR _$S16$[ebp]
  00073	e8 00 00 00 00	 call	 ??$?0D@?$allocator@U_Container_proxy@std@@@std@@QAE@ABV?$allocator@D@1@@Z ; std::allocator<std::_Container_proxy>::allocator<std::_Container_proxy><char>
  00078	8d 45 d3	 lea	 eax, DWORD PTR _$S16$[ebp]
  0007b	89 45 dc	 mov	 DWORD PTR __Alproxy$[ebp], eax

; 2457 :         _Container_proxy_ptr<_Alty> _Proxy(_Alproxy, _Mypair._Myval2);

  0007e	8b 45 e8	 mov	 eax, DWORD PTR _this$[ebp]
  00081	50		 push	 eax
  00082	8b 4d dc	 mov	 ecx, DWORD PTR __Alproxy$[ebp]
  00085	51		 push	 ecx
  00086	8d 4d c0	 lea	 ecx, DWORD PTR __Proxy$[ebp]
  00089	e8 00 00 00 00	 call	 ??0?$_Container_proxy_ptr12@V?$allocator@U_Container_proxy@std@@@std@@@std@@QAE@AAV?$allocator@U_Container_proxy@std@@@1@AAU_Container_base12@1@@Z ; std::_Container_proxy_ptr12<std::allocator<std::_Container_proxy> >::_Container_proxy_ptr12<std::allocator<std::_Container_proxy> >
  0008e	c6 45 fc 01	 mov	 BYTE PTR __$EHRec$[ebp+8], 1

; 2458 :         _Tidy_init();

  00092	8b 4d e8	 mov	 ecx, DWORD PTR _this$[ebp]
  00095	e8 00 00 00 00	 call	 ?_Tidy_init@?$basic_string@DU?$char_traits@D@std@@V?$allocator@D@2@@std@@AAEXXZ ; std::basic_string<char,std::char_traits<char>,std::allocator<char> >::_Tidy_init

; 2459 :         assign(_Right, _Roff, _Count);

  0009a	8b 45 10	 mov	 eax, DWORD PTR __Count$[ebp]
  0009d	50		 push	 eax
  0009e	8b 4d 0c	 mov	 ecx, DWORD PTR __Roff$[ebp]
  000a1	51		 push	 ecx
  000a2	8b 55 08	 mov	 edx, DWORD PTR __Right$[ebp]
  000a5	52		 push	 edx
  000a6	8b 4d e8	 mov	 ecx, DWORD PTR _this$[ebp]
  000a9	e8 00 00 00 00	 call	 ?assign@?$basic_string@DU?$char_traits@D@std@@V?$allocator@D@2@@std@@QAEAAV12@ABV12@II@Z ; std::basic_string<char,std::char_traits<char>,std::allocator<char> >::assign

; 2460 :         _Proxy._Release();

  000ae	8d 4d c0	 lea	 ecx, DWORD PTR __Proxy$[ebp]
  000b1	e8 00 00 00 00	 call	 ?_Release@_Basic_container_proxy_ptr12@std@@QAEXXZ ; std::_Basic_container_proxy_ptr12::_Release

; 2461 :     }

  000b6	c6 45 fc 00	 mov	 BYTE PTR __$EHRec$[ebp+8], 0
  000ba	8d 4d c0	 lea	 ecx, DWORD PTR __Proxy$[ebp]
  000bd	e8 00 00 00 00	 call	 ??1?$_Container_proxy_ptr12@V?$allocator@U_Container_proxy@std@@@std@@@std@@QAE@XZ ; std::_Container_proxy_ptr12<std::allocator<std::_Container_proxy> >::~_Container_proxy_ptr12<std::allocator<std::_Container_proxy> >
  000c2	c7 45 fc ff ff
	ff ff		 mov	 DWORD PTR __$EHRec$[ebp+8], -1
  000c9	8b 45 e8	 mov	 eax, DWORD PTR _this$[ebp]
  000cc	52		 push	 edx
  000cd	8b cd		 mov	 ecx, ebp
  000cf	50		 push	 eax
  000d0	8d 15 00 00 00
	00		 lea	 edx, DWORD PTR $LN9@basic_stri
  000d6	e8 00 00 00 00	 call	 @_RTC_CheckStackVars@8
  000db	58		 pop	 eax
  000dc	5a		 pop	 edx
  000dd	8b 4d f4	 mov	 ecx, DWORD PTR __$EHRec$[ebp]
  000e0	64 89 0d 00 00
	00 00		 mov	 DWORD PTR fs:0, ecx
  000e7	59		 pop	 ecx
  000e8	5f		 pop	 edi
  000e9	5e		 pop	 esi
  000ea	5b		 pop	 ebx
  000eb	8b 4d f0	 mov	 ecx, DWORD PTR __$ArrayPad$[ebp]
  000ee	33 cd		 xor	 ecx, ebp
  000f0	e8 00 00 00 00	 call	 @__security_check_cookie@4
  000f5	81 c4 10 01 00
	00		 add	 esp, 272		; 00000110H
  000fb	3b ec		 cmp	 ebp, esp
  000fd	e8 00 00 00 00	 call	 __RTC_CheckEsp
  00102	8b e5		 mov	 esp, ebp
  00104	5d		 pop	 ebp
  00105	c2 10 00	 ret	 16			; 00000010H
$LN9@basic_stri:
  00108	02 00 00 00	 DD	 2
  0010c	00 00 00 00	 DD	 $LN8@basic_stri
$LN8@basic_stri:
  00110	d3 ff ff ff	 DD	 -45			; ffffffd3H
  00114	01 00 00 00	 DD	 1
  00118	00 00 00 00	 DD	 $LN5@basic_stri
  0011c	c0 ff ff ff	 DD	 -64			; ffffffc0H
  00120	08 00 00 00	 DD	 8
  00124	00 00 00 00	 DD	 $LN6@basic_stri
$LN6@basic_stri:
  00128	5f		 DB	 95			; 0000005fH
  00129	50		 DB	 80			; 00000050H
  0012a	72		 DB	 114			; 00000072H
  0012b	6f		 DB	 111			; 0000006fH
  0012c	78		 DB	 120			; 00000078H
  0012d	79		 DB	 121			; 00000079H
  0012e	00		 DB	 0
$LN5@basic_stri:
  0012f	24		 DB	 36			; 00000024H
  00130	53		 DB	 83			; 00000053H
  00131	31		 DB	 49			; 00000031H
  00132	36		 DB	 54			; 00000036H
  00133	00		 DB	 0
_TEXT	ENDS
;	COMDAT text$x
text$x	SEGMENT
__unwindfunclet$??0?$basic_string@DU?$char_traits@D@std@@V?$allocator@D@2@@std@@QAE@ABV01@IIABV?$allocator@D@1@@Z$0:
  00000	8b 4d e8	 mov	 ecx, DWORD PTR _this$[ebp]
  00003	e9 00 00 00 00	 jmp	 ??1?$_Compressed_pair@V?$allocator@D@std@@V?$_String_val@U?$_Simple_types@D@std@@@2@$00@std@@QAE@XZ
__unwindfunclet$??0?$basic_string@DU?$char_traits@D@std@@V?$allocator@D@2@@std@@QAE@ABV01@IIABV?$allocator@D@1@@Z$1:
  00008	8d 4d c0	 lea	 ecx, DWORD PTR __Proxy$[ebp]
  0000b	e9 00 00 00 00	 jmp	 ??1?$_Container_proxy_ptr12@V?$allocator@U_Container_proxy@std@@@std@@@std@@QAE@XZ ; std::_Container_proxy_ptr12<std::allocator<std::_Container_proxy> >::~_Container_proxy_ptr12<std::allocator<std::_Container_proxy> >
  00010	cc		 int	 3
  00011	cc		 int	 3
  00012	cc		 int	 3
  00013	cc		 int	 3
  00014	cc		 int	 3
__ehhandler$??0?$basic_string@DU?$char_traits@D@std@@V?$allocator@D@2@@std@@QAE@ABV01@IIABV?$allocator@D@1@@Z:
  00015	90		 npad	 1
  00016	90		 npad	 1
  00017	8b 54 24 08	 mov	 edx, DWORD PTR [esp+8]
  0001b	8d 42 0c	 lea	 eax, DWORD PTR [edx+12]
  0001e	8b 8a ec fe ff
	ff		 mov	 ecx, DWORD PTR [edx-276]
  00024	33 c8		 xor	 ecx, eax
  00026	e8 00 00 00 00	 call	 @__security_check_cookie@4
  0002b	8b 4a fc	 mov	 ecx, DWORD PTR [edx-4]
  0002e	33 c8		 xor	 ecx, eax
  00030	e8 00 00 00 00	 call	 @__security_check_cookie@4
  00035	b8 00 00 00 00	 mov	 eax, OFFSET __ehfuncinfo$??0?$basic_string@DU?$char_traits@D@std@@V?$allocator@D@2@@std@@QAE@ABV01@IIABV?$allocator@D@1@@Z
  0003a	e9 00 00 00 00	 jmp	 ___CxxFrameHandler3
text$x	ENDS
??0?$basic_string@DU?$char_traits@D@std@@V?$allocator@D@2@@std@@QAE@ABV01@IIABV?$allocator@D@1@@Z ENDP ; std::basic_string<char,std::char_traits<char>,std::allocator<char> >::basic_string<char,std::char_traits<char>,std::allocator<char> >
; Function compile flags: /Odtp /RTCsu /ZI
; File C:\Program Files (x86)\Microsoft Visual Studio\2019\Community\VC\Tools\MSVC\14.29.30133\include\xstring
;	COMDAT ??0?$basic_string@DU?$char_traits@D@std@@V?$allocator@D@2@@std@@QAE@XZ
_TEXT	SEGMENT
$T2 = -233						; size = 1
$T3 = -221						; size = 1
_this$ = -20						; size = 4
__$EHRec$ = -12						; size = 12
??0?$basic_string@DU?$char_traits@D@std@@V?$allocator@D@2@@std@@QAE@XZ PROC ; std::basic_string<char,std::char_traits<char>,std::allocator<char> >::basic_string<char,std::char_traits<char>,std::allocator<char> >, COMDAT
; _this$ = ecx

; 2433 :         : _Mypair(_Zero_then_variadic_args_t{}) {

  00000	55		 push	 ebp
  00001	8b ec		 mov	 ebp, esp
  00003	6a ff		 push	 -1
  00005	68 00 00 00 00	 push	 __ehhandler$??0?$basic_string@DU?$char_traits@D@std@@V?$allocator@D@2@@std@@QAE@XZ
  0000a	64 a1 00 00 00
	00		 mov	 eax, DWORD PTR fs:0
  00010	50		 push	 eax
  00011	81 ec e4 00 00
	00		 sub	 esp, 228		; 000000e4H
  00017	53		 push	 ebx
  00018	56		 push	 esi
  00019	57		 push	 edi
  0001a	51		 push	 ecx
  0001b	8d 7d d0	 lea	 edi, DWORD PTR [ebp-48]
  0001e	b9 09 00 00 00	 mov	 ecx, 9
  00023	b8 cc cc cc cc	 mov	 eax, -858993460		; ccccccccH
  00028	f3 ab		 rep stosd
  0002a	59		 pop	 ecx
  0002b	a1 00 00 00 00	 mov	 eax, DWORD PTR ___security_cookie
  00030	33 c5		 xor	 eax, ebp
  00032	50		 push	 eax
  00033	8d 45 f4	 lea	 eax, DWORD PTR __$EHRec$[ebp]
  00036	64 a3 00 00 00
	00		 mov	 DWORD PTR fs:0, eax
  0003c	89 4d ec	 mov	 DWORD PTR _this$[ebp], ecx
  0003f	b9 00 00 00 00	 mov	 ecx, OFFSET __0D019051_xstring
  00044	e8 00 00 00 00	 call	 @__CheckForDebuggerJustMyCode@4
  00049	0f b6 85 23 ff
	ff ff		 movzx	 eax, BYTE PTR $T3[ebp]
  00050	50		 push	 eax
  00051	8b 4d ec	 mov	 ecx, DWORD PTR _this$[ebp]
  00054	e8 00 00 00 00	 call	 ??$?0$$V@?$_Compressed_pair@V?$allocator@D@std@@V?$_String_val@U?$_Simple_types@D@std@@@2@$00@std@@QAE@U_Zero_then_variadic_args_t@1@@Z ; std::_Compressed_pair<std::allocator<char>,std::_String_val<std::_Simple_types<char> >,1>::_Compressed_pair<std::allocator<char>,std::_String_val<std::_Simple_types<char> >,1><>

; 2434 :         _Mypair._Myval2._Alloc_proxy(_GET_PROXY_ALLOCATOR(_Alty, _Getal()));

  00059	8b 4d ec	 mov	 ecx, DWORD PTR _this$[ebp]
  0005c	e8 00 00 00 00	 call	 ?_Getal@?$basic_string@DU?$char_traits@D@std@@V?$allocator@D@2@@std@@AAEAAV?$allocator@D@2@XZ ; std::basic_string<char,std::char_traits<char>,std::allocator<char> >::_Getal
  00061	50		 push	 eax
  00062	8d 8d 17 ff ff
	ff		 lea	 ecx, DWORD PTR $T2[ebp]
  00068	e8 00 00 00 00	 call	 ??$?0D@?$allocator@U_Container_proxy@std@@@std@@QAE@ABV?$allocator@D@1@@Z ; std::allocator<std::_Container_proxy>::allocator<std::_Container_proxy><char>
  0006d	50		 push	 eax
  0006e	8b 4d ec	 mov	 ecx, DWORD PTR _this$[ebp]
  00071	e8 00 00 00 00	 call	 ??$_Alloc_proxy@V?$allocator@U_Container_proxy@std@@@std@@@_Container_base12@std@@QAEX$$QAV?$allocator@U_Container_proxy@std@@@1@@Z ; std::_Container_base12::_Alloc_proxy<std::allocator<std::_Container_proxy> >

; 2435 :         _Tidy_init();

  00076	8b 4d ec	 mov	 ecx, DWORD PTR _this$[ebp]
  00079	e8 00 00 00 00	 call	 ?_Tidy_init@?$basic_string@DU?$char_traits@D@std@@V?$allocator@D@2@@std@@AAEXXZ ; std::basic_string<char,std::char_traits<char>,std::allocator<char> >::_Tidy_init

; 2436 :     }

  0007e	8b 45 ec	 mov	 eax, DWORD PTR _this$[ebp]
  00081	8b 4d f4	 mov	 ecx, DWORD PTR __$EHRec$[ebp]
  00084	64 89 0d 00 00
	00 00		 mov	 DWORD PTR fs:0, ecx
  0008b	59		 pop	 ecx
  0008c	5f		 pop	 edi
  0008d	5e		 pop	 esi
  0008e	5b		 pop	 ebx
  0008f	81 c4 f0 00 00
	00		 add	 esp, 240		; 000000f0H
  00095	3b ec		 cmp	 ebp, esp
  00097	e8 00 00 00 00	 call	 __RTC_CheckEsp
  0009c	8b e5		 mov	 esp, ebp
  0009e	5d		 pop	 ebp
  0009f	c3		 ret	 0
  000a0	cc		 int	 3
  000a1	cc		 int	 3
  000a2	cc		 int	 3
  000a3	cc		 int	 3
  000a4	cc		 int	 3
_TEXT	ENDS
;	COMDAT text$x
text$x	SEGMENT
__ehhandler$??0?$basic_string@DU?$char_traits@D@std@@V?$allocator@D@2@@std@@QAE@XZ:
  00000	90		 npad	 1
  00001	90		 npad	 1
  00002	8b 54 24 08	 mov	 edx, DWORD PTR [esp+8]
  00006	8d 42 0c	 lea	 eax, DWORD PTR [edx+12]
  00009	8b 8a 0c ff ff
	ff		 mov	 ecx, DWORD PTR [edx-244]
  0000f	33 c8		 xor	 ecx, eax
  00011	e8 00 00 00 00	 call	 @__security_check_cookie@4
  00016	b8 00 00 00 00	 mov	 eax, OFFSET __ehfuncinfo$??0?$basic_string@DU?$char_traits@D@std@@V?$allocator@D@2@@std@@QAE@XZ
  0001b	e9 00 00 00 00	 jmp	 ___CxxFrameHandler3
text$x	ENDS
??0?$basic_string@DU?$char_traits@D@std@@V?$allocator@D@2@@std@@QAE@XZ ENDP ; std::basic_string<char,std::char_traits<char>,std::allocator<char> >::basic_string<char,std::char_traits<char>,std::allocator<char> >
; Function compile flags: /Odtp /RTCsu /ZI
;	COMDAT ??1?$_String_val@U?$_Simple_types@D@std@@@std@@QAE@XZ
_TEXT	SEGMENT
_this$ = -8						; size = 4
??1?$_String_val@U?$_Simple_types@D@std@@@std@@QAE@XZ PROC ; std::_String_val<std::_Simple_types<char> >::~_String_val<std::_Simple_types<char> >, COMDAT
; _this$ = ecx
  00000	55		 push	 ebp
  00001	8b ec		 mov	 ebp, esp
  00003	81 ec cc 00 00
	00		 sub	 esp, 204		; 000000ccH
  00009	53		 push	 ebx
  0000a	56		 push	 esi
  0000b	57		 push	 edi
  0000c	51		 push	 ecx
  0000d	8d 7d f4	 lea	 edi, DWORD PTR [ebp-12]
  00010	b9 03 00 00 00	 mov	 ecx, 3
  00015	b8 cc cc cc cc	 mov	 eax, -858993460		; ccccccccH
  0001a	f3 ab		 rep stosd
  0001c	59		 pop	 ecx
  0001d	89 4d f8	 mov	 DWORD PTR _this$[ebp], ecx
  00020	8b 4d f8	 mov	 ecx, DWORD PTR _this$[ebp]
  00023	83 c1 04	 add	 ecx, 4
  00026	e8 00 00 00 00	 call	 ??1_Bxty@?$_String_val@U?$_Simple_types@D@std@@@std@@QAE@XZ ; std::_String_val<std::_Simple_types<char> >::_Bxty::~_Bxty
  0002b	5f		 pop	 edi
  0002c	5e		 pop	 esi
  0002d	5b		 pop	 ebx
  0002e	81 c4 cc 00 00
	00		 add	 esp, 204		; 000000ccH
  00034	3b ec		 cmp	 ebp, esp
  00036	e8 00 00 00 00	 call	 __RTC_CheckEsp
  0003b	8b e5		 mov	 esp, ebp
  0003d	5d		 pop	 ebp
  0003e	c3		 ret	 0
??1?$_String_val@U?$_Simple_types@D@std@@@std@@QAE@XZ ENDP ; std::_String_val<std::_Simple_types<char> >::~_String_val<std::_Simple_types<char> >
_TEXT	ENDS
; Function compile flags: /Odtp /RTCsu /ZI
; File C:\Program Files (x86)\Microsoft Visual Studio\2019\Community\VC\Tools\MSVC\14.29.30133\include\xstring
;	COMDAT ??1_Bxty@?$_String_val@U?$_Simple_types@D@std@@@std@@QAE@XZ
_TEXT	SEGMENT
_this$ = -8						; size = 4
??1_Bxty@?$_String_val@U?$_Simple_types@D@std@@@std@@QAE@XZ PROC ; std::_String_val<std::_Simple_types<char> >::_Bxty::~_Bxty, COMDAT
; _this$ = ecx

; 2315 :         _CONSTEXPR20_CONTAINER ~_Bxty() noexcept {} // user-provided, for fancy pointers

  00000	55		 push	 ebp
  00001	8b ec		 mov	 ebp, esp
  00003	81 ec cc 00 00
	00		 sub	 esp, 204		; 000000ccH
  00009	53		 push	 ebx
  0000a	56		 push	 esi
  0000b	57		 push	 edi
  0000c	51		 push	 ecx
  0000d	8d 7d f4	 lea	 edi, DWORD PTR [ebp-12]
  00010	b9 03 00 00 00	 mov	 ecx, 3
  00015	b8 cc cc cc cc	 mov	 eax, -858993460		; ccccccccH
  0001a	f3 ab		 rep stosd
  0001c	59		 pop	 ecx
  0001d	89 4d f8	 mov	 DWORD PTR _this$[ebp], ecx
  00020	b9 00 00 00 00	 mov	 ecx, OFFSET __0D019051_xstring
  00025	e8 00 00 00 00	 call	 @__CheckForDebuggerJustMyCode@4
  0002a	5f		 pop	 edi
  0002b	5e		 pop	 esi
  0002c	5b		 pop	 ebx
  0002d	81 c4 cc 00 00
	00		 add	 esp, 204		; 000000ccH
  00033	3b ec		 cmp	 ebp, esp
  00035	e8 00 00 00 00	 call	 __RTC_CheckEsp
  0003a	8b e5		 mov	 esp, ebp
  0003c	5d		 pop	 ebp
  0003d	c3		 ret	 0
??1_Bxty@?$_String_val@U?$_Simple_types@D@std@@@std@@QAE@XZ ENDP ; std::_String_val<std::_Simple_types<char> >::_Bxty::~_Bxty
_TEXT	ENDS
; Function compile flags: /Odtp /RTCsu /ZI
; File C:\Program Files (x86)\Microsoft Visual Studio\2019\Community\VC\Tools\MSVC\14.29.30133\include\xstring
;	COMDAT ??0_Bxty@?$_String_val@U?$_Simple_types@D@std@@@std@@QAE@XZ
_TEXT	SEGMENT
_this$ = -8						; size = 4
??0_Bxty@?$_String_val@U?$_Simple_types@D@std@@@std@@QAE@XZ PROC ; std::_String_val<std::_Simple_types<char> >::_Bxty::_Bxty, COMDAT
; _this$ = ecx

; 2313 :         _CONSTEXPR20_CONTAINER _Bxty() noexcept : _Ptr() {} // user-provided, for fancy pointers

  00000	55		 push	 ebp
  00001	8b ec		 mov	 ebp, esp
  00003	81 ec cc 00 00
	00		 sub	 esp, 204		; 000000ccH
  00009	53		 push	 ebx
  0000a	56		 push	 esi
  0000b	57		 push	 edi
  0000c	51		 push	 ecx
  0000d	8d 7d f4	 lea	 edi, DWORD PTR [ebp-12]
  00010	b9 03 00 00 00	 mov	 ecx, 3
  00015	b8 cc cc cc cc	 mov	 eax, -858993460		; ccccccccH
  0001a	f3 ab		 rep stosd
  0001c	59		 pop	 ecx
  0001d	89 4d f8	 mov	 DWORD PTR _this$[ebp], ecx
  00020	b9 00 00 00 00	 mov	 ecx, OFFSET __0D019051_xstring
  00025	e8 00 00 00 00	 call	 @__CheckForDebuggerJustMyCode@4
  0002a	8b 45 f8	 mov	 eax, DWORD PTR _this$[ebp]
  0002d	c7 00 00 00 00
	00		 mov	 DWORD PTR [eax], 0
  00033	8b 45 f8	 mov	 eax, DWORD PTR _this$[ebp]
  00036	5f		 pop	 edi
  00037	5e		 pop	 esi
  00038	5b		 pop	 ebx
  00039	81 c4 cc 00 00
	00		 add	 esp, 204		; 000000ccH
  0003f	3b ec		 cmp	 ebp, esp
  00041	e8 00 00 00 00	 call	 __RTC_CheckEsp
  00046	8b e5		 mov	 esp, ebp
  00048	5d		 pop	 ebp
  00049	c3		 ret	 0
??0_Bxty@?$_String_val@U?$_Simple_types@D@std@@@std@@QAE@XZ ENDP ; std::_String_val<std::_Simple_types<char> >::_Bxty::_Bxty
_TEXT	ENDS
; Function compile flags: /Odtp /RTCsu /ZI
; File C:\Program Files (x86)\Microsoft Visual Studio\2019\Community\VC\Tools\MSVC\14.29.30133\include\xstring
;	COMDAT ?_Clamp_suffix_size@?$_String_val@U?$_Simple_types@D@std@@@std@@QBEIII@Z
_TEXT	SEGMENT
$T1 = -212						; size = 4
_this$ = -8						; size = 4
__Off$ = 8						; size = 4
__Size$ = 12						; size = 4
?_Clamp_suffix_size@?$_String_val@U?$_Simple_types@D@std@@@std@@QBEIII@Z PROC ; std::_String_val<std::_Simple_types<char> >::_Clamp_suffix_size, COMDAT
; _this$ = ecx

; 2307 :     _CONSTEXPR20_CONTAINER size_type _Clamp_suffix_size(const size_type _Off, const size_type _Size) const noexcept {

  00000	55		 push	 ebp
  00001	8b ec		 mov	 ebp, esp
  00003	81 ec d8 00 00
	00		 sub	 esp, 216		; 000000d8H
  00009	53		 push	 ebx
  0000a	56		 push	 esi
  0000b	57		 push	 edi
  0000c	51		 push	 ecx
  0000d	8d 7d e8	 lea	 edi, DWORD PTR [ebp-24]
  00010	b9 06 00 00 00	 mov	 ecx, 6
  00015	b8 cc cc cc cc	 mov	 eax, -858993460		; ccccccccH
  0001a	f3 ab		 rep stosd
  0001c	59		 pop	 ecx
  0001d	89 4d f8	 mov	 DWORD PTR _this$[ebp], ecx
  00020	b9 00 00 00 00	 mov	 ecx, OFFSET __0D019051_xstring
  00025	e8 00 00 00 00	 call	 @__CheckForDebuggerJustMyCode@4

; 2308 :         // trims _Size to the longest it can be assuming a string at/after _Off
; 2309 :         return (_STD min)(_Size, _Mysize - _Off);

  0002a	8b 45 f8	 mov	 eax, DWORD PTR _this$[ebp]
  0002d	8b 48 14	 mov	 ecx, DWORD PTR [eax+20]
  00030	2b 4d 08	 sub	 ecx, DWORD PTR __Off$[ebp]
  00033	89 8d 2c ff ff
	ff		 mov	 DWORD PTR $T1[ebp], ecx
  00039	8d 95 2c ff ff
	ff		 lea	 edx, DWORD PTR $T1[ebp]
  0003f	52		 push	 edx
  00040	8d 45 0c	 lea	 eax, DWORD PTR __Size$[ebp]
  00043	50		 push	 eax
  00044	e8 00 00 00 00	 call	 ??$min@I@std@@YAABIABI0@Z ; std::min<unsigned int>
  00049	83 c4 08	 add	 esp, 8
  0004c	8b 00		 mov	 eax, DWORD PTR [eax]

; 2310 :     }

  0004e	5f		 pop	 edi
  0004f	5e		 pop	 esi
  00050	5b		 pop	 ebx
  00051	81 c4 d8 00 00
	00		 add	 esp, 216		; 000000d8H
  00057	3b ec		 cmp	 ebp, esp
  00059	e8 00 00 00 00	 call	 __RTC_CheckEsp
  0005e	8b e5		 mov	 esp, ebp
  00060	5d		 pop	 ebp
  00061	c2 08 00	 ret	 8
?_Clamp_suffix_size@?$_String_val@U?$_Simple_types@D@std@@@std@@QBEIII@Z ENDP ; std::_String_val<std::_Simple_types<char> >::_Clamp_suffix_size
_TEXT	ENDS
; Function compile flags: /Odtp /RTCsu /ZI
; File C:\Program Files (x86)\Microsoft Visual Studio\2019\Community\VC\Tools\MSVC\14.29.30133\include\xstring
;	COMDAT ?_Xran@?$_String_val@U?$_Simple_types@D@std@@@std@@SAXXZ
_TEXT	SEGMENT
?_Xran@?$_String_val@U?$_Simple_types@D@std@@@std@@SAXXZ PROC ; std::_String_val<std::_Simple_types<char> >::_Xran, COMDAT

; 2303 :     [[noreturn]] static void _Xran() {

  00000	55		 push	 ebp
  00001	8b ec		 mov	 ebp, esp
  00003	81 ec c0 00 00
	00		 sub	 esp, 192		; 000000c0H
  00009	53		 push	 ebx
  0000a	56		 push	 esi
  0000b	57		 push	 edi
  0000c	8b fd		 mov	 edi, ebp
  0000e	33 c9		 xor	 ecx, ecx
  00010	b8 cc cc cc cc	 mov	 eax, -858993460		; ccccccccH
  00015	f3 ab		 rep stosd
  00017	b9 00 00 00 00	 mov	 ecx, OFFSET __0D019051_xstring
  0001c	e8 00 00 00 00	 call	 @__CheckForDebuggerJustMyCode@4

; 2304 :         _Xout_of_range("invalid string position");

  00021	68 00 00 00 00	 push	 OFFSET ??_C@_0BI@CFPLBAOH@invalid?5string?5position@
  00026	e8 00 00 00 00	 call	 ?_Xout_of_range@std@@YAXPBD@Z ; std::_Xout_of_range
$LN2@Xran:

; 2305 :     }

  0002b	5f		 pop	 edi
  0002c	5e		 pop	 esi
  0002d	5b		 pop	 ebx
  0002e	81 c4 c0 00 00
	00		 add	 esp, 192		; 000000c0H
  00034	3b ec		 cmp	 ebp, esp
  00036	e8 00 00 00 00	 call	 __RTC_CheckEsp
  0003b	8b e5		 mov	 esp, ebp
  0003d	5d		 pop	 ebp
  0003e	c3		 ret	 0
?_Xran@?$_String_val@U?$_Simple_types@D@std@@@std@@SAXXZ ENDP ; std::_String_val<std::_Simple_types<char> >::_Xran
_TEXT	ENDS
; Function compile flags: /Odtp /RTCsu /ZI
; File C:\Program Files (x86)\Microsoft Visual Studio\2019\Community\VC\Tools\MSVC\14.29.30133\include\xstring
;	COMDAT ?_Check_offset@?$_String_val@U?$_Simple_types@D@std@@@std@@QBEXI@Z
_TEXT	SEGMENT
_this$ = -8						; size = 4
__Off$ = 8						; size = 4
?_Check_offset@?$_String_val@U?$_Simple_types@D@std@@@std@@QBEXI@Z PROC ; std::_String_val<std::_Simple_types<char> >::_Check_offset, COMDAT
; _this$ = ecx

; 2289 :     _CONSTEXPR20_CONTAINER void _Check_offset(const size_type _Off) const {

  00000	55		 push	 ebp
  00001	8b ec		 mov	 ebp, esp
  00003	81 ec cc 00 00
	00		 sub	 esp, 204		; 000000ccH
  00009	53		 push	 ebx
  0000a	56		 push	 esi
  0000b	57		 push	 edi
  0000c	51		 push	 ecx
  0000d	8d 7d f4	 lea	 edi, DWORD PTR [ebp-12]
  00010	b9 03 00 00 00	 mov	 ecx, 3
  00015	b8 cc cc cc cc	 mov	 eax, -858993460		; ccccccccH
  0001a	f3 ab		 rep stosd
  0001c	59		 pop	 ecx
  0001d	89 4d f8	 mov	 DWORD PTR _this$[ebp], ecx
  00020	b9 00 00 00 00	 mov	 ecx, OFFSET __0D019051_xstring
  00025	e8 00 00 00 00	 call	 @__CheckForDebuggerJustMyCode@4

; 2290 :         // checks whether _Off is in the bounds of [0, size()]
; 2291 :         if (_Mysize < _Off) {

  0002a	8b 45 f8	 mov	 eax, DWORD PTR _this$[ebp]
  0002d	8b 48 14	 mov	 ecx, DWORD PTR [eax+20]
  00030	3b 4d 08	 cmp	 ecx, DWORD PTR __Off$[ebp]
  00033	73 05		 jae	 SHORT $LN3@Check_offs

; 2292 :             _Xran();

  00035	e8 00 00 00 00	 call	 ?_Xran@?$_String_val@U?$_Simple_types@D@std@@@std@@SAXXZ ; std::_String_val<std::_Simple_types<char> >::_Xran
$LN3@Check_offs:

; 2293 :         }
; 2294 :     }

  0003a	5f		 pop	 edi
  0003b	5e		 pop	 esi
  0003c	5b		 pop	 ebx
  0003d	81 c4 cc 00 00
	00		 add	 esp, 204		; 000000ccH
  00043	3b ec		 cmp	 ebp, esp
  00045	e8 00 00 00 00	 call	 __RTC_CheckEsp
  0004a	8b e5		 mov	 esp, ebp
  0004c	5d		 pop	 ebp
  0004d	c2 04 00	 ret	 4
?_Check_offset@?$_String_val@U?$_Simple_types@D@std@@@std@@QBEXI@Z ENDP ; std::_String_val<std::_Simple_types<char> >::_Check_offset
_TEXT	ENDS
; Function compile flags: /Odtp /RTCsu /ZI
; File C:\Program Files (x86)\Microsoft Visual Studio\2019\Community\VC\Tools\MSVC\14.29.30133\include\xstring
;	COMDAT ?_Large_string_engaged@?$_String_val@U?$_Simple_types@D@std@@@std@@QBE_NXZ
_TEXT	SEGMENT
tv66 = -208						; size = 4
_this$ = -8						; size = 4
?_Large_string_engaged@?$_String_val@U?$_Simple_types@D@std@@@std@@QBE_NXZ PROC ; std::_String_val<std::_Simple_types<char> >::_Large_string_engaged, COMDAT
; _this$ = ecx

; 2280 :     _CONSTEXPR20_CONTAINER bool _Large_string_engaged() const noexcept {

  00000	55		 push	 ebp
  00001	8b ec		 mov	 ebp, esp
  00003	81 ec d0 00 00
	00		 sub	 esp, 208		; 000000d0H
  00009	53		 push	 ebx
  0000a	56		 push	 esi
  0000b	57		 push	 edi
  0000c	51		 push	 ecx
  0000d	8d 7d f0	 lea	 edi, DWORD PTR [ebp-16]
  00010	b9 04 00 00 00	 mov	 ecx, 4
  00015	b8 cc cc cc cc	 mov	 eax, -858993460		; ccccccccH
  0001a	f3 ab		 rep stosd
  0001c	59		 pop	 ecx
  0001d	89 4d f8	 mov	 DWORD PTR _this$[ebp], ecx
  00020	b9 00 00 00 00	 mov	 ecx, OFFSET __0D019051_xstring
  00025	e8 00 00 00 00	 call	 @__CheckForDebuggerJustMyCode@4

; 2281 : #ifdef __cpp_lib_constexpr_string
; 2282 :         if (_STD is_constant_evaluated()) {
; 2283 :             return true;
; 2284 :         }
; 2285 : #endif // __cpp_lib_constexpr_string
; 2286 :         return _BUF_SIZE <= _Myres;

  0002a	8b 45 f8	 mov	 eax, DWORD PTR _this$[ebp]
  0002d	83 78 18 10	 cmp	 DWORD PTR [eax+24], 16	; 00000010H
  00031	72 0c		 jb	 SHORT $LN3@Large_stri
  00033	c7 85 30 ff ff
	ff 01 00 00 00	 mov	 DWORD PTR tv66[ebp], 1
  0003d	eb 0a		 jmp	 SHORT $LN4@Large_stri
$LN3@Large_stri:
  0003f	c7 85 30 ff ff
	ff 00 00 00 00	 mov	 DWORD PTR tv66[ebp], 0
$LN4@Large_stri:
  00049	8a 85 30 ff ff
	ff		 mov	 al, BYTE PTR tv66[ebp]

; 2287 :     }

  0004f	5f		 pop	 edi
  00050	5e		 pop	 esi
  00051	5b		 pop	 ebx
  00052	81 c4 d0 00 00
	00		 add	 esp, 208		; 000000d0H
  00058	3b ec		 cmp	 ebp, esp
  0005a	e8 00 00 00 00	 call	 __RTC_CheckEsp
  0005f	8b e5		 mov	 esp, ebp
  00061	5d		 pop	 ebp
  00062	c3		 ret	 0
?_Large_string_engaged@?$_String_val@U?$_Simple_types@D@std@@@std@@QBE_NXZ ENDP ; std::_String_val<std::_Simple_types<char> >::_Large_string_engaged
_TEXT	ENDS
; Function compile flags: /Odtp /RTCsu /ZI
; File C:\Program Files (x86)\Microsoft Visual Studio\2019\Community\VC\Tools\MSVC\14.29.30133\include\xstring
;	COMDAT ?_Myptr@?$_String_val@U?$_Simple_types@D@std@@@std@@QBEPBDXZ
_TEXT	SEGMENT
__Result$ = -20						; size = 4
_this$ = -8						; size = 4
?_Myptr@?$_String_val@U?$_Simple_types@D@std@@@std@@QBEPBDXZ PROC ; std::_String_val<std::_Simple_types<char> >::_Myptr, COMDAT
; _this$ = ecx

; 2271 :     _CONSTEXPR20_CONTAINER const value_type* _Myptr() const noexcept {

  00000	55		 push	 ebp
  00001	8b ec		 mov	 ebp, esp
  00003	81 ec d8 00 00
	00		 sub	 esp, 216		; 000000d8H
  00009	53		 push	 ebx
  0000a	56		 push	 esi
  0000b	57		 push	 edi
  0000c	51		 push	 ecx
  0000d	8d 7d e8	 lea	 edi, DWORD PTR [ebp-24]
  00010	b9 06 00 00 00	 mov	 ecx, 6
  00015	b8 cc cc cc cc	 mov	 eax, -858993460		; ccccccccH
  0001a	f3 ab		 rep stosd
  0001c	59		 pop	 ecx
  0001d	89 4d f8	 mov	 DWORD PTR _this$[ebp], ecx
  00020	b9 00 00 00 00	 mov	 ecx, OFFSET __0D019051_xstring
  00025	e8 00 00 00 00	 call	 @__CheckForDebuggerJustMyCode@4

; 2272 :         const value_type* _Result = _Bx._Buf;

  0002a	8b 45 f8	 mov	 eax, DWORD PTR _this$[ebp]
  0002d	83 c0 04	 add	 eax, 4
  00030	89 45 ec	 mov	 DWORD PTR __Result$[ebp], eax

; 2273 :         if (_Large_string_engaged()) {

  00033	8b 4d f8	 mov	 ecx, DWORD PTR _this$[ebp]
  00036	e8 00 00 00 00	 call	 ?_Large_string_engaged@?$_String_val@U?$_Simple_types@D@std@@@std@@QBE_NXZ ; std::_String_val<std::_Simple_types<char> >::_Large_string_engaged
  0003b	0f b6 c0	 movzx	 eax, al
  0003e	85 c0		 test	 eax, eax
  00040	74 12		 je	 SHORT $LN2@Myptr

; 2274 :             _Result = _Unfancy(_Bx._Ptr);

  00042	8b 45 f8	 mov	 eax, DWORD PTR _this$[ebp]
  00045	8b 48 04	 mov	 ecx, DWORD PTR [eax+4]
  00048	51		 push	 ecx
  00049	e8 00 00 00 00	 call	 ??$_Unfancy@D@std@@YAPADPAD@Z ; std::_Unfancy<char>
  0004e	83 c4 04	 add	 esp, 4
  00051	89 45 ec	 mov	 DWORD PTR __Result$[ebp], eax
$LN2@Myptr:

; 2275 :         }
; 2276 : 
; 2277 :         return _Result;

  00054	8b 45 ec	 mov	 eax, DWORD PTR __Result$[ebp]

; 2278 :     }

  00057	5f		 pop	 edi
  00058	5e		 pop	 esi
  00059	5b		 pop	 ebx
  0005a	81 c4 d8 00 00
	00		 add	 esp, 216		; 000000d8H
  00060	3b ec		 cmp	 ebp, esp
  00062	e8 00 00 00 00	 call	 __RTC_CheckEsp
  00067	8b e5		 mov	 esp, ebp
  00069	5d		 pop	 ebp
  0006a	c3		 ret	 0
?_Myptr@?$_String_val@U?$_Simple_types@D@std@@@std@@QBEPBDXZ ENDP ; std::_String_val<std::_Simple_types<char> >::_Myptr
_TEXT	ENDS
; Function compile flags: /Odtp /RTCsu /ZI
; File C:\Program Files (x86)\Microsoft Visual Studio\2019\Community\VC\Tools\MSVC\14.29.30133\include\xstring
;	COMDAT ?_Myptr@?$_String_val@U?$_Simple_types@D@std@@@std@@QAEPADXZ
_TEXT	SEGMENT
__Result$ = -20						; size = 4
_this$ = -8						; size = 4
?_Myptr@?$_String_val@U?$_Simple_types@D@std@@@std@@QAEPADXZ PROC ; std::_String_val<std::_Simple_types<char> >::_Myptr, COMDAT
; _this$ = ecx

; 2262 :     _CONSTEXPR20_CONTAINER value_type* _Myptr() noexcept {

  00000	55		 push	 ebp
  00001	8b ec		 mov	 ebp, esp
  00003	81 ec d8 00 00
	00		 sub	 esp, 216		; 000000d8H
  00009	53		 push	 ebx
  0000a	56		 push	 esi
  0000b	57		 push	 edi
  0000c	51		 push	 ecx
  0000d	8d 7d e8	 lea	 edi, DWORD PTR [ebp-24]
  00010	b9 06 00 00 00	 mov	 ecx, 6
  00015	b8 cc cc cc cc	 mov	 eax, -858993460		; ccccccccH
  0001a	f3 ab		 rep stosd
  0001c	59		 pop	 ecx
  0001d	89 4d f8	 mov	 DWORD PTR _this$[ebp], ecx
  00020	b9 00 00 00 00	 mov	 ecx, OFFSET __0D019051_xstring
  00025	e8 00 00 00 00	 call	 @__CheckForDebuggerJustMyCode@4

; 2263 :         value_type* _Result = _Bx._Buf;

  0002a	8b 45 f8	 mov	 eax, DWORD PTR _this$[ebp]
  0002d	83 c0 04	 add	 eax, 4
  00030	89 45 ec	 mov	 DWORD PTR __Result$[ebp], eax

; 2264 :         if (_Large_string_engaged()) {

  00033	8b 4d f8	 mov	 ecx, DWORD PTR _this$[ebp]
  00036	e8 00 00 00 00	 call	 ?_Large_string_engaged@?$_String_val@U?$_Simple_types@D@std@@@std@@QBE_NXZ ; std::_String_val<std::_Simple_types<char> >::_Large_string_engaged
  0003b	0f b6 c0	 movzx	 eax, al
  0003e	85 c0		 test	 eax, eax
  00040	74 12		 je	 SHORT $LN2@Myptr

; 2265 :             _Result = _Unfancy(_Bx._Ptr);

  00042	8b 45 f8	 mov	 eax, DWORD PTR _this$[ebp]
  00045	8b 48 04	 mov	 ecx, DWORD PTR [eax+4]
  00048	51		 push	 ecx
  00049	e8 00 00 00 00	 call	 ??$_Unfancy@D@std@@YAPADPAD@Z ; std::_Unfancy<char>
  0004e	83 c4 04	 add	 esp, 4
  00051	89 45 ec	 mov	 DWORD PTR __Result$[ebp], eax
$LN2@Myptr:

; 2266 :         }
; 2267 : 
; 2268 :         return _Result;

  00054	8b 45 ec	 mov	 eax, DWORD PTR __Result$[ebp]

; 2269 :     }

  00057	5f		 pop	 edi
  00058	5e		 pop	 esi
  00059	5b		 pop	 ebx
  0005a	81 c4 d8 00 00
	00		 add	 esp, 216		; 000000d8H
  00060	3b ec		 cmp	 ebp, esp
  00062	e8 00 00 00 00	 call	 __RTC_CheckEsp
  00067	8b e5		 mov	 esp, ebp
  00069	5d		 pop	 ebp
  0006a	c3		 ret	 0
?_Myptr@?$_String_val@U?$_Simple_types@D@std@@@std@@QAEPADXZ ENDP ; std::_String_val<std::_Simple_types<char> >::_Myptr
_TEXT	ENDS
; Function compile flags: /Odtp /RTCsu /ZI
; File C:\Program Files (x86)\Microsoft Visual Studio\2019\Community\VC\Tools\MSVC\14.29.30133\include\xstring
;	COMDAT ??0?$_String_val@U?$_Simple_types@D@std@@@std@@QAE@XZ
_TEXT	SEGMENT
_this$ = -8						; size = 4
??0?$_String_val@U?$_Simple_types@D@std@@@std@@QAE@XZ PROC ; std::_String_val<std::_Simple_types<char> >::_String_val<std::_Simple_types<char> >, COMDAT
; _this$ = ecx

; 2251 :     _CONSTEXPR20_CONTAINER _String_val() noexcept : _Bx() {}

  00000	55		 push	 ebp
  00001	8b ec		 mov	 ebp, esp
  00003	81 ec cc 00 00
	00		 sub	 esp, 204		; 000000ccH
  00009	53		 push	 ebx
  0000a	56		 push	 esi
  0000b	57		 push	 edi
  0000c	51		 push	 ecx
  0000d	8d 7d f4	 lea	 edi, DWORD PTR [ebp-12]
  00010	b9 03 00 00 00	 mov	 ecx, 3
  00015	b8 cc cc cc cc	 mov	 eax, -858993460		; ccccccccH
  0001a	f3 ab		 rep stosd
  0001c	59		 pop	 ecx
  0001d	89 4d f8	 mov	 DWORD PTR _this$[ebp], ecx
  00020	b9 00 00 00 00	 mov	 ecx, OFFSET __0D019051_xstring
  00025	e8 00 00 00 00	 call	 @__CheckForDebuggerJustMyCode@4
  0002a	8b 4d f8	 mov	 ecx, DWORD PTR _this$[ebp]
  0002d	e8 00 00 00 00	 call	 ??0_Container_base12@std@@QAE@XZ ; std::_Container_base12::_Container_base12
  00032	8b 4d f8	 mov	 ecx, DWORD PTR _this$[ebp]
  00035	83 c1 04	 add	 ecx, 4
  00038	e8 00 00 00 00	 call	 ??0_Bxty@?$_String_val@U?$_Simple_types@D@std@@@std@@QAE@XZ ; std::_String_val<std::_Simple_types<char> >::_Bxty::_Bxty

; 2252 : 
; 2253 :     // length of internal buffer, [1, 16]:
; 2254 :     static constexpr size_type _BUF_SIZE = 16 / sizeof(value_type) < 1 ? 1 : 16 / sizeof(value_type);
; 2255 :     // roundup mask for allocated buffers, [0, 15]:
; 2256 :     static constexpr size_type _ALLOC_MASK = sizeof(value_type) <= 1 ? 15
; 2257 :                                            : sizeof(value_type) <= 2 ? 7
; 2258 :                                            : sizeof(value_type) <= 4 ? 3
; 2259 :                                            : sizeof(value_type) <= 8 ? 1
; 2260 :                                                                      : 0;
; 2261 : 
; 2262 :     _CONSTEXPR20_CONTAINER value_type* _Myptr() noexcept {
; 2263 :         value_type* _Result = _Bx._Buf;
; 2264 :         if (_Large_string_engaged()) {
; 2265 :             _Result = _Unfancy(_Bx._Ptr);
; 2266 :         }
; 2267 : 
; 2268 :         return _Result;
; 2269 :     }
; 2270 : 
; 2271 :     _CONSTEXPR20_CONTAINER const value_type* _Myptr() const noexcept {
; 2272 :         const value_type* _Result = _Bx._Buf;
; 2273 :         if (_Large_string_engaged()) {
; 2274 :             _Result = _Unfancy(_Bx._Ptr);
; 2275 :         }
; 2276 : 
; 2277 :         return _Result;
; 2278 :     }
; 2279 : 
; 2280 :     _CONSTEXPR20_CONTAINER bool _Large_string_engaged() const noexcept {
; 2281 : #ifdef __cpp_lib_constexpr_string
; 2282 :         if (_STD is_constant_evaluated()) {
; 2283 :             return true;
; 2284 :         }
; 2285 : #endif // __cpp_lib_constexpr_string
; 2286 :         return _BUF_SIZE <= _Myres;
; 2287 :     }
; 2288 : 
; 2289 :     _CONSTEXPR20_CONTAINER void _Check_offset(const size_type _Off) const {
; 2290 :         // checks whether _Off is in the bounds of [0, size()]
; 2291 :         if (_Mysize < _Off) {
; 2292 :             _Xran();
; 2293 :         }
; 2294 :     }
; 2295 : 
; 2296 :     _CONSTEXPR20_CONTAINER void _Check_offset_exclusive(const size_type _Off) const {
; 2297 :         // checks whether _Off is in the bounds of [0, size())
; 2298 :         if (_Mysize <= _Off) {
; 2299 :             _Xran();
; 2300 :         }
; 2301 :     }
; 2302 : 
; 2303 :     [[noreturn]] static void _Xran() {
; 2304 :         _Xout_of_range("invalid string position");
; 2305 :     }
; 2306 : 
; 2307 :     _CONSTEXPR20_CONTAINER size_type _Clamp_suffix_size(const size_type _Off, const size_type _Size) const noexcept {
; 2308 :         // trims _Size to the longest it can be assuming a string at/after _Off
; 2309 :         return (_STD min)(_Size, _Mysize - _Off);
; 2310 :     }
; 2311 : 
; 2312 :     union _Bxty { // storage for small buffer or pointer to larger one
; 2313 :         _CONSTEXPR20_CONTAINER _Bxty() noexcept : _Ptr() {} // user-provided, for fancy pointers
; 2314 : 
; 2315 :         _CONSTEXPR20_CONTAINER ~_Bxty() noexcept {} // user-provided, for fancy pointers
; 2316 : 
; 2317 :         value_type _Buf[_BUF_SIZE];
; 2318 :         pointer _Ptr;
; 2319 :         char _Alias[_BUF_SIZE]; // TRANSITION, ABI: _Alias is preserved for binary compatibility (especially /clr)
; 2320 :     } _Bx;
; 2321 : 
; 2322 :     size_type _Mysize = 0; // current length of string

  0003d	8b 45 f8	 mov	 eax, DWORD PTR _this$[ebp]
  00040	c7 40 14 00 00
	00 00		 mov	 DWORD PTR [eax+20], 0

; 2323 :     size_type _Myres  = 0; // current storage reserved for string

  00047	8b 45 f8	 mov	 eax, DWORD PTR _this$[ebp]
  0004a	c7 40 18 00 00
	00 00		 mov	 DWORD PTR [eax+24], 0

; 2251 :     _CONSTEXPR20_CONTAINER _String_val() noexcept : _Bx() {}

  00051	8b 45 f8	 mov	 eax, DWORD PTR _this$[ebp]
  00054	5f		 pop	 edi
  00055	5e		 pop	 esi
  00056	5b		 pop	 ebx
  00057	81 c4 cc 00 00
	00		 add	 esp, 204		; 000000ccH
  0005d	3b ec		 cmp	 ebp, esp
  0005f	e8 00 00 00 00	 call	 __RTC_CheckEsp
  00064	8b e5		 mov	 esp, ebp
  00066	5d		 pop	 ebp
  00067	c3		 ret	 0
??0?$_String_val@U?$_Simple_types@D@std@@@std@@QAE@XZ ENDP ; std::_String_val<std::_Simple_types<char> >::_String_val<std::_Simple_types<char> >
_TEXT	ENDS
; Function compile flags: /Odtp /RTCsu /ZI
; File C:\Program Files (x86)\Microsoft Visual Studio\2019\Community\VC\Tools\MSVC\14.29.30133\include\xmemory
;	COMDAT ?max_size@?$_Default_allocator_traits@V?$allocator@D@std@@@std@@SAIABV?$allocator@D@2@@Z
_TEXT	SEGMENT
___formal$ = 8						; size = 4
?max_size@?$_Default_allocator_traits@V?$allocator@D@std@@@std@@SAIABV?$allocator@D@2@@Z PROC ; std::_Default_allocator_traits<std::allocator<char> >::max_size, COMDAT

; 694  :     _NODISCARD static _CONSTEXPR20_DYNALLOC size_type max_size(const _Alloc&) noexcept {

  00000	55		 push	 ebp
  00001	8b ec		 mov	 ebp, esp
  00003	81 ec c0 00 00
	00		 sub	 esp, 192		; 000000c0H
  00009	53		 push	 ebx
  0000a	56		 push	 esi
  0000b	57		 push	 edi
  0000c	8b fd		 mov	 edi, ebp
  0000e	33 c9		 xor	 ecx, ecx
  00010	b8 cc cc cc cc	 mov	 eax, -858993460		; ccccccccH
  00015	f3 ab		 rep stosd
  00017	b9 00 00 00 00	 mov	 ecx, OFFSET __79D216CD_xmemory
  0001c	e8 00 00 00 00	 call	 @__CheckForDebuggerJustMyCode@4

; 695  :         return static_cast<size_t>(-1) / sizeof(value_type);

  00021	83 c8 ff	 or	 eax, -1

; 696  :     }

  00024	5f		 pop	 edi
  00025	5e		 pop	 esi
  00026	5b		 pop	 ebx
  00027	81 c4 c0 00 00
	00		 add	 esp, 192		; 000000c0H
  0002d	3b ec		 cmp	 ebp, esp
  0002f	e8 00 00 00 00	 call	 __RTC_CheckEsp
  00034	8b e5		 mov	 esp, ebp
  00036	5d		 pop	 ebp
  00037	c3		 ret	 0
?max_size@?$_Default_allocator_traits@V?$allocator@D@std@@@std@@SAIABV?$allocator@D@2@@Z ENDP ; std::_Default_allocator_traits<std::allocator<char> >::max_size
_TEXT	ENDS
; Function compile flags: /Odtp /RTCsu /ZI
; File C:\Program Files (x86)\Microsoft Visual Studio\2019\Community\VC\Tools\MSVC\14.29.30133\include\xmemory
;	COMDAT ?allocate@?$allocator@D@std@@QAEPADI@Z
_TEXT	SEGMENT
_this$ = -8						; size = 4
__Count$ = 8						; size = 4
?allocate@?$allocator@D@std@@QAEPADI@Z PROC		; std::allocator<char>::allocate, COMDAT
; _this$ = ecx

; 800  :     _NODISCARD _CONSTEXPR20_DYNALLOC __declspec(allocator) _Ty* allocate(_CRT_GUARDOVERFLOW const size_t _Count) {

  00000	55		 push	 ebp
  00001	8b ec		 mov	 ebp, esp
  00003	81 ec cc 00 00
	00		 sub	 esp, 204		; 000000ccH
  00009	53		 push	 ebx
  0000a	56		 push	 esi
  0000b	57		 push	 edi
  0000c	51		 push	 ecx
  0000d	8d 7d f4	 lea	 edi, DWORD PTR [ebp-12]
  00010	b9 03 00 00 00	 mov	 ecx, 3
  00015	b8 cc cc cc cc	 mov	 eax, -858993460		; ccccccccH
  0001a	f3 ab		 rep stosd
  0001c	59		 pop	 ecx
  0001d	89 4d f8	 mov	 DWORD PTR _this$[ebp], ecx
  00020	b9 00 00 00 00	 mov	 ecx, OFFSET __79D216CD_xmemory
  00025	e8 00 00 00 00	 call	 @__CheckForDebuggerJustMyCode@4

; 801  :         return static_cast<_Ty*>(_Allocate<_New_alignof<_Ty>>(_Get_size_of_n<sizeof(_Ty)>(_Count)));

  0002a	8b 45 08	 mov	 eax, DWORD PTR __Count$[ebp]
  0002d	50		 push	 eax
  0002e	e8 00 00 00 00	 call	 ??$_Get_size_of_n@$00@std@@YAII@Z ; std::_Get_size_of_n<1>
  00033	83 c4 04	 add	 esp, 4
  00036	50		 push	 eax
  00037	e8 00 00 00 00	 call	 ??$_Allocate@$07U_Default_allocate_traits@std@@$0A@@std@@YAPAXI@Z ; std::_Allocate<8,std::_Default_allocate_traits,0>
  0003c	83 c4 04	 add	 esp, 4

; 802  :     }

  0003f	5f		 pop	 edi
  00040	5e		 pop	 esi
  00041	5b		 pop	 ebx
  00042	81 c4 cc 00 00
	00		 add	 esp, 204		; 000000ccH
  00048	3b ec		 cmp	 ebp, esp
  0004a	e8 00 00 00 00	 call	 __RTC_CheckEsp
  0004f	8b e5		 mov	 esp, ebp
  00051	5d		 pop	 ebp
  00052	c2 04 00	 ret	 4
?allocate@?$allocator@D@std@@QAEPADI@Z ENDP		; std::allocator<char>::allocate
_TEXT	ENDS
; Function compile flags: /Odtp /RTCsu /ZI
; File C:\Program Files (x86)\Microsoft Visual Studio\2019\Community\VC\Tools\MSVC\14.29.30133\include\xmemory
;	COMDAT ?deallocate@?$allocator@D@std@@QAEXQADI@Z
_TEXT	SEGMENT
_this$ = -8						; size = 4
__Ptr$ = 8						; size = 4
__Count$ = 12						; size = 4
?deallocate@?$allocator@D@std@@QAEXQADI@Z PROC		; std::allocator<char>::deallocate, COMDAT
; _this$ = ecx

; 795  :     _CONSTEXPR20_DYNALLOC void deallocate(_Ty* const _Ptr, const size_t _Count) {

  00000	55		 push	 ebp
  00001	8b ec		 mov	 ebp, esp
  00003	81 ec cc 00 00
	00		 sub	 esp, 204		; 000000ccH
  00009	53		 push	 ebx
  0000a	56		 push	 esi
  0000b	57		 push	 edi
  0000c	51		 push	 ecx
  0000d	8d 7d f4	 lea	 edi, DWORD PTR [ebp-12]
  00010	b9 03 00 00 00	 mov	 ecx, 3
  00015	b8 cc cc cc cc	 mov	 eax, -858993460		; ccccccccH
  0001a	f3 ab		 rep stosd
  0001c	59		 pop	 ecx
  0001d	89 4d f8	 mov	 DWORD PTR _this$[ebp], ecx
  00020	b9 00 00 00 00	 mov	 ecx, OFFSET __79D216CD_xmemory
  00025	e8 00 00 00 00	 call	 @__CheckForDebuggerJustMyCode@4

; 796  :         // no overflow check on the following multiply; we assume _Allocate did that check
; 797  :         _Deallocate<_New_alignof<_Ty>>(_Ptr, sizeof(_Ty) * _Count);

  0002a	8b 45 0c	 mov	 eax, DWORD PTR __Count$[ebp]
  0002d	50		 push	 eax
  0002e	8b 4d 08	 mov	 ecx, DWORD PTR __Ptr$[ebp]
  00031	51		 push	 ecx
  00032	e8 00 00 00 00	 call	 ??$_Deallocate@$07$0A@@std@@YAXPAXI@Z ; std::_Deallocate<8,0>
  00037	83 c4 08	 add	 esp, 8

; 798  :     }

  0003a	5f		 pop	 edi
  0003b	5e		 pop	 esi
  0003c	5b		 pop	 ebx
  0003d	81 c4 cc 00 00
	00		 add	 esp, 204		; 000000ccH
  00043	3b ec		 cmp	 ebp, esp
  00045	e8 00 00 00 00	 call	 __RTC_CheckEsp
  0004a	8b e5		 mov	 esp, ebp
  0004c	5d		 pop	 ebp
  0004d	c2 08 00	 ret	 8
?deallocate@?$allocator@D@std@@QAEXQADI@Z ENDP		; std::allocator<char>::deallocate
_TEXT	ENDS
; Function compile flags: /Odtp /RTCsu /ZI
; File C:\Program Files (x86)\Microsoft Visual Studio\2019\Community\VC\Tools\MSVC\14.29.30133\include\xmemory
;	COMDAT ??0?$allocator@D@std@@QAE@XZ
_TEXT	SEGMENT
_this$ = -8						; size = 4
??0?$allocator@D@std@@QAE@XZ PROC			; std::allocator<char>::allocator<char>, COMDAT
; _this$ = ecx

; 787  :     constexpr allocator() noexcept {}

  00000	55		 push	 ebp
  00001	8b ec		 mov	 ebp, esp
  00003	81 ec cc 00 00
	00		 sub	 esp, 204		; 000000ccH
  00009	53		 push	 ebx
  0000a	56		 push	 esi
  0000b	57		 push	 edi
  0000c	51		 push	 ecx
  0000d	8d 7d f4	 lea	 edi, DWORD PTR [ebp-12]
  00010	b9 03 00 00 00	 mov	 ecx, 3
  00015	b8 cc cc cc cc	 mov	 eax, -858993460		; ccccccccH
  0001a	f3 ab		 rep stosd
  0001c	59		 pop	 ecx
  0001d	89 4d f8	 mov	 DWORD PTR _this$[ebp], ecx
  00020	b9 00 00 00 00	 mov	 ecx, OFFSET __79D216CD_xmemory
  00025	e8 00 00 00 00	 call	 @__CheckForDebuggerJustMyCode@4
  0002a	8b 45 f8	 mov	 eax, DWORD PTR _this$[ebp]
  0002d	5f		 pop	 edi
  0002e	5e		 pop	 esi
  0002f	5b		 pop	 ebx
  00030	81 c4 cc 00 00
	00		 add	 esp, 204		; 000000ccH
  00036	3b ec		 cmp	 ebp, esp
  00038	e8 00 00 00 00	 call	 __RTC_CheckEsp
  0003d	8b e5		 mov	 esp, ebp
  0003f	5d		 pop	 ebp
  00040	c3		 ret	 0
??0?$allocator@D@std@@QAE@XZ ENDP			; std::allocator<char>::allocator<char>
_TEXT	ENDS
; Function compile flags: /Odtp /RTCsu /ZI
; File C:\Program Files (x86)\Microsoft Visual Studio\2019\Community\VC\Tools\MSVC\14.29.30133\include\xstring
;	COMDAT ?_Xlen_string@std@@YAXXZ
_TEXT	SEGMENT
?_Xlen_string@std@@YAXXZ PROC				; std::_Xlen_string, COMDAT

; 2339 : [[noreturn]] inline void _Xlen_string() {

  00000	55		 push	 ebp
  00001	8b ec		 mov	 ebp, esp
  00003	81 ec c0 00 00
	00		 sub	 esp, 192		; 000000c0H
  00009	53		 push	 ebx
  0000a	56		 push	 esi
  0000b	57		 push	 edi
  0000c	8b fd		 mov	 edi, ebp
  0000e	33 c9		 xor	 ecx, ecx
  00010	b8 cc cc cc cc	 mov	 eax, -858993460		; ccccccccH
  00015	f3 ab		 rep stosd
  00017	b9 00 00 00 00	 mov	 ecx, OFFSET __0D019051_xstring
  0001c	e8 00 00 00 00	 call	 @__CheckForDebuggerJustMyCode@4

; 2340 :     _Xlength_error("string too long");

  00021	68 00 00 00 00	 push	 OFFSET ??_C@_0BA@JFNIOLAK@string?5too?5long@
  00026	e8 00 00 00 00	 call	 ?_Xlength_error@std@@YAXPBD@Z ; std::_Xlength_error
$LN2@Xlen_strin:

; 2341 : }

  0002b	5f		 pop	 edi
  0002c	5e		 pop	 esi
  0002d	5b		 pop	 ebx
  0002e	81 c4 c0 00 00
	00		 add	 esp, 192		; 000000c0H
  00034	3b ec		 cmp	 ebp, esp
  00036	e8 00 00 00 00	 call	 __RTC_CheckEsp
  0003b	8b e5		 mov	 esp, ebp
  0003d	5d		 pop	 ebp
  0003e	c3		 ret	 0
?_Xlen_string@std@@YAXXZ ENDP				; std::_Xlen_string
_TEXT	ENDS
; Function compile flags: /Odtp /RTCsu /ZI
; File C:\Program Files (x86)\Microsoft Visual Studio\2019\Community\VC\Tools\MSVC\14.29.30133\include\xstring
;	COMDAT ?eof@?$_Narrow_char_traits@DH@std@@SAHXZ
_TEXT	SEGMENT
?eof@?$_Narrow_char_traits@DH@std@@SAHXZ PROC		; std::_Narrow_char_traits<char,int>::eof, COMDAT

; 469  :     _NODISCARD static constexpr int_type eof() noexcept {

  00000	55		 push	 ebp
  00001	8b ec		 mov	 ebp, esp
  00003	81 ec c0 00 00
	00		 sub	 esp, 192		; 000000c0H
  00009	53		 push	 ebx
  0000a	56		 push	 esi
  0000b	57		 push	 edi
  0000c	8b fd		 mov	 edi, ebp
  0000e	33 c9		 xor	 ecx, ecx
  00010	b8 cc cc cc cc	 mov	 eax, -858993460		; ccccccccH
  00015	f3 ab		 rep stosd
  00017	b9 00 00 00 00	 mov	 ecx, OFFSET __0D019051_xstring
  0001c	e8 00 00 00 00	 call	 @__CheckForDebuggerJustMyCode@4

; 470  :         return static_cast<int_type>(EOF);

  00021	83 c8 ff	 or	 eax, -1

; 471  :     }

  00024	5f		 pop	 edi
  00025	5e		 pop	 esi
  00026	5b		 pop	 ebx
  00027	81 c4 c0 00 00
	00		 add	 esp, 192		; 000000c0H
  0002d	3b ec		 cmp	 ebp, esp
  0002f	e8 00 00 00 00	 call	 __RTC_CheckEsp
  00034	8b e5		 mov	 esp, ebp
  00036	5d		 pop	 ebp
  00037	c3		 ret	 0
?eof@?$_Narrow_char_traits@DH@std@@SAHXZ ENDP		; std::_Narrow_char_traits<char,int>::eof
_TEXT	ENDS
; Function compile flags: /Odtp /RTCsu /ZI
; File C:\Program Files (x86)\Microsoft Visual Studio\2019\Community\VC\Tools\MSVC\14.29.30133\include\xstring
;	COMDAT ?eq_int_type@?$_Narrow_char_traits@DH@std@@SA_NABH0@Z
_TEXT	SEGMENT
tv65 = -196						; size = 4
__Left$ = 8						; size = 4
__Right$ = 12						; size = 4
?eq_int_type@?$_Narrow_char_traits@DH@std@@SA_NABH0@Z PROC ; std::_Narrow_char_traits<char,int>::eq_int_type, COMDAT

; 461  :     _NODISCARD static constexpr bool eq_int_type(const int_type& _Left, const int_type& _Right) noexcept {

  00000	55		 push	 ebp
  00001	8b ec		 mov	 ebp, esp
  00003	81 ec c4 00 00
	00		 sub	 esp, 196		; 000000c4H
  00009	53		 push	 ebx
  0000a	56		 push	 esi
  0000b	57		 push	 edi
  0000c	8d 7d fc	 lea	 edi, DWORD PTR [ebp-4]
  0000f	b9 01 00 00 00	 mov	 ecx, 1
  00014	b8 cc cc cc cc	 mov	 eax, -858993460		; ccccccccH
  00019	f3 ab		 rep stosd
  0001b	b9 00 00 00 00	 mov	 ecx, OFFSET __0D019051_xstring
  00020	e8 00 00 00 00	 call	 @__CheckForDebuggerJustMyCode@4

; 462  :         return _Left == _Right;

  00025	8b 45 08	 mov	 eax, DWORD PTR __Left$[ebp]
  00028	8b 4d 0c	 mov	 ecx, DWORD PTR __Right$[ebp]
  0002b	8b 10		 mov	 edx, DWORD PTR [eax]
  0002d	3b 11		 cmp	 edx, DWORD PTR [ecx]
  0002f	75 0c		 jne	 SHORT $LN3@eq_int_typ
  00031	c7 85 3c ff ff
	ff 01 00 00 00	 mov	 DWORD PTR tv65[ebp], 1
  0003b	eb 0a		 jmp	 SHORT $LN4@eq_int_typ
$LN3@eq_int_typ:
  0003d	c7 85 3c ff ff
	ff 00 00 00 00	 mov	 DWORD PTR tv65[ebp], 0
$LN4@eq_int_typ:
  00047	8a 85 3c ff ff
	ff		 mov	 al, BYTE PTR tv65[ebp]

; 463  :     }

  0004d	5f		 pop	 edi
  0004e	5e		 pop	 esi
  0004f	5b		 pop	 ebx
  00050	81 c4 c4 00 00
	00		 add	 esp, 196		; 000000c4H
  00056	3b ec		 cmp	 ebp, esp
  00058	e8 00 00 00 00	 call	 __RTC_CheckEsp
  0005d	8b e5		 mov	 esp, ebp
  0005f	5d		 pop	 ebp
  00060	c3		 ret	 0
?eq_int_type@?$_Narrow_char_traits@DH@std@@SA_NABH0@Z ENDP ; std::_Narrow_char_traits<char,int>::eq_int_type
_TEXT	ENDS
; Function compile flags: /Odtp /RTCsu /ZI
; File C:\Program Files (x86)\Microsoft Visual Studio\2019\Community\VC\Tools\MSVC\14.29.30133\include\xstring
;	COMDAT ?to_char_type@?$_Narrow_char_traits@DH@std@@SADABH@Z
_TEXT	SEGMENT
__Meta$ = 8						; size = 4
?to_char_type@?$_Narrow_char_traits@DH@std@@SADABH@Z PROC ; std::_Narrow_char_traits<char,int>::to_char_type, COMDAT

; 453  :     _NODISCARD static constexpr _Elem to_char_type(const int_type& _Meta) noexcept {

  00000	55		 push	 ebp
  00001	8b ec		 mov	 ebp, esp
  00003	81 ec c0 00 00
	00		 sub	 esp, 192		; 000000c0H
  00009	53		 push	 ebx
  0000a	56		 push	 esi
  0000b	57		 push	 edi
  0000c	8b fd		 mov	 edi, ebp
  0000e	33 c9		 xor	 ecx, ecx
  00010	b8 cc cc cc cc	 mov	 eax, -858993460		; ccccccccH
  00015	f3 ab		 rep stosd
  00017	b9 00 00 00 00	 mov	 ecx, OFFSET __0D019051_xstring
  0001c	e8 00 00 00 00	 call	 @__CheckForDebuggerJustMyCode@4

; 454  :         return static_cast<_Elem>(_Meta);

  00021	8b 45 08	 mov	 eax, DWORD PTR __Meta$[ebp]
  00024	8a 00		 mov	 al, BYTE PTR [eax]

; 455  :     }

  00026	5f		 pop	 edi
  00027	5e		 pop	 esi
  00028	5b		 pop	 ebx
  00029	81 c4 c0 00 00
	00		 add	 esp, 192		; 000000c0H
  0002f	3b ec		 cmp	 ebp, esp
  00031	e8 00 00 00 00	 call	 __RTC_CheckEsp
  00036	8b e5		 mov	 esp, ebp
  00038	5d		 pop	 ebp
  00039	c3		 ret	 0
?to_char_type@?$_Narrow_char_traits@DH@std@@SADABH@Z ENDP ; std::_Narrow_char_traits<char,int>::to_char_type
_TEXT	ENDS
; Function compile flags: /Odtp /RTCsu /ZI
; File C:\Program Files (x86)\Microsoft Visual Studio\2019\Community\VC\Tools\MSVC\14.29.30133\include\xstring
;	COMDAT ?assign@?$_Narrow_char_traits@DH@std@@SAXAADABD@Z
_TEXT	SEGMENT
__Left$ = 8						; size = 4
__Right$ = 12						; size = 4
?assign@?$_Narrow_char_traits@DH@std@@SAXAADABD@Z PROC	; std::_Narrow_char_traits<char,int>::assign, COMDAT

; 441  :     static _CONSTEXPR17 void assign(_Elem& _Left, const _Elem& _Right) noexcept {

  00000	55		 push	 ebp
  00001	8b ec		 mov	 ebp, esp
  00003	81 ec c0 00 00
	00		 sub	 esp, 192		; 000000c0H
  00009	53		 push	 ebx
  0000a	56		 push	 esi
  0000b	57		 push	 edi
  0000c	8b fd		 mov	 edi, ebp
  0000e	33 c9		 xor	 ecx, ecx
  00010	b8 cc cc cc cc	 mov	 eax, -858993460		; ccccccccH
  00015	f3 ab		 rep stosd
  00017	b9 00 00 00 00	 mov	 ecx, OFFSET __0D019051_xstring
  0001c	e8 00 00 00 00	 call	 @__CheckForDebuggerJustMyCode@4

; 442  :         _Left = _Right;

  00021	8b 45 08	 mov	 eax, DWORD PTR __Left$[ebp]
  00024	8b 4d 0c	 mov	 ecx, DWORD PTR __Right$[ebp]
  00027	8a 11		 mov	 dl, BYTE PTR [ecx]
  00029	88 10		 mov	 BYTE PTR [eax], dl

; 443  :     }

  0002b	5f		 pop	 edi
  0002c	5e		 pop	 esi
  0002d	5b		 pop	 ebx
  0002e	81 c4 c0 00 00
	00		 add	 esp, 192		; 000000c0H
  00034	3b ec		 cmp	 ebp, esp
  00036	e8 00 00 00 00	 call	 __RTC_CheckEsp
  0003b	8b e5		 mov	 esp, ebp
  0003d	5d		 pop	 ebp
  0003e	c3		 ret	 0
?assign@?$_Narrow_char_traits@DH@std@@SAXAADABD@Z ENDP	; std::_Narrow_char_traits<char,int>::assign
_TEXT	ENDS
; Function compile flags: /Odtp /RTCsu /ZI
; File C:\Program Files (x86)\Microsoft Visual Studio\2019\Community\VC\Tools\MSVC\14.29.30133\include\xstring
;	COMDAT ?length@?$_Narrow_char_traits@DH@std@@SAIQBD@Z
_TEXT	SEGMENT
__First$ = 8						; size = 4
?length@?$_Narrow_char_traits@DH@std@@SAIQBD@Z PROC	; std::_Narrow_char_traits<char,int>::length, COMDAT

; 388  :     _NODISCARD static _CONSTEXPR17 size_t length(_In_z_ const _Elem* const _First) noexcept /* strengthened */ {

  00000	55		 push	 ebp
  00001	8b ec		 mov	 ebp, esp
  00003	81 ec c0 00 00
	00		 sub	 esp, 192		; 000000c0H
  00009	53		 push	 ebx
  0000a	56		 push	 esi
  0000b	57		 push	 edi
  0000c	8b fd		 mov	 edi, ebp
  0000e	33 c9		 xor	 ecx, ecx
  00010	b8 cc cc cc cc	 mov	 eax, -858993460		; ccccccccH
  00015	f3 ab		 rep stosd
  00017	b9 00 00 00 00	 mov	 ecx, OFFSET __0D019051_xstring
  0001c	e8 00 00 00 00	 call	 @__CheckForDebuggerJustMyCode@4

; 389  :         // find length of null-terminated string
; 390  : #if _HAS_CXX17
; 391  : #ifdef __cpp_char8_t
; 392  :         if constexpr (is_same_v<_Elem, char8_t>) {
; 393  : #if _HAS_U8_INTRINSICS
; 394  :             return __builtin_u8strlen(_First);
; 395  : #else // ^^^ use u8 intrinsics / no u8 intrinsics vvv
; 396  :             return _Primary_char_traits::length(_First);
; 397  : #endif // _HAS_U8_INTRINSICS
; 398  :         } else
; 399  : #endif // __cpp_char8_t
; 400  :         {
; 401  :             return __builtin_strlen(_First);
; 402  :         }
; 403  : #else // _HAS_CXX17
; 404  :         return _CSTD strlen(reinterpret_cast<const char*>(_First));

  00021	8b 45 08	 mov	 eax, DWORD PTR __First$[ebp]
  00024	50		 push	 eax
  00025	e8 00 00 00 00	 call	 _strlen
  0002a	83 c4 04	 add	 esp, 4

; 405  : #endif // _HAS_CXX17
; 406  :     }

  0002d	5f		 pop	 edi
  0002e	5e		 pop	 esi
  0002f	5b		 pop	 ebx
  00030	81 c4 c0 00 00
	00		 add	 esp, 192		; 000000c0H
  00036	3b ec		 cmp	 ebp, esp
  00038	e8 00 00 00 00	 call	 __RTC_CheckEsp
  0003d	8b e5		 mov	 esp, ebp
  0003f	5d		 pop	 ebp
  00040	c3		 ret	 0
?length@?$_Narrow_char_traits@DH@std@@SAIQBD@Z ENDP	; std::_Narrow_char_traits<char,int>::length
_TEXT	ENDS
; Function compile flags: /Odtp /RTCsu /ZI
; File C:\Program Files (x86)\Microsoft Visual Studio\2019\Community\VC\Tools\MSVC\14.29.30133\include\xstring
;	COMDAT ?move@?$_Char_traits@DH@std@@SAPADQADQBDI@Z
_TEXT	SEGMENT
__First1$ = 8						; size = 4
__First2$ = 12						; size = 4
__Count$ = 16						; size = 4
?move@?$_Char_traits@DH@std@@SAPADQADQBDI@Z PROC	; std::_Char_traits<char,int>::move, COMDAT

; 79   :         _In_reads_(_Count) const _Elem* const _First2, const size_t _Count) noexcept /* strengthened */ {

  00000	55		 push	 ebp
  00001	8b ec		 mov	 ebp, esp
  00003	81 ec c0 00 00
	00		 sub	 esp, 192		; 000000c0H
  00009	53		 push	 ebx
  0000a	56		 push	 esi
  0000b	57		 push	 edi
  0000c	8b fd		 mov	 edi, ebp
  0000e	33 c9		 xor	 ecx, ecx
  00010	b8 cc cc cc cc	 mov	 eax, -858993460		; ccccccccH
  00015	f3 ab		 rep stosd
  00017	b9 00 00 00 00	 mov	 ecx, OFFSET __0D019051_xstring
  0001c	e8 00 00 00 00	 call	 @__CheckForDebuggerJustMyCode@4

; 80   :         // copy [_First2, _First2 + _Count) to [_First1, ...), allowing overlap
; 81   : #if _HAS_MEMCPY_MEMMOVE_INTRINSICS
; 82   :         __builtin_memmove(_First1, _First2, _Count * sizeof(_Elem));
; 83   : #else // ^^^ _HAS_MEMCPY_MEMMOVE_INTRINSICS ^^^ / vvv !_HAS_MEMCPY_MEMMOVE_INTRINSICS vvv
; 84   : #ifdef __cpp_lib_is_constant_evaluated
; 85   :         if (_STD is_constant_evaluated()) {
; 86   :             // dest: [_First1, _First1 + _Count)
; 87   :             // src: [_First2, _First2 + _Count)
; 88   :             // We need to handle overlapping ranges.
; 89   :             // If _First1 is in the src range, we need a backward loop.
; 90   :             // Otherwise, the forward loop works (even if the back of dest overlaps the front of src).
; 91   : 
; 92   :             if (_First1 == _First2) {
; 93   :                 return _First1; // Self-assignment; either loop would work, but returning immediately is faster.
; 94   :             }
; 95   : 
; 96   :             // Usually, we would compare pointers with less-than, even though they could belong to different arrays.
; 97   :             // However, we're not allowed to do that during constant evaluation, so we need a linear scan for equality.
; 98   :             bool _Loop_forward = true;
; 99   : 
; 100  :             for (const _Elem* _Src = _First2; _Src != _First2 + _Count; ++_Src) {
; 101  :                 if (_First1 == _Src) {
; 102  :                     _Loop_forward = false;
; 103  :                     break;
; 104  :                 }
; 105  :             }
; 106  : 
; 107  :             if (_Loop_forward) {
; 108  :                 for (size_t _Idx = 0; _Idx < _Count; ++_Idx) {
; 109  :                     _First1[_Idx] = _First2[_Idx];
; 110  :                 }
; 111  :             } else {
; 112  :                 for (size_t _Idx = 0; _Idx < _Count; ++_Idx) {
; 113  :                     _First1[_Count - 1 - _Idx] = _First2[_Count - 1 - _Idx];
; 114  :                 }
; 115  :             }
; 116  : 
; 117  :             return _First1;
; 118  :         }
; 119  : #endif // __cpp_lib_is_constant_evaluated
; 120  : 
; 121  :         _CSTD memmove(_First1, _First2, _Count * sizeof(_Elem));

  00021	8b 45 10	 mov	 eax, DWORD PTR __Count$[ebp]
  00024	50		 push	 eax
  00025	8b 4d 0c	 mov	 ecx, DWORD PTR __First2$[ebp]
  00028	51		 push	 ecx
  00029	8b 55 08	 mov	 edx, DWORD PTR __First1$[ebp]
  0002c	52		 push	 edx
  0002d	e8 00 00 00 00	 call	 _memmove
  00032	83 c4 0c	 add	 esp, 12			; 0000000cH

; 122  : #endif // ^^^ !_HAS_MEMCPY_MEMMOVE_INTRINSICS ^^^
; 123  : 
; 124  :         return _First1;

  00035	8b 45 08	 mov	 eax, DWORD PTR __First1$[ebp]

; 125  :     }

  00038	5f		 pop	 edi
  00039	5e		 pop	 esi
  0003a	5b		 pop	 ebx
  0003b	81 c4 c0 00 00
	00		 add	 esp, 192		; 000000c0H
  00041	3b ec		 cmp	 ebp, esp
  00043	e8 00 00 00 00	 call	 __RTC_CheckEsp
  00048	8b e5		 mov	 esp, ebp
  0004a	5d		 pop	 ebp
  0004b	c3		 ret	 0
?move@?$_Char_traits@DH@std@@SAPADQADQBDI@Z ENDP	; std::_Char_traits<char,int>::move
_TEXT	ENDS
; Function compile flags: /Odtp /RTCsu /ZI
; File C:\Program Files (x86)\Microsoft Visual Studio\2019\Community\VC\Tools\MSVC\14.29.30133\include\xstring
;	COMDAT ?copy@?$_Char_traits@DH@std@@SAPADQADQBDI@Z
_TEXT	SEGMENT
__First1$ = 8						; size = 4
__First2$ = 12						; size = 4
__Count$ = 16						; size = 4
?copy@?$_Char_traits@DH@std@@SAPADQADQBDI@Z PROC	; std::_Char_traits<char,int>::copy, COMDAT

; 48   :         _In_reads_(_Count) const _Elem* const _First2, const size_t _Count) noexcept /* strengthened */ {

  00000	55		 push	 ebp
  00001	8b ec		 mov	 ebp, esp
  00003	81 ec c0 00 00
	00		 sub	 esp, 192		; 000000c0H
  00009	53		 push	 ebx
  0000a	56		 push	 esi
  0000b	57		 push	 edi
  0000c	8b fd		 mov	 edi, ebp
  0000e	33 c9		 xor	 ecx, ecx
  00010	b8 cc cc cc cc	 mov	 eax, -858993460		; ccccccccH
  00015	f3 ab		 rep stosd
  00017	b9 00 00 00 00	 mov	 ecx, OFFSET __0D019051_xstring
  0001c	e8 00 00 00 00	 call	 @__CheckForDebuggerJustMyCode@4

; 49   :         // copy [_First2, _First2 + _Count) to [_First1, ...)
; 50   : #if _HAS_MEMCPY_MEMMOVE_INTRINSICS
; 51   :         __builtin_memcpy(_First1, _First2, _Count * sizeof(_Elem));
; 52   : #else // ^^^ _HAS_MEMCPY_MEMMOVE_INTRINSICS ^^^ / vvv !_HAS_MEMCPY_MEMMOVE_INTRINSICS vvv
; 53   : #ifdef __cpp_lib_is_constant_evaluated
; 54   :         if (_STD is_constant_evaluated()) {
; 55   :             // pre: [_First1, _First1 + _Count) and [_First2, _First2 + _Count) do not overlap; see LWG-3085
; 56   :             for (size_t _Idx = 0; _Idx < _Count; ++_Idx) {
; 57   :                 _First1[_Idx] = _First2[_Idx];
; 58   :             }
; 59   : 
; 60   :             return _First1;
; 61   :         }
; 62   : #endif // __cpp_lib_is_constant_evaluated
; 63   : 
; 64   :         _CSTD memcpy(_First1, _First2, _Count * sizeof(_Elem));

  00021	8b 45 10	 mov	 eax, DWORD PTR __Count$[ebp]
  00024	50		 push	 eax
  00025	8b 4d 0c	 mov	 ecx, DWORD PTR __First2$[ebp]
  00028	51		 push	 ecx
  00029	8b 55 08	 mov	 edx, DWORD PTR __First1$[ebp]
  0002c	52		 push	 edx
  0002d	e8 00 00 00 00	 call	 _memcpy
  00032	83 c4 0c	 add	 esp, 12			; 0000000cH

; 65   : #endif // ^^^ !_HAS_MEMCPY_MEMMOVE_INTRINSICS ^^^
; 66   : 
; 67   :         return _First1;

  00035	8b 45 08	 mov	 eax, DWORD PTR __First1$[ebp]

; 68   :     }

  00038	5f		 pop	 edi
  00039	5e		 pop	 esi
  0003a	5b		 pop	 ebx
  0003b	81 c4 c0 00 00
	00		 add	 esp, 192		; 000000c0H
  00041	3b ec		 cmp	 ebp, esp
  00043	e8 00 00 00 00	 call	 __RTC_CheckEsp
  00048	8b e5		 mov	 esp, ebp
  0004a	5d		 pop	 ebp
  0004b	c3		 ret	 0
?copy@?$_Char_traits@DH@std@@SAPADQADQBDI@Z ENDP	; std::_Char_traits<char,int>::copy
_TEXT	ENDS
; Function compile flags: /Odtp /RTCsu /ZI
; File C:\Program Files (x86)\Microsoft Visual Studio\2019\Community\VC\Tools\MSVC\14.29.30133\include\xutility
;	COMDAT ??$_Construct_in_place@U_Container_proxy@std@@PAU_Container_base12@2@@std@@YAXAAU_Container_proxy@0@$$QAPAU_Container_base12@0@@Z
_TEXT	SEGMENT
$T1 = -200						; size = 4
__Obj$ = 8						; size = 4
_<_Args_0>$ = 12					; size = 4
??$_Construct_in_place@U_Container_proxy@std@@PAU_Container_base12@2@@std@@YAXAAU_Container_proxy@0@$$QAPAU_Container_base12@0@@Z PROC ; std::_Construct_in_place<std::_Container_proxy,std::_Container_base12 *>, COMDAT

; 142  :     is_nothrow_constructible_v<_Ty, _Types...>) {

  00000	55		 push	 ebp
  00001	8b ec		 mov	 ebp, esp
  00003	81 ec cc 00 00
	00		 sub	 esp, 204		; 000000ccH
  00009	53		 push	 ebx
  0000a	56		 push	 esi
  0000b	57		 push	 edi
  0000c	8d 7d f4	 lea	 edi, DWORD PTR [ebp-12]
  0000f	b9 03 00 00 00	 mov	 ecx, 3
  00014	b8 cc cc cc cc	 mov	 eax, -858993460		; ccccccccH
  00019	f3 ab		 rep stosd
  0001b	b9 00 00 00 00	 mov	 ecx, OFFSET __12269DE6_xutility
  00020	e8 00 00 00 00	 call	 @__CheckForDebuggerJustMyCode@4
  00025	8b 45 08	 mov	 eax, DWORD PTR __Obj$[ebp]
  00028	50		 push	 eax
  00029	e8 00 00 00 00	 call	 ??$addressof@U_Container_proxy@std@@@std@@YAPAU_Container_proxy@0@AAU10@@Z ; std::addressof<std::_Container_proxy>
  0002e	83 c4 04	 add	 esp, 4
  00031	50		 push	 eax
  00032	e8 00 00 00 00	 call	 ??$_Voidify_iter@PAU_Container_proxy@std@@@std@@YAPAXPAU_Container_proxy@0@@Z ; std::_Voidify_iter<std::_Container_proxy *>
  00037	83 c4 04	 add	 esp, 4
  0003a	50		 push	 eax
  0003b	6a 08		 push	 8
  0003d	e8 00 00 00 00	 call	 ??2@YAPAXIPAX@Z		; operator new
  00042	83 c4 08	 add	 esp, 8
  00045	89 85 38 ff ff
	ff		 mov	 DWORD PTR $T1[ebp], eax
  0004b	8b 4d 0c	 mov	 ecx, DWORD PTR _<_Args_0>$[ebp]
  0004e	51		 push	 ecx
  0004f	e8 00 00 00 00	 call	 ??$forward@PAU_Container_base12@std@@@std@@YA$$QAPAU_Container_base12@0@AAPAU10@@Z ; std::forward<std::_Container_base12 *>
  00054	83 c4 04	 add	 esp, 4
  00057	8b 10		 mov	 edx, DWORD PTR [eax]
  00059	52		 push	 edx
  0005a	8b 8d 38 ff ff
	ff		 mov	 ecx, DWORD PTR $T1[ebp]
  00060	e8 00 00 00 00	 call	 ??0_Container_proxy@std@@QAE@PAU_Container_base12@1@@Z ; std::_Container_proxy::_Container_proxy

; 143  : #ifdef __cpp_lib_constexpr_dynamic_alloc
; 144  :     if (_STD is_constant_evaluated()) {
; 145  :         _STD construct_at(_STD addressof(_Obj), _STD forward<_Types>(_Args)...);
; 146  :     } else
; 147  : #endif // __cpp_lib_constexpr_dynamic_alloc
; 148  :     {
; 149  :         ::new (_Voidify_iter(_STD addressof(_Obj))) _Ty(_STD forward<_Types>(_Args)...);
; 150  :     }
; 151  : }

  00065	5f		 pop	 edi
  00066	5e		 pop	 esi
  00067	5b		 pop	 ebx
  00068	81 c4 cc 00 00
	00		 add	 esp, 204		; 000000ccH
  0006e	3b ec		 cmp	 ebp, esp
  00070	e8 00 00 00 00	 call	 __RTC_CheckEsp
  00075	8b e5		 mov	 esp, ebp
  00077	5d		 pop	 ebp
  00078	c3		 ret	 0
??$_Construct_in_place@U_Container_proxy@std@@PAU_Container_base12@2@@std@@YAXAAU_Container_proxy@0@$$QAPAU_Container_base12@0@@Z ENDP ; std::_Construct_in_place<std::_Container_proxy,std::_Container_base12 *>
_TEXT	ENDS
; Function compile flags: /Odtp /RTCsu /ZI
; File C:\Program Files (x86)\Microsoft Visual Studio\2019\Community\VC\Tools\MSVC\14.29.30133\include\xstddef
;	COMDAT ??$addressof@U_Container_base12@std@@@std@@YAPAU_Container_base12@0@AAU10@@Z
_TEXT	SEGMENT
__Val$ = 8						; size = 4
??$addressof@U_Container_base12@std@@@std@@YAPAU_Container_base12@0@AAU10@@Z PROC ; std::addressof<std::_Container_base12>, COMDAT

; 252  : _NODISCARD constexpr _Ty* addressof(_Ty& _Val) noexcept {

  00000	55		 push	 ebp
  00001	8b ec		 mov	 ebp, esp
  00003	81 ec c0 00 00
	00		 sub	 esp, 192		; 000000c0H
  00009	53		 push	 ebx
  0000a	56		 push	 esi
  0000b	57		 push	 edi
  0000c	8b fd		 mov	 edi, ebp
  0000e	33 c9		 xor	 ecx, ecx
  00010	b8 cc cc cc cc	 mov	 eax, -858993460		; ccccccccH
  00015	f3 ab		 rep stosd
  00017	b9 00 00 00 00	 mov	 ecx, OFFSET __E458E21C_xstddef
  0001c	e8 00 00 00 00	 call	 @__CheckForDebuggerJustMyCode@4

; 253  :     return __builtin_addressof(_Val);

  00021	8b 45 08	 mov	 eax, DWORD PTR __Val$[ebp]

; 254  : }

  00024	5f		 pop	 edi
  00025	5e		 pop	 esi
  00026	5b		 pop	 ebx
  00027	81 c4 c0 00 00
	00		 add	 esp, 192		; 000000c0H
  0002d	3b ec		 cmp	 ebp, esp
  0002f	e8 00 00 00 00	 call	 __RTC_CheckEsp
  00034	8b e5		 mov	 esp, ebp
  00036	5d		 pop	 ebp
  00037	c3		 ret	 0
??$addressof@U_Container_base12@std@@@std@@YAPAU_Container_base12@0@AAU10@@Z ENDP ; std::addressof<std::_Container_base12>
_TEXT	ENDS
; Function compile flags: /Odtp /RTCsu /ZI
; File C:\Program Files (x86)\Microsoft Visual Studio\2019\Community\VC\Tools\MSVC\14.29.30133\include\xmemory
;	COMDAT ??0_Basic_container_proxy_ptr12@std@@IAE@XZ
_TEXT	SEGMENT
_this$ = -8						; size = 4
??0_Basic_container_proxy_ptr12@std@@IAE@XZ PROC	; std::_Basic_container_proxy_ptr12::_Basic_container_proxy_ptr12, COMDAT
; _this$ = ecx

; 1265 :     _CONSTEXPR20_CONTAINER _Basic_container_proxy_ptr12()             = default;

  00000	55		 push	 ebp
  00001	8b ec		 mov	 ebp, esp
  00003	81 ec cc 00 00
	00		 sub	 esp, 204		; 000000ccH
  00009	53		 push	 ebx
  0000a	56		 push	 esi
  0000b	57		 push	 edi
  0000c	51		 push	 ecx
  0000d	8d 7d f4	 lea	 edi, DWORD PTR [ebp-12]
  00010	b9 03 00 00 00	 mov	 ecx, 3
  00015	b8 cc cc cc cc	 mov	 eax, -858993460		; ccccccccH
  0001a	f3 ab		 rep stosd
  0001c	59		 pop	 ecx
  0001d	89 4d f8	 mov	 DWORD PTR _this$[ebp], ecx
  00020	b9 00 00 00 00	 mov	 ecx, OFFSET __79D216CD_xmemory
  00025	e8 00 00 00 00	 call	 @__CheckForDebuggerJustMyCode@4

; 1258 :     _Container_proxy* _Ptr = nullptr;

  0002a	8b 45 f8	 mov	 eax, DWORD PTR _this$[ebp]
  0002d	c7 00 00 00 00
	00		 mov	 DWORD PTR [eax], 0

; 1265 :     _CONSTEXPR20_CONTAINER _Basic_container_proxy_ptr12()             = default;

  00033	8b 45 f8	 mov	 eax, DWORD PTR _this$[ebp]
  00036	5f		 pop	 edi
  00037	5e		 pop	 esi
  00038	5b		 pop	 ebx
  00039	81 c4 cc 00 00
	00		 add	 esp, 204		; 000000ccH
  0003f	3b ec		 cmp	 ebp, esp
  00041	e8 00 00 00 00	 call	 __RTC_CheckEsp
  00046	8b e5		 mov	 esp, ebp
  00048	5d		 pop	 ebp
  00049	c3		 ret	 0
??0_Basic_container_proxy_ptr12@std@@IAE@XZ ENDP	; std::_Basic_container_proxy_ptr12::_Basic_container_proxy_ptr12
_TEXT	ENDS
; Function compile flags: /Odtp /RTCsu /ZI
; File C:\Program Files (x86)\Microsoft Visual Studio\2019\Community\VC\Tools\MSVC\14.29.30133\include\xmemory
;	COMDAT ?_Release@_Basic_container_proxy_ptr12@std@@QAEXXZ
_TEXT	SEGMENT
_this$ = -8						; size = 4
?_Release@_Basic_container_proxy_ptr12@std@@QAEXXZ PROC	; std::_Basic_container_proxy_ptr12::_Release, COMDAT
; _this$ = ecx

; 1260 :     constexpr void _Release() noexcept { // disengage this _Basic_container_proxy_ptr12

  00000	55		 push	 ebp
  00001	8b ec		 mov	 ebp, esp
  00003	81 ec cc 00 00
	00		 sub	 esp, 204		; 000000ccH
  00009	53		 push	 ebx
  0000a	56		 push	 esi
  0000b	57		 push	 edi
  0000c	51		 push	 ecx
  0000d	8d 7d f4	 lea	 edi, DWORD PTR [ebp-12]
  00010	b9 03 00 00 00	 mov	 ecx, 3
  00015	b8 cc cc cc cc	 mov	 eax, -858993460		; ccccccccH
  0001a	f3 ab		 rep stosd
  0001c	59		 pop	 ecx
  0001d	89 4d f8	 mov	 DWORD PTR _this$[ebp], ecx
  00020	b9 00 00 00 00	 mov	 ecx, OFFSET __79D216CD_xmemory
  00025	e8 00 00 00 00	 call	 @__CheckForDebuggerJustMyCode@4

; 1261 :         _Ptr = nullptr;

  0002a	8b 45 f8	 mov	 eax, DWORD PTR _this$[ebp]
  0002d	c7 00 00 00 00
	00		 mov	 DWORD PTR [eax], 0

; 1262 :     }

  00033	5f		 pop	 edi
  00034	5e		 pop	 esi
  00035	5b		 pop	 ebx
  00036	81 c4 cc 00 00
	00		 add	 esp, 204		; 000000ccH
  0003c	3b ec		 cmp	 ebp, esp
  0003e	e8 00 00 00 00	 call	 __RTC_CheckEsp
  00043	8b e5		 mov	 esp, ebp
  00045	5d		 pop	 ebp
  00046	c3		 ret	 0
?_Release@_Basic_container_proxy_ptr12@std@@QAEXXZ ENDP	; std::_Basic_container_proxy_ptr12::_Release
_TEXT	ENDS
; Function compile flags: /Odtp /RTCsu /ZI
; File C:\Program Files (x86)\Microsoft Visual Studio\2019\Community\VC\Tools\MSVC\14.29.30133\include\xmemory
;	COMDAT ?_Swap_proxy_and_iterators_locked@_Container_base12@std@@AAEXAAU12@@Z
_TEXT	SEGMENT
__Lock$ = -24						; size = 4
_this$ = -12						; size = 4
__$ArrayPad$ = -4					; size = 4
__Right$ = 8						; size = 4
?_Swap_proxy_and_iterators_locked@_Container_base12@std@@AAEXAAU12@@Z PROC ; std::_Container_base12::_Swap_proxy_and_iterators_locked, COMDAT
; _this$ = ecx

; 1044 :     void _Swap_proxy_and_iterators_locked(_Container_base12& _Right) noexcept {

  00000	55		 push	 ebp
  00001	8b ec		 mov	 ebp, esp
  00003	81 ec dc 00 00
	00		 sub	 esp, 220		; 000000dcH
  00009	53		 push	 ebx
  0000a	56		 push	 esi
  0000b	57		 push	 edi
  0000c	51		 push	 ecx
  0000d	8d 7d e4	 lea	 edi, DWORD PTR [ebp-28]
  00010	b9 07 00 00 00	 mov	 ecx, 7
  00015	b8 cc cc cc cc	 mov	 eax, -858993460		; ccccccccH
  0001a	f3 ab		 rep stosd
  0001c	59		 pop	 ecx
  0001d	a1 00 00 00 00	 mov	 eax, DWORD PTR ___security_cookie
  00022	33 c5		 xor	 eax, ebp
  00024	89 45 fc	 mov	 DWORD PTR __$ArrayPad$[ebp], eax
  00027	89 4d f4	 mov	 DWORD PTR _this$[ebp], ecx
  0002a	b9 00 00 00 00	 mov	 ecx, OFFSET __79D216CD_xmemory
  0002f	e8 00 00 00 00	 call	 @__CheckForDebuggerJustMyCode@4

; 1045 :         _Lockit _Lock(_LOCK_DEBUG);

  00034	8b f4		 mov	 esi, esp
  00036	6a 03		 push	 3
  00038	8d 4d e8	 lea	 ecx, DWORD PTR __Lock$[ebp]
  0003b	ff 15 00 00 00
	00		 call	 DWORD PTR __imp_??0_Lockit@std@@QAE@H@Z
  00041	3b f4		 cmp	 esi, esp
  00043	e8 00 00 00 00	 call	 __RTC_CheckEsp

; 1046 :         _Swap_proxy_and_iterators_unlocked(_Right);

  00048	8b 45 08	 mov	 eax, DWORD PTR __Right$[ebp]
  0004b	50		 push	 eax
  0004c	8b 4d f4	 mov	 ecx, DWORD PTR _this$[ebp]
  0004f	e8 00 00 00 00	 call	 ?_Swap_proxy_and_iterators_unlocked@_Container_base12@std@@AAEXAAU12@@Z ; std::_Container_base12::_Swap_proxy_and_iterators_unlocked

; 1047 :     }

  00054	8b f4		 mov	 esi, esp
  00056	8d 4d e8	 lea	 ecx, DWORD PTR __Lock$[ebp]
  00059	ff 15 00 00 00
	00		 call	 DWORD PTR __imp_??1_Lockit@std@@QAE@XZ
  0005f	3b f4		 cmp	 esi, esp
  00061	e8 00 00 00 00	 call	 __RTC_CheckEsp
  00066	52		 push	 edx
  00067	8b cd		 mov	 ecx, ebp
  00069	50		 push	 eax
  0006a	8d 15 00 00 00
	00		 lea	 edx, DWORD PTR $LN5@Swap_proxy
  00070	e8 00 00 00 00	 call	 @_RTC_CheckStackVars@8
  00075	58		 pop	 eax
  00076	5a		 pop	 edx
  00077	5f		 pop	 edi
  00078	5e		 pop	 esi
  00079	5b		 pop	 ebx
  0007a	8b 4d fc	 mov	 ecx, DWORD PTR __$ArrayPad$[ebp]
  0007d	33 cd		 xor	 ecx, ebp
  0007f	e8 00 00 00 00	 call	 @__security_check_cookie@4
  00084	81 c4 dc 00 00
	00		 add	 esp, 220		; 000000dcH
  0008a	3b ec		 cmp	 ebp, esp
  0008c	e8 00 00 00 00	 call	 __RTC_CheckEsp
  00091	8b e5		 mov	 esp, ebp
  00093	5d		 pop	 ebp
  00094	c2 04 00	 ret	 4
  00097	90		 npad	 1
$LN5@Swap_proxy:
  00098	01 00 00 00	 DD	 1
  0009c	00 00 00 00	 DD	 $LN4@Swap_proxy
$LN4@Swap_proxy:
  000a0	e8 ff ff ff	 DD	 -24			; ffffffe8H
  000a4	04 00 00 00	 DD	 4
  000a8	00 00 00 00	 DD	 $LN3@Swap_proxy
$LN3@Swap_proxy:
  000ac	5f		 DB	 95			; 0000005fH
  000ad	4c		 DB	 76			; 0000004cH
  000ae	6f		 DB	 111			; 0000006fH
  000af	63		 DB	 99			; 00000063H
  000b0	6b		 DB	 107			; 0000006bH
  000b1	00		 DB	 0
?_Swap_proxy_and_iterators_locked@_Container_base12@std@@AAEXAAU12@@Z ENDP ; std::_Container_base12::_Swap_proxy_and_iterators_locked
_TEXT	ENDS
; Function compile flags: /Odtp /RTCsu /ZI
; File C:\Program Files (x86)\Microsoft Visual Studio\2019\Community\VC\Tools\MSVC\14.29.30133\include\xmemory
;	COMDAT ?_Orphan_all_locked_v3@_Container_base12@std@@AAEXXZ
_TEXT	SEGMENT
__Lock$ = -24						; size = 4
_this$ = -12						; size = 4
__$ArrayPad$ = -4					; size = 4
?_Orphan_all_locked_v3@_Container_base12@std@@AAEXXZ PROC ; std::_Container_base12::_Orphan_all_locked_v3, COMDAT
; _this$ = ecx

; 1039 :     void _Orphan_all_locked_v3() noexcept {

  00000	55		 push	 ebp
  00001	8b ec		 mov	 ebp, esp
  00003	81 ec dc 00 00
	00		 sub	 esp, 220		; 000000dcH
  00009	53		 push	 ebx
  0000a	56		 push	 esi
  0000b	57		 push	 edi
  0000c	51		 push	 ecx
  0000d	8d 7d e4	 lea	 edi, DWORD PTR [ebp-28]
  00010	b9 07 00 00 00	 mov	 ecx, 7
  00015	b8 cc cc cc cc	 mov	 eax, -858993460		; ccccccccH
  0001a	f3 ab		 rep stosd
  0001c	59		 pop	 ecx
  0001d	a1 00 00 00 00	 mov	 eax, DWORD PTR ___security_cookie
  00022	33 c5		 xor	 eax, ebp
  00024	89 45 fc	 mov	 DWORD PTR __$ArrayPad$[ebp], eax
  00027	89 4d f4	 mov	 DWORD PTR _this$[ebp], ecx
  0002a	b9 00 00 00 00	 mov	 ecx, OFFSET __79D216CD_xmemory
  0002f	e8 00 00 00 00	 call	 @__CheckForDebuggerJustMyCode@4

; 1040 :         _Lockit _Lock(_LOCK_DEBUG);

  00034	8b f4		 mov	 esi, esp
  00036	6a 03		 push	 3
  00038	8d 4d e8	 lea	 ecx, DWORD PTR __Lock$[ebp]
  0003b	ff 15 00 00 00
	00		 call	 DWORD PTR __imp_??0_Lockit@std@@QAE@H@Z
  00041	3b f4		 cmp	 esi, esp
  00043	e8 00 00 00 00	 call	 __RTC_CheckEsp

; 1041 :         _Orphan_all_unlocked_v3();

  00048	8b 4d f4	 mov	 ecx, DWORD PTR _this$[ebp]
  0004b	e8 00 00 00 00	 call	 ?_Orphan_all_unlocked_v3@_Container_base12@std@@AAEXXZ ; std::_Container_base12::_Orphan_all_unlocked_v3

; 1042 :     }

  00050	8b f4		 mov	 esi, esp
  00052	8d 4d e8	 lea	 ecx, DWORD PTR __Lock$[ebp]
  00055	ff 15 00 00 00
	00		 call	 DWORD PTR __imp_??1_Lockit@std@@QAE@XZ
  0005b	3b f4		 cmp	 esi, esp
  0005d	e8 00 00 00 00	 call	 __RTC_CheckEsp
  00062	52		 push	 edx
  00063	8b cd		 mov	 ecx, ebp
  00065	50		 push	 eax
  00066	8d 15 00 00 00
	00		 lea	 edx, DWORD PTR $LN5@Orphan_all
  0006c	e8 00 00 00 00	 call	 @_RTC_CheckStackVars@8
  00071	58		 pop	 eax
  00072	5a		 pop	 edx
  00073	5f		 pop	 edi
  00074	5e		 pop	 esi
  00075	5b		 pop	 ebx
  00076	8b 4d fc	 mov	 ecx, DWORD PTR __$ArrayPad$[ebp]
  00079	33 cd		 xor	 ecx, ebp
  0007b	e8 00 00 00 00	 call	 @__security_check_cookie@4
  00080	81 c4 dc 00 00
	00		 add	 esp, 220		; 000000dcH
  00086	3b ec		 cmp	 ebp, esp
  00088	e8 00 00 00 00	 call	 __RTC_CheckEsp
  0008d	8b e5		 mov	 esp, ebp
  0008f	5d		 pop	 ebp
  00090	c3		 ret	 0
  00091	0f 1f 00	 npad	 3
$LN5@Orphan_all:
  00094	01 00 00 00	 DD	 1
  00098	00 00 00 00	 DD	 $LN4@Orphan_all
$LN4@Orphan_all:
  0009c	e8 ff ff ff	 DD	 -24			; ffffffe8H
  000a0	04 00 00 00	 DD	 4
  000a4	00 00 00 00	 DD	 $LN3@Orphan_all
$LN3@Orphan_all:
  000a8	5f		 DB	 95			; 0000005fH
  000a9	4c		 DB	 76			; 0000004cH
  000aa	6f		 DB	 111			; 0000006fH
  000ab	63		 DB	 99			; 00000063H
  000ac	6b		 DB	 107			; 0000006bH
  000ad	00		 DB	 0
?_Orphan_all_locked_v3@_Container_base12@std@@AAEXXZ ENDP ; std::_Container_base12::_Orphan_all_locked_v3
_TEXT	ENDS
; Function compile flags: /Odtp /RTCsu /ZI
; File C:\Program Files (x86)\Microsoft Visual Studio\2019\Community\VC\Tools\MSVC\14.29.30133\include\xmemory
;	COMDAT ?_Swap_proxy_and_iterators_unlocked@_Container_base12@std@@AAEXAAU12@@Z
_TEXT	SEGMENT
__Temp$ = -20						; size = 4
_this$ = -8						; size = 4
__Right$ = 8						; size = 4
?_Swap_proxy_and_iterators_unlocked@_Container_base12@std@@AAEXAAU12@@Z PROC ; std::_Container_base12::_Swap_proxy_and_iterators_unlocked, COMDAT
; _this$ = ecx

; 1205 : _CONSTEXPR20_CONTAINER void _Container_base12::_Swap_proxy_and_iterators_unlocked(_Container_base12& _Right) noexcept {

  00000	55		 push	 ebp
  00001	8b ec		 mov	 ebp, esp
  00003	81 ec d8 00 00
	00		 sub	 esp, 216		; 000000d8H
  00009	53		 push	 ebx
  0000a	56		 push	 esi
  0000b	57		 push	 edi
  0000c	51		 push	 ecx
  0000d	8d 7d e8	 lea	 edi, DWORD PTR [ebp-24]
  00010	b9 06 00 00 00	 mov	 ecx, 6
  00015	b8 cc cc cc cc	 mov	 eax, -858993460		; ccccccccH
  0001a	f3 ab		 rep stosd
  0001c	59		 pop	 ecx
  0001d	89 4d f8	 mov	 DWORD PTR _this$[ebp], ecx
  00020	b9 00 00 00 00	 mov	 ecx, OFFSET __79D216CD_xmemory
  00025	e8 00 00 00 00	 call	 @__CheckForDebuggerJustMyCode@4

; 1206 :     _Container_proxy* _Temp = _Myproxy;

  0002a	8b 45 f8	 mov	 eax, DWORD PTR _this$[ebp]
  0002d	8b 08		 mov	 ecx, DWORD PTR [eax]
  0002f	89 4d ec	 mov	 DWORD PTR __Temp$[ebp], ecx

; 1207 :     _Myproxy                = _Right._Myproxy;

  00032	8b 45 f8	 mov	 eax, DWORD PTR _this$[ebp]
  00035	8b 4d 08	 mov	 ecx, DWORD PTR __Right$[ebp]
  00038	8b 11		 mov	 edx, DWORD PTR [ecx]
  0003a	89 10		 mov	 DWORD PTR [eax], edx

; 1208 :     _Right._Myproxy         = _Temp;

  0003c	8b 45 08	 mov	 eax, DWORD PTR __Right$[ebp]
  0003f	8b 4d ec	 mov	 ecx, DWORD PTR __Temp$[ebp]
  00042	89 08		 mov	 DWORD PTR [eax], ecx

; 1209 : 
; 1210 :     if (_Myproxy) {

  00044	8b 45 f8	 mov	 eax, DWORD PTR _this$[ebp]
  00047	83 38 00	 cmp	 DWORD PTR [eax], 0
  0004a	74 0a		 je	 SHORT $LN2@Swap_proxy

; 1211 :         _Myproxy->_Mycont = this;

  0004c	8b 45 f8	 mov	 eax, DWORD PTR _this$[ebp]
  0004f	8b 08		 mov	 ecx, DWORD PTR [eax]
  00051	8b 55 f8	 mov	 edx, DWORD PTR _this$[ebp]
  00054	89 11		 mov	 DWORD PTR [ecx], edx
$LN2@Swap_proxy:

; 1212 :     }
; 1213 : 
; 1214 :     if (_Right._Myproxy) {

  00056	8b 45 08	 mov	 eax, DWORD PTR __Right$[ebp]
  00059	83 38 00	 cmp	 DWORD PTR [eax], 0
  0005c	74 0a		 je	 SHORT $LN4@Swap_proxy

; 1215 :         _Right._Myproxy->_Mycont = &_Right;

  0005e	8b 45 08	 mov	 eax, DWORD PTR __Right$[ebp]
  00061	8b 08		 mov	 ecx, DWORD PTR [eax]
  00063	8b 55 08	 mov	 edx, DWORD PTR __Right$[ebp]
  00066	89 11		 mov	 DWORD PTR [ecx], edx
$LN4@Swap_proxy:

; 1216 :     }
; 1217 : }

  00068	5f		 pop	 edi
  00069	5e		 pop	 esi
  0006a	5b		 pop	 ebx
  0006b	81 c4 d8 00 00
	00		 add	 esp, 216		; 000000d8H
  00071	3b ec		 cmp	 ebp, esp
  00073	e8 00 00 00 00	 call	 __RTC_CheckEsp
  00078	8b e5		 mov	 esp, ebp
  0007a	5d		 pop	 ebp
  0007b	c2 04 00	 ret	 4
?_Swap_proxy_and_iterators_unlocked@_Container_base12@std@@AAEXAAU12@@Z ENDP ; std::_Container_base12::_Swap_proxy_and_iterators_unlocked
_TEXT	ENDS
; Function compile flags: /Odtp /RTCsu /ZI
; File C:\Program Files (x86)\Microsoft Visual Studio\2019\Community\VC\Tools\MSVC\14.29.30133\include\xmemory
;	COMDAT ?_Orphan_all_unlocked_v3@_Container_base12@std@@AAEXXZ
_TEXT	SEGMENT
__Pnext$1 = -20						; size = 4
_this$ = -8						; size = 4
?_Orphan_all_unlocked_v3@_Container_base12@std@@AAEXXZ PROC ; std::_Container_base12::_Orphan_all_unlocked_v3, COMDAT
; _this$ = ecx

; 1180 : _CONSTEXPR20_CONTAINER void _Container_base12::_Orphan_all_unlocked_v3() noexcept {

  00000	55		 push	 ebp
  00001	8b ec		 mov	 ebp, esp
  00003	81 ec d8 00 00
	00		 sub	 esp, 216		; 000000d8H
  00009	53		 push	 ebx
  0000a	56		 push	 esi
  0000b	57		 push	 edi
  0000c	51		 push	 ecx
  0000d	8d 7d e8	 lea	 edi, DWORD PTR [ebp-24]
  00010	b9 06 00 00 00	 mov	 ecx, 6
  00015	b8 cc cc cc cc	 mov	 eax, -858993460		; ccccccccH
  0001a	f3 ab		 rep stosd
  0001c	59		 pop	 ecx
  0001d	89 4d f8	 mov	 DWORD PTR _this$[ebp], ecx
  00020	b9 00 00 00 00	 mov	 ecx, OFFSET __79D216CD_xmemory
  00025	e8 00 00 00 00	 call	 @__CheckForDebuggerJustMyCode@4

; 1181 :     if (!_Myproxy) { // no proxy, already done

  0002a	8b 45 f8	 mov	 eax, DWORD PTR _this$[ebp]
  0002d	83 38 00	 cmp	 DWORD PTR [eax], 0
  00030	75 02		 jne	 SHORT $LN5@Orphan_all

; 1182 :         return;

  00032	eb 3b		 jmp	 SHORT $LN6@Orphan_all
$LN5@Orphan_all:

; 1183 :     }
; 1184 : 
; 1185 :     // proxy allocated, drain it
; 1186 :     for (auto& _Pnext = _Myproxy->_Myfirstiter; _Pnext; _Pnext = _Pnext->_Mynextiter) { // TRANSITION, VSO-1269037

  00034	8b 45 f8	 mov	 eax, DWORD PTR _this$[ebp]
  00037	8b 08		 mov	 ecx, DWORD PTR [eax]
  00039	83 c1 04	 add	 ecx, 4
  0003c	89 4d ec	 mov	 DWORD PTR __Pnext$1[ebp], ecx
  0003f	eb 0d		 jmp	 SHORT $LN4@Orphan_all
$LN2@Orphan_all:
  00041	8b 45 ec	 mov	 eax, DWORD PTR __Pnext$1[ebp]
  00044	8b 08		 mov	 ecx, DWORD PTR [eax]
  00046	8b 55 ec	 mov	 edx, DWORD PTR __Pnext$1[ebp]
  00049	8b 41 04	 mov	 eax, DWORD PTR [ecx+4]
  0004c	89 02		 mov	 DWORD PTR [edx], eax
$LN4@Orphan_all:
  0004e	8b 45 ec	 mov	 eax, DWORD PTR __Pnext$1[ebp]
  00051	83 38 00	 cmp	 DWORD PTR [eax], 0
  00054	74 0d		 je	 SHORT $LN3@Orphan_all

; 1187 :         _Pnext->_Myproxy = nullptr;

  00056	8b 45 ec	 mov	 eax, DWORD PTR __Pnext$1[ebp]
  00059	8b 08		 mov	 ecx, DWORD PTR [eax]
  0005b	c7 01 00 00 00
	00		 mov	 DWORD PTR [ecx], 0

; 1188 :     }

  00061	eb de		 jmp	 SHORT $LN2@Orphan_all
$LN3@Orphan_all:

; 1189 :     _Myproxy->_Myfirstiter = nullptr;

  00063	8b 45 f8	 mov	 eax, DWORD PTR _this$[ebp]
  00066	8b 08		 mov	 ecx, DWORD PTR [eax]
  00068	c7 41 04 00 00
	00 00		 mov	 DWORD PTR [ecx+4], 0
$LN6@Orphan_all:

; 1190 : }

  0006f	5f		 pop	 edi
  00070	5e		 pop	 esi
  00071	5b		 pop	 ebx
  00072	81 c4 d8 00 00
	00		 add	 esp, 216		; 000000d8H
  00078	3b ec		 cmp	 ebp, esp
  0007a	e8 00 00 00 00	 call	 __RTC_CheckEsp
  0007f	8b e5		 mov	 esp, ebp
  00081	5d		 pop	 ebp
  00082	c3		 ret	 0
?_Orphan_all_unlocked_v3@_Container_base12@std@@AAEXXZ ENDP ; std::_Container_base12::_Orphan_all_unlocked_v3
_TEXT	ENDS
; Function compile flags: /Odtp /RTCsu /ZI
; File C:\Program Files (x86)\Microsoft Visual Studio\2019\Community\VC\Tools\MSVC\14.29.30133\include\xmemory
;	COMDAT ?_Swap_proxy_and_iterators@_Container_base12@std@@QAEXAAU12@@Z
_TEXT	SEGMENT
_this$ = -8						; size = 4
__Right$ = 8						; size = 4
?_Swap_proxy_and_iterators@_Container_base12@std@@QAEXAAU12@@Z PROC ; std::_Container_base12::_Swap_proxy_and_iterators, COMDAT
; _this$ = ecx

; 1219 : _CONSTEXPR20_CONTAINER void _Container_base12::_Swap_proxy_and_iterators(_Container_base12& _Right) noexcept {

  00000	55		 push	 ebp
  00001	8b ec		 mov	 ebp, esp
  00003	81 ec cc 00 00
	00		 sub	 esp, 204		; 000000ccH
  00009	53		 push	 ebx
  0000a	56		 push	 esi
  0000b	57		 push	 edi
  0000c	51		 push	 ecx
  0000d	8d 7d f4	 lea	 edi, DWORD PTR [ebp-12]
  00010	b9 03 00 00 00	 mov	 ecx, 3
  00015	b8 cc cc cc cc	 mov	 eax, -858993460		; ccccccccH
  0001a	f3 ab		 rep stosd
  0001c	59		 pop	 ecx
  0001d	89 4d f8	 mov	 DWORD PTR _this$[ebp], ecx
  00020	b9 00 00 00 00	 mov	 ecx, OFFSET __79D216CD_xmemory
  00025	e8 00 00 00 00	 call	 @__CheckForDebuggerJustMyCode@4

; 1220 : #if _ITERATOR_DEBUG_LEVEL == 2
; 1221 : #ifdef __cpp_lib_constexpr_dynamic_alloc
; 1222 :     if (_STD is_constant_evaluated()) {
; 1223 :         _Swap_proxy_and_iterators_unlocked(_Right);
; 1224 :     } else
; 1225 : #endif // __cpp_lib_constexpr_dynamic_alloc
; 1226 :     {
; 1227 :         _Swap_proxy_and_iterators_locked(_Right);

  0002a	8b 45 08	 mov	 eax, DWORD PTR __Right$[ebp]
  0002d	50		 push	 eax
  0002e	8b 4d f8	 mov	 ecx, DWORD PTR _this$[ebp]
  00031	e8 00 00 00 00	 call	 ?_Swap_proxy_and_iterators_locked@_Container_base12@std@@AAEXAAU12@@Z ; std::_Container_base12::_Swap_proxy_and_iterators_locked

; 1228 :     }
; 1229 : #else // ^^^ _ITERATOR_DEBUG_LEVEL == 2 ^^^ / vvv _ITERATOR_DEBUG_LEVEL != 2 vvv
; 1230 :     _Swap_proxy_and_iterators_unlocked(_Right);
; 1231 : #endif // _ITERATOR_DEBUG_LEVEL != 2
; 1232 : }

  00036	5f		 pop	 edi
  00037	5e		 pop	 esi
  00038	5b		 pop	 ebx
  00039	81 c4 cc 00 00
	00		 add	 esp, 204		; 000000ccH
  0003f	3b ec		 cmp	 ebp, esp
  00041	e8 00 00 00 00	 call	 __RTC_CheckEsp
  00046	8b e5		 mov	 esp, ebp
  00048	5d		 pop	 ebp
  00049	c2 04 00	 ret	 4
?_Swap_proxy_and_iterators@_Container_base12@std@@QAEXAAU12@@Z ENDP ; std::_Container_base12::_Swap_proxy_and_iterators
_TEXT	ENDS
; Function compile flags: /Odtp /RTCsu /ZI
; File C:\Program Files (x86)\Microsoft Visual Studio\2019\Community\VC\Tools\MSVC\14.29.30133\include\xmemory
;	COMDAT ?_Orphan_all@_Container_base12@std@@QAEXXZ
_TEXT	SEGMENT
_this$ = -8						; size = 4
?_Orphan_all@_Container_base12@std@@QAEXXZ PROC		; std::_Container_base12::_Orphan_all, COMDAT
; _this$ = ecx

; 1192 : _CONSTEXPR20_CONTAINER void _Container_base12::_Orphan_all() noexcept {

  00000	55		 push	 ebp
  00001	8b ec		 mov	 ebp, esp
  00003	81 ec cc 00 00
	00		 sub	 esp, 204		; 000000ccH
  00009	53		 push	 ebx
  0000a	56		 push	 esi
  0000b	57		 push	 edi
  0000c	51		 push	 ecx
  0000d	8d 7d f4	 lea	 edi, DWORD PTR [ebp-12]
  00010	b9 03 00 00 00	 mov	 ecx, 3
  00015	b8 cc cc cc cc	 mov	 eax, -858993460		; ccccccccH
  0001a	f3 ab		 rep stosd
  0001c	59		 pop	 ecx
  0001d	89 4d f8	 mov	 DWORD PTR _this$[ebp], ecx
  00020	b9 00 00 00 00	 mov	 ecx, OFFSET __79D216CD_xmemory
  00025	e8 00 00 00 00	 call	 @__CheckForDebuggerJustMyCode@4

; 1193 : #if _ITERATOR_DEBUG_LEVEL == 2
; 1194 : #ifdef __cpp_lib_constexpr_dynamic_alloc
; 1195 :     if (_STD is_constant_evaluated()) {
; 1196 :         _Orphan_all_unlocked_v3();
; 1197 :     } else
; 1198 : #endif // __cpp_lib_constexpr_dynamic_alloc
; 1199 :     {
; 1200 :         _Orphan_all_locked_v3();

  0002a	8b 4d f8	 mov	 ecx, DWORD PTR _this$[ebp]
  0002d	e8 00 00 00 00	 call	 ?_Orphan_all_locked_v3@_Container_base12@std@@AAEXXZ ; std::_Container_base12::_Orphan_all_locked_v3

; 1201 :     }
; 1202 : #endif // _ITERATOR_DEBUG_LEVEL == 2
; 1203 : }

  00032	5f		 pop	 edi
  00033	5e		 pop	 esi
  00034	5b		 pop	 ebx
  00035	81 c4 cc 00 00
	00		 add	 esp, 204		; 000000ccH
  0003b	3b ec		 cmp	 ebp, esp
  0003d	e8 00 00 00 00	 call	 __RTC_CheckEsp
  00042	8b e5		 mov	 esp, ebp
  00044	5d		 pop	 ebp
  00045	c3		 ret	 0
?_Orphan_all@_Container_base12@std@@QAEXXZ ENDP		; std::_Container_base12::_Orphan_all
_TEXT	ENDS
; Function compile flags: /Odtp /RTCsu /ZI
; File C:\Program Files (x86)\Microsoft Visual Studio\2019\Community\VC\Tools\MSVC\14.29.30133\include\xmemory
;	COMDAT ??0_Container_base12@std@@QAE@XZ
_TEXT	SEGMENT
_this$ = -8						; size = 4
??0_Container_base12@std@@QAE@XZ PROC			; std::_Container_base12::_Container_base12, COMDAT
; _this$ = ecx

; 1008 :     _CONSTEXPR20_CONTAINER _Container_base12() noexcept = default;

  00000	55		 push	 ebp
  00001	8b ec		 mov	 ebp, esp
  00003	81 ec cc 00 00
	00		 sub	 esp, 204		; 000000ccH
  00009	53		 push	 ebx
  0000a	56		 push	 esi
  0000b	57		 push	 edi
  0000c	51		 push	 ecx
  0000d	8d 7d f4	 lea	 edi, DWORD PTR [ebp-12]
  00010	b9 03 00 00 00	 mov	 ecx, 3
  00015	b8 cc cc cc cc	 mov	 eax, -858993460		; ccccccccH
  0001a	f3 ab		 rep stosd
  0001c	59		 pop	 ecx
  0001d	89 4d f8	 mov	 DWORD PTR _this$[ebp], ecx
  00020	b9 00 00 00 00	 mov	 ecx, OFFSET __79D216CD_xmemory
  00025	e8 00 00 00 00	 call	 @__CheckForDebuggerJustMyCode@4

; 1009 : 
; 1010 :     _Container_base12(const _Container_base12&) = delete;
; 1011 :     _Container_base12& operator=(const _Container_base12&) = delete;
; 1012 : 
; 1013 :     _CONSTEXPR20_CONTAINER void _Orphan_all() noexcept;
; 1014 :     _CONSTEXPR20_CONTAINER void _Swap_proxy_and_iterators(_Container_base12&) noexcept;
; 1015 : 
; 1016 :     template <class _Alloc>
; 1017 :     _CONSTEXPR20_CONTAINER void _Alloc_proxy(_Alloc&& _Al) {
; 1018 :         _Container_proxy* const _New_proxy = _Unfancy(_Al.allocate(1));
; 1019 :         _Construct_in_place(*_New_proxy, this);
; 1020 :         _Myproxy            = _New_proxy;
; 1021 :         _New_proxy->_Mycont = this;
; 1022 :     }
; 1023 : 
; 1024 :     template <class _Alloc>
; 1025 :     _CONSTEXPR20_CONTAINER void _Reload_proxy(_Alloc&& _Old_alloc, _Alloc&& _New_alloc) {
; 1026 :         // pre: no iterators refer to the existing proxy
; 1027 :         _Container_proxy* const _New_proxy = _Unfancy(_New_alloc.allocate(1));
; 1028 :         _Construct_in_place(*_New_proxy, this);
; 1029 :         _New_proxy->_Mycont = this;
; 1030 :         _Delete_plain_internal(_Old_alloc, _STD exchange(_Myproxy, _New_proxy));
; 1031 :     }
; 1032 : 
; 1033 :     _Container_proxy* _Myproxy = nullptr;

  0002a	8b 45 f8	 mov	 eax, DWORD PTR _this$[ebp]
  0002d	c7 00 00 00 00
	00		 mov	 DWORD PTR [eax], 0

; 1008 :     _CONSTEXPR20_CONTAINER _Container_base12() noexcept = default;

  00033	8b 45 f8	 mov	 eax, DWORD PTR _this$[ebp]
  00036	5f		 pop	 edi
  00037	5e		 pop	 esi
  00038	5b		 pop	 ebx
  00039	81 c4 cc 00 00
	00		 add	 esp, 204		; 000000ccH
  0003f	3b ec		 cmp	 ebp, esp
  00041	e8 00 00 00 00	 call	 __RTC_CheckEsp
  00046	8b e5		 mov	 esp, ebp
  00048	5d		 pop	 ebp
  00049	c3		 ret	 0
??0_Container_base12@std@@QAE@XZ ENDP			; std::_Container_base12::_Container_base12
_TEXT	ENDS
; Function compile flags: /Odtp /RTCsu /ZI
; File C:\Program Files (x86)\Microsoft Visual Studio\2019\Community\VC\Tools\MSVC\14.29.30133\include\xmemory
;	COMDAT ??0_Container_proxy@std@@QAE@PAU_Container_base12@1@@Z
_TEXT	SEGMENT
_this$ = -8						; size = 4
__Mycont_$ = 8						; size = 4
??0_Container_proxy@std@@QAE@PAU_Container_base12@1@@Z PROC ; std::_Container_proxy::_Container_proxy, COMDAT
; _this$ = ecx

; 1000 :     _CONSTEXPR20_CONTAINER _Container_proxy(_Container_base12* _Mycont_) noexcept : _Mycont(_Mycont_) {}

  00000	55		 push	 ebp
  00001	8b ec		 mov	 ebp, esp
  00003	81 ec cc 00 00
	00		 sub	 esp, 204		; 000000ccH
  00009	53		 push	 ebx
  0000a	56		 push	 esi
  0000b	57		 push	 edi
  0000c	51		 push	 ecx
  0000d	8d 7d f4	 lea	 edi, DWORD PTR [ebp-12]
  00010	b9 03 00 00 00	 mov	 ecx, 3
  00015	b8 cc cc cc cc	 mov	 eax, -858993460		; ccccccccH
  0001a	f3 ab		 rep stosd
  0001c	59		 pop	 ecx
  0001d	89 4d f8	 mov	 DWORD PTR _this$[ebp], ecx
  00020	b9 00 00 00 00	 mov	 ecx, OFFSET __79D216CD_xmemory
  00025	e8 00 00 00 00	 call	 @__CheckForDebuggerJustMyCode@4
  0002a	8b 45 f8	 mov	 eax, DWORD PTR _this$[ebp]
  0002d	8b 4d 08	 mov	 ecx, DWORD PTR __Mycont_$[ebp]
  00030	89 08		 mov	 DWORD PTR [eax], ecx

; 1001 : 
; 1002 :     const _Container_base12* _Mycont       = nullptr;
; 1003 :     mutable _Iterator_base12* _Myfirstiter = nullptr;

  00032	8b 45 f8	 mov	 eax, DWORD PTR _this$[ebp]
  00035	c7 40 04 00 00
	00 00		 mov	 DWORD PTR [eax+4], 0

; 1000 :     _CONSTEXPR20_CONTAINER _Container_proxy(_Container_base12* _Mycont_) noexcept : _Mycont(_Mycont_) {}

  0003c	8b 45 f8	 mov	 eax, DWORD PTR _this$[ebp]
  0003f	5f		 pop	 edi
  00040	5e		 pop	 esi
  00041	5b		 pop	 ebx
  00042	81 c4 cc 00 00
	00		 add	 esp, 204		; 000000ccH
  00048	3b ec		 cmp	 ebp, esp
  0004a	e8 00 00 00 00	 call	 __RTC_CheckEsp
  0004f	8b e5		 mov	 esp, ebp
  00051	5d		 pop	 ebp
  00052	c2 04 00	 ret	 4
??0_Container_proxy@std@@QAE@PAU_Container_base12@1@@Z ENDP ; std::_Container_proxy::_Container_proxy
_TEXT	ENDS
; Function compile flags: /Odtp /RTCsu /ZI
; File C:\Program Files (x86)\Microsoft Visual Studio\2019\Community\VC\Tools\MSVC\14.29.30133\include\xmemory
;	COMDAT ?_Adjust_manually_vector_aligned@std@@YAXAAPAXAAI@Z
_TEXT	SEGMENT
__Back_shift$ = -44					; size = 4
__Min_back_shift$ = -32					; size = 4
__Ptr_container$ = -20					; size = 4
__Ptr_user$ = -8					; size = 4
__Ptr$ = 8						; size = 4
__Bytes$ = 12						; size = 4
?_Adjust_manually_vector_aligned@std@@YAXAAPAXAAI@Z PROC ; std::_Adjust_manually_vector_aligned, COMDAT

; 145  : inline void _Adjust_manually_vector_aligned(void*& _Ptr, size_t& _Bytes) {

  00000	55		 push	 ebp
  00001	8b ec		 mov	 ebp, esp
  00003	81 ec f0 00 00
	00		 sub	 esp, 240		; 000000f0H
  00009	53		 push	 ebx
  0000a	56		 push	 esi
  0000b	57		 push	 edi
  0000c	8d 7d d0	 lea	 edi, DWORD PTR [ebp-48]
  0000f	b9 0c 00 00 00	 mov	 ecx, 12			; 0000000cH
  00014	b8 cc cc cc cc	 mov	 eax, -858993460		; ccccccccH
  00019	f3 ab		 rep stosd
  0001b	b9 00 00 00 00	 mov	 ecx, OFFSET __79D216CD_xmemory
  00020	e8 00 00 00 00	 call	 @__CheckForDebuggerJustMyCode@4

; 146  :     // adjust parameters from _Allocate_manually_vector_aligned to pass to operator delete
; 147  :     _Bytes += _Non_user_size;

  00025	8b 45 0c	 mov	 eax, DWORD PTR __Bytes$[ebp]
  00028	8b 08		 mov	 ecx, DWORD PTR [eax]
  0002a	83 c1 27	 add	 ecx, 39			; 00000027H
  0002d	8b 55 0c	 mov	 edx, DWORD PTR __Bytes$[ebp]
  00030	89 0a		 mov	 DWORD PTR [edx], ecx

; 148  : 
; 149  :     const uintptr_t* const _Ptr_user = reinterpret_cast<uintptr_t*>(_Ptr);

  00032	8b 45 08	 mov	 eax, DWORD PTR __Ptr$[ebp]
  00035	8b 08		 mov	 ecx, DWORD PTR [eax]
  00037	89 4d f8	 mov	 DWORD PTR __Ptr_user$[ebp], ecx

; 150  :     const uintptr_t _Ptr_container   = _Ptr_user[-1];

  0003a	b8 04 00 00 00	 mov	 eax, 4
  0003f	6b c8 ff	 imul	 ecx, eax, -1
  00042	8b 55 f8	 mov	 edx, DWORD PTR __Ptr_user$[ebp]
  00045	8b 04 0a	 mov	 eax, DWORD PTR [edx+ecx]
  00048	89 45 ec	 mov	 DWORD PTR __Ptr_container$[ebp], eax
$LN4@Adjust_man:

; 151  : 
; 152  :     // If the following asserts, it likely means that we are performing
; 153  :     // an aligned delete on memory coming from an unaligned allocation.
; 154  :     _STL_ASSERT(_Ptr_user[-2] == _Big_allocation_sentinel, "invalid argument");

  0004b	b8 04 00 00 00	 mov	 eax, 4
  00050	6b c8 fe	 imul	 ecx, eax, -2
  00053	8b 55 f8	 mov	 edx, DWORD PTR __Ptr_user$[ebp]
  00056	81 3c 0a fa fa
	fa fa		 cmp	 DWORD PTR [edx+ecx], -84215046 ; fafafafaH
  0005d	75 02		 jne	 SHORT $LN7@Adjust_man
  0005f	eb 64		 jmp	 SHORT $LN2@Adjust_man
$LN7@Adjust_man:
  00061	8b f4		 mov	 esi, esp
  00063	68 00 00 00 00	 push	 OFFSET ??_C@_0BB@FCMFBGOM@invalid?5argument@
  00068	68 00 00 00 00	 push	 OFFSET ??_C@_02DKCKIIND@?$CFs@
  0006d	6a 00		 push	 0
  0006f	a1 00 00 00 00	 mov	 eax, DWORD PTR ?__LINE__Var@?0??_Adjust_manually_vector_aligned@std@@YAXAAPAXAAI@Z@4JA
  00074	83 c0 09	 add	 eax, 9
  00077	50		 push	 eax
  00078	68 00 00 00 00	 push	 OFFSET ??_C@_0GI@MNEMJBML@C?3?2Program?5Files?5?$CIx86?$CJ?2Microsof@
  0007d	6a 02		 push	 2
  0007f	ff 15 00 00 00
	00		 call	 DWORD PTR __imp___CrtDbgReport
  00085	83 c4 18	 add	 esp, 24			; 00000018H
  00088	3b f4		 cmp	 esi, esp
  0008a	e8 00 00 00 00	 call	 __RTC_CheckEsp
  0008f	83 f8 01	 cmp	 eax, 1
  00092	75 01		 jne	 SHORT $LN19@Adjust_man
  00094	cc		 int	 3
$LN19@Adjust_man:
  00095	8b f4		 mov	 esi, esp
  00097	6a 00		 push	 0
  00099	a1 00 00 00 00	 mov	 eax, DWORD PTR ?__LINE__Var@?0??_Adjust_manually_vector_aligned@std@@YAXAAPAXAAI@Z@4JA
  0009e	83 c0 09	 add	 eax, 9
  000a1	50		 push	 eax
  000a2	68 00 00 00 00	 push	 OFFSET ??_C@_1NA@MJBOBEJL@?$AAC?$AA?3?$AA?2?$AAP?$AAr?$AAo?$AAg?$AAr?$AAa?$AAm?$AA?5?$AAF?$AAi?$AAl?$AAe@
  000a7	68 00 00 00 00	 push	 OFFSET ??_C@_11LOCGONAA@@
  000ac	68 00 00 00 00	 push	 OFFSET ??_C@_1CG@JNLFBNGN@?$AA?$CC?$AAi?$AAn?$AAv?$AAa?$AAl?$AAi?$AAd?$AA?5?$AAa?$AAr?$AAg?$AAu?$AAm?$AAe@
  000b1	ff 15 00 00 00
	00		 call	 DWORD PTR __imp___invalid_parameter
  000b7	83 c4 14	 add	 esp, 20			; 00000014H
  000ba	3b f4		 cmp	 esi, esp
  000bc	e8 00 00 00 00	 call	 __RTC_CheckEsp
  000c1	33 c0		 xor	 eax, eax
  000c3	75 9c		 jne	 SHORT $LN7@Adjust_man
$LN2@Adjust_man:
  000c5	33 c0		 xor	 eax, eax
  000c7	75 82		 jne	 SHORT $LN4@Adjust_man

; 155  : 
; 156  :     // Extra paranoia on aligned allocation/deallocation; ensure _Ptr_container is
; 157  :     // in range [_Min_back_shift, _Non_user_size]
; 158  : #ifdef _DEBUG
; 159  :     constexpr uintptr_t _Min_back_shift = 2 * sizeof(void*);

  000c9	c7 45 e0 08 00
	00 00		 mov	 DWORD PTR __Min_back_shift$[ebp], 8

; 160  : #else // ^^^ _DEBUG ^^^ // vvv !_DEBUG vvv
; 161  :     constexpr uintptr_t _Min_back_shift = sizeof(void*);
; 162  : #endif // _DEBUG
; 163  :     const uintptr_t _Back_shift = reinterpret_cast<uintptr_t>(_Ptr) - _Ptr_container;

  000d0	8b 45 08	 mov	 eax, DWORD PTR __Ptr$[ebp]
  000d3	8b 08		 mov	 ecx, DWORD PTR [eax]
  000d5	2b 4d ec	 sub	 ecx, DWORD PTR __Ptr_container$[ebp]
  000d8	89 4d d4	 mov	 DWORD PTR __Back_shift$[ebp], ecx
$LN10@Adjust_man:

; 164  :     _STL_VERIFY(_Back_shift >= _Min_back_shift && _Back_shift <= _Non_user_size, "invalid argument");

  000db	83 7d d4 08	 cmp	 DWORD PTR __Back_shift$[ebp], 8
  000df	72 08		 jb	 SHORT $LN13@Adjust_man
  000e1	83 7d d4 27	 cmp	 DWORD PTR __Back_shift$[ebp], 39 ; 00000027H
  000e5	77 02		 ja	 SHORT $LN13@Adjust_man
  000e7	eb 64		 jmp	 SHORT $LN8@Adjust_man
$LN13@Adjust_man:
  000e9	8b f4		 mov	 esi, esp
  000eb	68 00 00 00 00	 push	 OFFSET ??_C@_0BB@FCMFBGOM@invalid?5argument@
  000f0	68 00 00 00 00	 push	 OFFSET ??_C@_02DKCKIIND@?$CFs@
  000f5	6a 00		 push	 0
  000f7	a1 00 00 00 00	 mov	 eax, DWORD PTR ?__LINE__Var@?0??_Adjust_manually_vector_aligned@std@@YAXAAPAXAAI@Z@4JA
  000fc	83 c0 13	 add	 eax, 19			; 00000013H
  000ff	50		 push	 eax
  00100	68 00 00 00 00	 push	 OFFSET ??_C@_0GI@MNEMJBML@C?3?2Program?5Files?5?$CIx86?$CJ?2Microsof@
  00105	6a 02		 push	 2
  00107	ff 15 00 00 00
	00		 call	 DWORD PTR __imp___CrtDbgReport
  0010d	83 c4 18	 add	 esp, 24			; 00000018H
  00110	3b f4		 cmp	 esi, esp
  00112	e8 00 00 00 00	 call	 __RTC_CheckEsp
  00117	83 f8 01	 cmp	 eax, 1
  0011a	75 01		 jne	 SHORT $LN20@Adjust_man
  0011c	cc		 int	 3
$LN20@Adjust_man:
  0011d	8b f4		 mov	 esi, esp
  0011f	6a 00		 push	 0
  00121	a1 00 00 00 00	 mov	 eax, DWORD PTR ?__LINE__Var@?0??_Adjust_manually_vector_aligned@std@@YAXAAPAXAAI@Z@4JA
  00126	83 c0 13	 add	 eax, 19			; 00000013H
  00129	50		 push	 eax
  0012a	68 00 00 00 00	 push	 OFFSET ??_C@_1NA@MJBOBEJL@?$AAC?$AA?3?$AA?2?$AAP?$AAr?$AAo?$AAg?$AAr?$AAa?$AAm?$AA?5?$AAF?$AAi?$AAl?$AAe@
  0012f	68 00 00 00 00	 push	 OFFSET ??_C@_11LOCGONAA@@
  00134	68 00 00 00 00	 push	 OFFSET ??_C@_1CG@JNLFBNGN@?$AA?$CC?$AAi?$AAn?$AAv?$AAa?$AAl?$AAi?$AAd?$AA?5?$AAa?$AAr?$AAg?$AAu?$AAm?$AAe@
  00139	ff 15 00 00 00
	00		 call	 DWORD PTR __imp___invalid_parameter
  0013f	83 c4 14	 add	 esp, 20			; 00000014H
  00142	3b f4		 cmp	 esi, esp
  00144	e8 00 00 00 00	 call	 __RTC_CheckEsp
  00149	33 c0		 xor	 eax, eax
  0014b	75 9c		 jne	 SHORT $LN13@Adjust_man
$LN8@Adjust_man:
  0014d	33 c0		 xor	 eax, eax
  0014f	75 8a		 jne	 SHORT $LN10@Adjust_man

; 165  :     _Ptr = reinterpret_cast<void*>(_Ptr_container);

  00151	8b 45 08	 mov	 eax, DWORD PTR __Ptr$[ebp]
  00154	8b 4d ec	 mov	 ecx, DWORD PTR __Ptr_container$[ebp]
  00157	89 08		 mov	 DWORD PTR [eax], ecx

; 166  : }

  00159	5f		 pop	 edi
  0015a	5e		 pop	 esi
  0015b	5b		 pop	 ebx
  0015c	81 c4 f0 00 00
	00		 add	 esp, 240		; 000000f0H
  00162	3b ec		 cmp	 ebp, esp
  00164	e8 00 00 00 00	 call	 __RTC_CheckEsp
  00169	8b e5		 mov	 esp, ebp
  0016b	5d		 pop	 ebp
  0016c	c3		 ret	 0
?_Adjust_manually_vector_aligned@std@@YAXAAPAXAAI@Z ENDP ; std::_Adjust_manually_vector_aligned
_TEXT	ENDS
; Function compile flags: /Odtp /RTCsu /ZI
; File C:\Program Files (x86)\Microsoft Visual Studio\2019\Community\VC\Tools\MSVC\14.29.30133\include\xmemory
;	COMDAT ?_Allocate@_Default_allocate_traits@std@@SAPAXI@Z
_TEXT	SEGMENT
__Bytes$ = 8						; size = 4
?_Allocate@_Default_allocate_traits@std@@SAPAXI@Z PROC	; std::_Default_allocate_traits::_Allocate, COMDAT

; 78   :         void* _Allocate(const size_t _Bytes) {

  00000	55		 push	 ebp
  00001	8b ec		 mov	 ebp, esp
  00003	81 ec c0 00 00
	00		 sub	 esp, 192		; 000000c0H
  00009	53		 push	 ebx
  0000a	56		 push	 esi
  0000b	57		 push	 edi
  0000c	8b fd		 mov	 edi, ebp
  0000e	33 c9		 xor	 ecx, ecx
  00010	b8 cc cc cc cc	 mov	 eax, -858993460		; ccccccccH
  00015	f3 ab		 rep stosd
  00017	b9 00 00 00 00	 mov	 ecx, OFFSET __79D216CD_xmemory
  0001c	e8 00 00 00 00	 call	 @__CheckForDebuggerJustMyCode@4

; 79   :         return ::operator new(_Bytes);

  00021	8b 45 08	 mov	 eax, DWORD PTR __Bytes$[ebp]
  00024	50		 push	 eax
  00025	e8 00 00 00 00	 call	 ??2@YAPAXI@Z		; operator new
  0002a	83 c4 04	 add	 esp, 4

; 80   :     }

  0002d	5f		 pop	 edi
  0002e	5e		 pop	 esi
  0002f	5b		 pop	 ebx
  00030	81 c4 c0 00 00
	00		 add	 esp, 192		; 000000c0H
  00036	3b ec		 cmp	 ebp, esp
  00038	e8 00 00 00 00	 call	 __RTC_CheckEsp
  0003d	8b e5		 mov	 esp, ebp
  0003f	5d		 pop	 ebp
  00040	c3		 ret	 0
?_Allocate@_Default_allocate_traits@std@@SAPAXI@Z ENDP	; std::_Default_allocate_traits::_Allocate
_TEXT	ENDS
; Function compile flags: /Odtp /RTCsu /ZI
; File C:\Program Files (x86)\Microsoft Visual Studio\2019\Community\VC\Tools\MSVC\14.29.30133\include\limits
;	COMDAT ?max@?$numeric_limits@H@std@@SAHXZ
_TEXT	SEGMENT
?max@?$numeric_limits@H@std@@SAHXZ PROC			; std::numeric_limits<int>::max, COMDAT

; 540  :     _NODISCARD static constexpr int(max)() noexcept {

  00000	55		 push	 ebp
  00001	8b ec		 mov	 ebp, esp
  00003	81 ec c0 00 00
	00		 sub	 esp, 192		; 000000c0H
  00009	53		 push	 ebx
  0000a	56		 push	 esi
  0000b	57		 push	 edi
  0000c	8b fd		 mov	 edi, ebp
  0000e	33 c9		 xor	 ecx, ecx
  00010	b8 cc cc cc cc	 mov	 eax, -858993460		; ccccccccH
  00015	f3 ab		 rep stosd
  00017	b9 00 00 00 00	 mov	 ecx, OFFSET __7FE5F402_limits
  0001c	e8 00 00 00 00	 call	 @__CheckForDebuggerJustMyCode@4

; 541  :         return INT_MAX;

  00021	b8 ff ff ff 7f	 mov	 eax, 2147483647		; 7fffffffH

; 542  :     }

  00026	5f		 pop	 edi
  00027	5e		 pop	 esi
  00028	5b		 pop	 ebx
  00029	81 c4 c0 00 00
	00		 add	 esp, 192		; 000000c0H
  0002f	3b ec		 cmp	 ebp, esp
  00031	e8 00 00 00 00	 call	 __RTC_CheckEsp
  00036	8b e5		 mov	 esp, ebp
  00038	5d		 pop	 ebp
  00039	c3		 ret	 0
?max@?$numeric_limits@H@std@@SAHXZ ENDP			; std::numeric_limits<int>::max
_TEXT	ENDS
; Function compile flags: /Odtp /RTCsu /ZI
; File C:\Program Files (x86)\Microsoft Visual Studio\2019\Community\VC\Tools\MSVC\14.29.30133\include\exception
;	COMDAT ?_Throw_bad_array_new_length@std@@YAXXZ
_TEXT	SEGMENT
$T1 = -208						; size = 12
?_Throw_bad_array_new_length@std@@YAXXZ PROC		; std::_Throw_bad_array_new_length, COMDAT

; 315  : [[noreturn]] inline void _Throw_bad_array_new_length() {

  00000	55		 push	 ebp
  00001	8b ec		 mov	 ebp, esp
  00003	81 ec d4 00 00
	00		 sub	 esp, 212		; 000000d4H
  00009	53		 push	 ebx
  0000a	56		 push	 esi
  0000b	57		 push	 edi
  0000c	8d 7d ec	 lea	 edi, DWORD PTR [ebp-20]
  0000f	b9 05 00 00 00	 mov	 ecx, 5
  00014	b8 cc cc cc cc	 mov	 eax, -858993460		; ccccccccH
  00019	f3 ab		 rep stosd
  0001b	b9 00 00 00 00	 mov	 ecx, OFFSET __FF458F76_exception
  00020	e8 00 00 00 00	 call	 @__CheckForDebuggerJustMyCode@4

; 316  :     _THROW(bad_array_new_length{});

  00025	8d 8d 30 ff ff
	ff		 lea	 ecx, DWORD PTR $T1[ebp]
  0002b	e8 00 00 00 00	 call	 ??0bad_array_new_length@std@@QAE@XZ ; std::bad_array_new_length::bad_array_new_length
  00030	68 00 00 00 00	 push	 OFFSET __TI3?AVbad_array_new_length@std@@
  00035	8d 85 30 ff ff
	ff		 lea	 eax, DWORD PTR $T1[ebp]
  0003b	50		 push	 eax
  0003c	e8 00 00 00 00	 call	 __CxxThrowException@8
$LN2@Throw_bad_:

; 317  : }

  00041	5f		 pop	 edi
  00042	5e		 pop	 esi
  00043	5b		 pop	 ebx
  00044	81 c4 d4 00 00
	00		 add	 esp, 212		; 000000d4H
  0004a	3b ec		 cmp	 ebp, esp
  0004c	e8 00 00 00 00	 call	 __RTC_CheckEsp
  00051	8b e5		 mov	 esp, ebp
  00053	5d		 pop	 ebp
  00054	c3		 ret	 0
?_Throw_bad_array_new_length@std@@YAXXZ ENDP		; std::_Throw_bad_array_new_length
_TEXT	ENDS
; Function compile flags: /Odtp /RTCsu /ZI
;	COMDAT ??_Gbad_array_new_length@std@@UAEPAXI@Z
_TEXT	SEGMENT
_this$ = -8						; size = 4
___flags$ = 8						; size = 4
??_Gbad_array_new_length@std@@UAEPAXI@Z PROC		; std::bad_array_new_length::`scalar deleting destructor', COMDAT
; _this$ = ecx
  00000	55		 push	 ebp
  00001	8b ec		 mov	 ebp, esp
  00003	81 ec cc 00 00
	00		 sub	 esp, 204		; 000000ccH
  00009	53		 push	 ebx
  0000a	56		 push	 esi
  0000b	57		 push	 edi
  0000c	51		 push	 ecx
  0000d	8d 7d f4	 lea	 edi, DWORD PTR [ebp-12]
  00010	b9 03 00 00 00	 mov	 ecx, 3
  00015	b8 cc cc cc cc	 mov	 eax, -858993460		; ccccccccH
  0001a	f3 ab		 rep stosd
  0001c	59		 pop	 ecx
  0001d	89 4d f8	 mov	 DWORD PTR _this$[ebp], ecx
  00020	8b 4d f8	 mov	 ecx, DWORD PTR _this$[ebp]
  00023	e8 00 00 00 00	 call	 ??1bad_array_new_length@std@@UAE@XZ
  00028	8b 45 08	 mov	 eax, DWORD PTR ___flags$[ebp]
  0002b	83 e0 01	 and	 eax, 1
  0002e	74 0e		 je	 SHORT $LN2@scalar
  00030	6a 0c		 push	 12			; 0000000cH
  00032	8b 45 f8	 mov	 eax, DWORD PTR _this$[ebp]
  00035	50		 push	 eax
  00036	e8 00 00 00 00	 call	 ??3@YAXPAXI@Z		; operator delete
  0003b	83 c4 08	 add	 esp, 8
$LN2@scalar:
  0003e	8b 45 f8	 mov	 eax, DWORD PTR _this$[ebp]
  00041	5f		 pop	 edi
  00042	5e		 pop	 esi
  00043	5b		 pop	 ebx
  00044	81 c4 cc 00 00
	00		 add	 esp, 204		; 000000ccH
  0004a	3b ec		 cmp	 ebp, esp
  0004c	e8 00 00 00 00	 call	 __RTC_CheckEsp
  00051	8b e5		 mov	 esp, ebp
  00053	5d		 pop	 ebp
  00054	c2 04 00	 ret	 4
??_Gbad_array_new_length@std@@UAEPAXI@Z ENDP		; std::bad_array_new_length::`scalar deleting destructor'
_TEXT	ENDS
; Function compile flags: /Odtp /RTCsu /ZI
;	COMDAT ??0bad_array_new_length@std@@QAE@ABV01@@Z
_TEXT	SEGMENT
_this$ = -8						; size = 4
___that$ = 8						; size = 4
??0bad_array_new_length@std@@QAE@ABV01@@Z PROC		; std::bad_array_new_length::bad_array_new_length, COMDAT
; _this$ = ecx
  00000	55		 push	 ebp
  00001	8b ec		 mov	 ebp, esp
  00003	81 ec cc 00 00
	00		 sub	 esp, 204		; 000000ccH
  00009	53		 push	 ebx
  0000a	56		 push	 esi
  0000b	57		 push	 edi
  0000c	51		 push	 ecx
  0000d	8d 7d f4	 lea	 edi, DWORD PTR [ebp-12]
  00010	b9 03 00 00 00	 mov	 ecx, 3
  00015	b8 cc cc cc cc	 mov	 eax, -858993460		; ccccccccH
  0001a	f3 ab		 rep stosd
  0001c	59		 pop	 ecx
  0001d	89 4d f8	 mov	 DWORD PTR _this$[ebp], ecx
  00020	8b 45 08	 mov	 eax, DWORD PTR ___that$[ebp]
  00023	50		 push	 eax
  00024	8b 4d f8	 mov	 ecx, DWORD PTR _this$[ebp]
  00027	e8 00 00 00 00	 call	 ??0bad_alloc@std@@QAE@ABV01@@Z
  0002c	8b 45 f8	 mov	 eax, DWORD PTR _this$[ebp]
  0002f	c7 00 00 00 00
	00		 mov	 DWORD PTR [eax], OFFSET ??_7bad_array_new_length@std@@6B@
  00035	8b 45 f8	 mov	 eax, DWORD PTR _this$[ebp]
  00038	5f		 pop	 edi
  00039	5e		 pop	 esi
  0003a	5b		 pop	 ebx
  0003b	81 c4 cc 00 00
	00		 add	 esp, 204		; 000000ccH
  00041	3b ec		 cmp	 ebp, esp
  00043	e8 00 00 00 00	 call	 __RTC_CheckEsp
  00048	8b e5		 mov	 esp, ebp
  0004a	5d		 pop	 ebp
  0004b	c2 04 00	 ret	 4
??0bad_array_new_length@std@@QAE@ABV01@@Z ENDP		; std::bad_array_new_length::bad_array_new_length
_TEXT	ENDS
; Function compile flags: /Odtp /RTCsu /ZI
;	COMDAT ??1bad_array_new_length@std@@UAE@XZ
_TEXT	SEGMENT
_this$ = -8						; size = 4
??1bad_array_new_length@std@@UAE@XZ PROC		; std::bad_array_new_length::~bad_array_new_length, COMDAT
; _this$ = ecx
  00000	55		 push	 ebp
  00001	8b ec		 mov	 ebp, esp
  00003	81 ec cc 00 00
	00		 sub	 esp, 204		; 000000ccH
  00009	53		 push	 ebx
  0000a	56		 push	 esi
  0000b	57		 push	 edi
  0000c	51		 push	 ecx
  0000d	8d 7d f4	 lea	 edi, DWORD PTR [ebp-12]
  00010	b9 03 00 00 00	 mov	 ecx, 3
  00015	b8 cc cc cc cc	 mov	 eax, -858993460		; ccccccccH
  0001a	f3 ab		 rep stosd
  0001c	59		 pop	 ecx
  0001d	89 4d f8	 mov	 DWORD PTR _this$[ebp], ecx
  00020	8b 4d f8	 mov	 ecx, DWORD PTR _this$[ebp]
  00023	e8 00 00 00 00	 call	 ??1bad_alloc@std@@UAE@XZ
  00028	5f		 pop	 edi
  00029	5e		 pop	 esi
  0002a	5b		 pop	 ebx
  0002b	81 c4 cc 00 00
	00		 add	 esp, 204		; 000000ccH
  00031	3b ec		 cmp	 ebp, esp
  00033	e8 00 00 00 00	 call	 __RTC_CheckEsp
  00038	8b e5		 mov	 esp, ebp
  0003a	5d		 pop	 ebp
  0003b	c3		 ret	 0
??1bad_array_new_length@std@@UAE@XZ ENDP		; std::bad_array_new_length::~bad_array_new_length
_TEXT	ENDS
; Function compile flags: /Odtp /RTCsu /ZI
; File C:\Program Files (x86)\Microsoft Visual Studio\2019\Community\VC\Tools\MSVC\14.29.30133\include\vcruntime_exception.h
;	COMDAT ??0bad_array_new_length@std@@QAE@XZ
_TEXT	SEGMENT
_this$ = -8						; size = 4
??0bad_array_new_length@std@@QAE@XZ PROC		; std::bad_array_new_length::bad_array_new_length, COMDAT
; _this$ = ecx

; 141  :     {

  00000	55		 push	 ebp
  00001	8b ec		 mov	 ebp, esp
  00003	81 ec cc 00 00
	00		 sub	 esp, 204		; 000000ccH
  00009	53		 push	 ebx
  0000a	56		 push	 esi
  0000b	57		 push	 edi
  0000c	51		 push	 ecx
  0000d	8d 7d f4	 lea	 edi, DWORD PTR [ebp-12]
  00010	b9 03 00 00 00	 mov	 ecx, 3
  00015	b8 cc cc cc cc	 mov	 eax, -858993460		; ccccccccH
  0001a	f3 ab		 rep stosd
  0001c	59		 pop	 ecx
  0001d	89 4d f8	 mov	 DWORD PTR _this$[ebp], ecx
  00020	b9 00 00 00 00	 mov	 ecx, OFFSET __B0A13A33_vcruntime_exception@h
  00025	e8 00 00 00 00	 call	 @__CheckForDebuggerJustMyCode@4

; 140  :         : bad_alloc("bad array new length")

  0002a	68 00 00 00 00	 push	 OFFSET ??_C@_0BF@KINCDENJ@bad?5array?5new?5length@
  0002f	8b 4d f8	 mov	 ecx, DWORD PTR _this$[ebp]
  00032	e8 00 00 00 00	 call	 ??0bad_alloc@std@@AAE@QBD@Z ; std::bad_alloc::bad_alloc

; 141  :     {

  00037	8b 45 f8	 mov	 eax, DWORD PTR _this$[ebp]
  0003a	c7 00 00 00 00
	00		 mov	 DWORD PTR [eax], OFFSET ??_7bad_array_new_length@std@@6B@

; 142  :     }

  00040	8b 45 f8	 mov	 eax, DWORD PTR _this$[ebp]
  00043	5f		 pop	 edi
  00044	5e		 pop	 esi
  00045	5b		 pop	 ebx
  00046	81 c4 cc 00 00
	00		 add	 esp, 204		; 000000ccH
  0004c	3b ec		 cmp	 ebp, esp
  0004e	e8 00 00 00 00	 call	 __RTC_CheckEsp
  00053	8b e5		 mov	 esp, ebp
  00055	5d		 pop	 ebp
  00056	c3		 ret	 0
??0bad_array_new_length@std@@QAE@XZ ENDP		; std::bad_array_new_length::bad_array_new_length
_TEXT	ENDS
; Function compile flags: /Odtp /RTCsu /ZI
;	COMDAT ??_Gbad_alloc@std@@UAEPAXI@Z
_TEXT	SEGMENT
_this$ = -8						; size = 4
___flags$ = 8						; size = 4
??_Gbad_alloc@std@@UAEPAXI@Z PROC			; std::bad_alloc::`scalar deleting destructor', COMDAT
; _this$ = ecx
  00000	55		 push	 ebp
  00001	8b ec		 mov	 ebp, esp
  00003	81 ec cc 00 00
	00		 sub	 esp, 204		; 000000ccH
  00009	53		 push	 ebx
  0000a	56		 push	 esi
  0000b	57		 push	 edi
  0000c	51		 push	 ecx
  0000d	8d 7d f4	 lea	 edi, DWORD PTR [ebp-12]
  00010	b9 03 00 00 00	 mov	 ecx, 3
  00015	b8 cc cc cc cc	 mov	 eax, -858993460		; ccccccccH
  0001a	f3 ab		 rep stosd
  0001c	59		 pop	 ecx
  0001d	89 4d f8	 mov	 DWORD PTR _this$[ebp], ecx
  00020	8b 4d f8	 mov	 ecx, DWORD PTR _this$[ebp]
  00023	e8 00 00 00 00	 call	 ??1bad_alloc@std@@UAE@XZ
  00028	8b 45 08	 mov	 eax, DWORD PTR ___flags$[ebp]
  0002b	83 e0 01	 and	 eax, 1
  0002e	74 0e		 je	 SHORT $LN2@scalar
  00030	6a 0c		 push	 12			; 0000000cH
  00032	8b 45 f8	 mov	 eax, DWORD PTR _this$[ebp]
  00035	50		 push	 eax
  00036	e8 00 00 00 00	 call	 ??3@YAXPAXI@Z		; operator delete
  0003b	83 c4 08	 add	 esp, 8
$LN2@scalar:
  0003e	8b 45 f8	 mov	 eax, DWORD PTR _this$[ebp]
  00041	5f		 pop	 edi
  00042	5e		 pop	 esi
  00043	5b		 pop	 ebx
  00044	81 c4 cc 00 00
	00		 add	 esp, 204		; 000000ccH
  0004a	3b ec		 cmp	 ebp, esp
  0004c	e8 00 00 00 00	 call	 __RTC_CheckEsp
  00051	8b e5		 mov	 esp, ebp
  00053	5d		 pop	 ebp
  00054	c2 04 00	 ret	 4
??_Gbad_alloc@std@@UAEPAXI@Z ENDP			; std::bad_alloc::`scalar deleting destructor'
_TEXT	ENDS
; Function compile flags: /Odtp /RTCsu /ZI
;	COMDAT ??0bad_alloc@std@@QAE@ABV01@@Z
_TEXT	SEGMENT
_this$ = -8						; size = 4
___that$ = 8						; size = 4
??0bad_alloc@std@@QAE@ABV01@@Z PROC			; std::bad_alloc::bad_alloc, COMDAT
; _this$ = ecx
  00000	55		 push	 ebp
  00001	8b ec		 mov	 ebp, esp
  00003	81 ec cc 00 00
	00		 sub	 esp, 204		; 000000ccH
  00009	53		 push	 ebx
  0000a	56		 push	 esi
  0000b	57		 push	 edi
  0000c	51		 push	 ecx
  0000d	8d 7d f4	 lea	 edi, DWORD PTR [ebp-12]
  00010	b9 03 00 00 00	 mov	 ecx, 3
  00015	b8 cc cc cc cc	 mov	 eax, -858993460		; ccccccccH
  0001a	f3 ab		 rep stosd
  0001c	59		 pop	 ecx
  0001d	89 4d f8	 mov	 DWORD PTR _this$[ebp], ecx
  00020	8b 45 08	 mov	 eax, DWORD PTR ___that$[ebp]
  00023	50		 push	 eax
  00024	8b 4d f8	 mov	 ecx, DWORD PTR _this$[ebp]
  00027	e8 00 00 00 00	 call	 ??0exception@std@@QAE@ABV01@@Z ; std::exception::exception
  0002c	8b 45 f8	 mov	 eax, DWORD PTR _this$[ebp]
  0002f	c7 00 00 00 00
	00		 mov	 DWORD PTR [eax], OFFSET ??_7bad_alloc@std@@6B@
  00035	8b 45 f8	 mov	 eax, DWORD PTR _this$[ebp]
  00038	5f		 pop	 edi
  00039	5e		 pop	 esi
  0003a	5b		 pop	 ebx
  0003b	81 c4 cc 00 00
	00		 add	 esp, 204		; 000000ccH
  00041	3b ec		 cmp	 ebp, esp
  00043	e8 00 00 00 00	 call	 __RTC_CheckEsp
  00048	8b e5		 mov	 esp, ebp
  0004a	5d		 pop	 ebp
  0004b	c2 04 00	 ret	 4
??0bad_alloc@std@@QAE@ABV01@@Z ENDP			; std::bad_alloc::bad_alloc
_TEXT	ENDS
; Function compile flags: /Odtp /RTCsu /ZI
;	COMDAT ??1bad_alloc@std@@UAE@XZ
_TEXT	SEGMENT
_this$ = -8						; size = 4
??1bad_alloc@std@@UAE@XZ PROC				; std::bad_alloc::~bad_alloc, COMDAT
; _this$ = ecx
  00000	55		 push	 ebp
  00001	8b ec		 mov	 ebp, esp
  00003	81 ec cc 00 00
	00		 sub	 esp, 204		; 000000ccH
  00009	53		 push	 ebx
  0000a	56		 push	 esi
  0000b	57		 push	 edi
  0000c	51		 push	 ecx
  0000d	8d 7d f4	 lea	 edi, DWORD PTR [ebp-12]
  00010	b9 03 00 00 00	 mov	 ecx, 3
  00015	b8 cc cc cc cc	 mov	 eax, -858993460		; ccccccccH
  0001a	f3 ab		 rep stosd
  0001c	59		 pop	 ecx
  0001d	89 4d f8	 mov	 DWORD PTR _this$[ebp], ecx
  00020	8b 4d f8	 mov	 ecx, DWORD PTR _this$[ebp]
  00023	e8 00 00 00 00	 call	 ??1exception@std@@UAE@XZ ; std::exception::~exception
  00028	5f		 pop	 edi
  00029	5e		 pop	 esi
  0002a	5b		 pop	 ebx
  0002b	81 c4 cc 00 00
	00		 add	 esp, 204		; 000000ccH
  00031	3b ec		 cmp	 ebp, esp
  00033	e8 00 00 00 00	 call	 __RTC_CheckEsp
  00038	8b e5		 mov	 esp, ebp
  0003a	5d		 pop	 ebp
  0003b	c3		 ret	 0
??1bad_alloc@std@@UAE@XZ ENDP				; std::bad_alloc::~bad_alloc
_TEXT	ENDS
; Function compile flags: /Odtp /RTCsu /ZI
; File C:\Program Files (x86)\Microsoft Visual Studio\2019\Community\VC\Tools\MSVC\14.29.30133\include\vcruntime_exception.h
;	COMDAT ??0bad_alloc@std@@AAE@QBD@Z
_TEXT	SEGMENT
_this$ = -8						; size = 4
__Message$ = 8						; size = 4
??0bad_alloc@std@@AAE@QBD@Z PROC			; std::bad_alloc::bad_alloc, COMDAT
; _this$ = ecx

; 130  :     {

  00000	55		 push	 ebp
  00001	8b ec		 mov	 ebp, esp
  00003	81 ec cc 00 00
	00		 sub	 esp, 204		; 000000ccH
  00009	53		 push	 ebx
  0000a	56		 push	 esi
  0000b	57		 push	 edi
  0000c	51		 push	 ecx
  0000d	8d 7d f4	 lea	 edi, DWORD PTR [ebp-12]
  00010	b9 03 00 00 00	 mov	 ecx, 3
  00015	b8 cc cc cc cc	 mov	 eax, -858993460		; ccccccccH
  0001a	f3 ab		 rep stosd
  0001c	59		 pop	 ecx
  0001d	89 4d f8	 mov	 DWORD PTR _this$[ebp], ecx
  00020	b9 00 00 00 00	 mov	 ecx, OFFSET __B0A13A33_vcruntime_exception@h
  00025	e8 00 00 00 00	 call	 @__CheckForDebuggerJustMyCode@4

; 129  :         : exception(_Message, 1)

  0002a	6a 01		 push	 1
  0002c	8b 45 08	 mov	 eax, DWORD PTR __Message$[ebp]
  0002f	50		 push	 eax
  00030	8b 4d f8	 mov	 ecx, DWORD PTR _this$[ebp]
  00033	e8 00 00 00 00	 call	 ??0exception@std@@QAE@QBDH@Z ; std::exception::exception

; 130  :     {

  00038	8b 45 f8	 mov	 eax, DWORD PTR _this$[ebp]
  0003b	c7 00 00 00 00
	00		 mov	 DWORD PTR [eax], OFFSET ??_7bad_alloc@std@@6B@

; 131  :     }

  00041	8b 45 f8	 mov	 eax, DWORD PTR _this$[ebp]
  00044	5f		 pop	 edi
  00045	5e		 pop	 esi
  00046	5b		 pop	 ebx
  00047	81 c4 cc 00 00
	00		 add	 esp, 204		; 000000ccH
  0004d	3b ec		 cmp	 ebp, esp
  0004f	e8 00 00 00 00	 call	 __RTC_CheckEsp
  00054	8b e5		 mov	 esp, ebp
  00056	5d		 pop	 ebp
  00057	c2 04 00	 ret	 4
??0bad_alloc@std@@AAE@QBD@Z ENDP			; std::bad_alloc::bad_alloc
_TEXT	ENDS
; Function compile flags: /Odtp /RTCsu /ZI
;	COMDAT ??_Gexception@std@@UAEPAXI@Z
_TEXT	SEGMENT
_this$ = -8						; size = 4
___flags$ = 8						; size = 4
??_Gexception@std@@UAEPAXI@Z PROC			; std::exception::`scalar deleting destructor', COMDAT
; _this$ = ecx
  00000	55		 push	 ebp
  00001	8b ec		 mov	 ebp, esp
  00003	81 ec cc 00 00
	00		 sub	 esp, 204		; 000000ccH
  00009	53		 push	 ebx
  0000a	56		 push	 esi
  0000b	57		 push	 edi
  0000c	51		 push	 ecx
  0000d	8d 7d f4	 lea	 edi, DWORD PTR [ebp-12]
  00010	b9 03 00 00 00	 mov	 ecx, 3
  00015	b8 cc cc cc cc	 mov	 eax, -858993460		; ccccccccH
  0001a	f3 ab		 rep stosd
  0001c	59		 pop	 ecx
  0001d	89 4d f8	 mov	 DWORD PTR _this$[ebp], ecx
  00020	8b 4d f8	 mov	 ecx, DWORD PTR _this$[ebp]
  00023	e8 00 00 00 00	 call	 ??1exception@std@@UAE@XZ ; std::exception::~exception
  00028	8b 45 08	 mov	 eax, DWORD PTR ___flags$[ebp]
  0002b	83 e0 01	 and	 eax, 1
  0002e	74 0e		 je	 SHORT $LN2@scalar
  00030	6a 0c		 push	 12			; 0000000cH
  00032	8b 45 f8	 mov	 eax, DWORD PTR _this$[ebp]
  00035	50		 push	 eax
  00036	e8 00 00 00 00	 call	 ??3@YAXPAXI@Z		; operator delete
  0003b	83 c4 08	 add	 esp, 8
$LN2@scalar:
  0003e	8b 45 f8	 mov	 eax, DWORD PTR _this$[ebp]
  00041	5f		 pop	 edi
  00042	5e		 pop	 esi
  00043	5b		 pop	 ebx
  00044	81 c4 cc 00 00
	00		 add	 esp, 204		; 000000ccH
  0004a	3b ec		 cmp	 ebp, esp
  0004c	e8 00 00 00 00	 call	 __RTC_CheckEsp
  00051	8b e5		 mov	 esp, ebp
  00053	5d		 pop	 ebp
  00054	c2 04 00	 ret	 4
??_Gexception@std@@UAEPAXI@Z ENDP			; std::exception::`scalar deleting destructor'
_TEXT	ENDS
; Function compile flags: /Odtp /RTCsu /ZI
; File C:\Program Files (x86)\Microsoft Visual Studio\2019\Community\VC\Tools\MSVC\14.29.30133\include\vcruntime_exception.h
;	COMDAT ?what@exception@std@@UBEPBDXZ
_TEXT	SEGMENT
tv69 = -208						; size = 4
_this$ = -8						; size = 4
?what@exception@std@@UBEPBDXZ PROC			; std::exception::what, COMDAT
; _this$ = ecx

; 94   :     {

  00000	55		 push	 ebp
  00001	8b ec		 mov	 ebp, esp
  00003	81 ec d0 00 00
	00		 sub	 esp, 208		; 000000d0H
  00009	53		 push	 ebx
  0000a	56		 push	 esi
  0000b	57		 push	 edi
  0000c	51		 push	 ecx
  0000d	8d 7d f0	 lea	 edi, DWORD PTR [ebp-16]
  00010	b9 04 00 00 00	 mov	 ecx, 4
  00015	b8 cc cc cc cc	 mov	 eax, -858993460		; ccccccccH
  0001a	f3 ab		 rep stosd
  0001c	59		 pop	 ecx
  0001d	89 4d f8	 mov	 DWORD PTR _this$[ebp], ecx
  00020	b9 00 00 00 00	 mov	 ecx, OFFSET __B0A13A33_vcruntime_exception@h
  00025	e8 00 00 00 00	 call	 @__CheckForDebuggerJustMyCode@4

; 95   :         return _Data._What ? _Data._What : "Unknown exception";

  0002a	8b 45 f8	 mov	 eax, DWORD PTR _this$[ebp]
  0002d	83 78 04 00	 cmp	 DWORD PTR [eax+4], 0
  00031	74 0e		 je	 SHORT $LN3@what
  00033	8b 4d f8	 mov	 ecx, DWORD PTR _this$[ebp]
  00036	8b 51 04	 mov	 edx, DWORD PTR [ecx+4]
  00039	89 95 30 ff ff
	ff		 mov	 DWORD PTR tv69[ebp], edx
  0003f	eb 0a		 jmp	 SHORT $LN4@what
$LN3@what:
  00041	c7 85 30 ff ff
	ff 00 00 00 00	 mov	 DWORD PTR tv69[ebp], OFFSET ??_C@_0BC@EOODALEL@Unknown?5exception@
$LN4@what:
  0004b	8b 85 30 ff ff
	ff		 mov	 eax, DWORD PTR tv69[ebp]

; 96   :     }

  00051	5f		 pop	 edi
  00052	5e		 pop	 esi
  00053	5b		 pop	 ebx
  00054	81 c4 d0 00 00
	00		 add	 esp, 208		; 000000d0H
  0005a	3b ec		 cmp	 ebp, esp
  0005c	e8 00 00 00 00	 call	 __RTC_CheckEsp
  00061	8b e5		 mov	 esp, ebp
  00063	5d		 pop	 ebp
  00064	c3		 ret	 0
?what@exception@std@@UBEPBDXZ ENDP			; std::exception::what
_TEXT	ENDS
; Function compile flags: /Odtp /RTCsu /ZI
; File C:\Program Files (x86)\Microsoft Visual Studio\2019\Community\VC\Tools\MSVC\14.29.30133\include\vcruntime_exception.h
;	COMDAT ??1exception@std@@UAE@XZ
_TEXT	SEGMENT
_this$ = -8						; size = 4
??1exception@std@@UAE@XZ PROC				; std::exception::~exception, COMDAT
; _this$ = ecx

; 89   :     {

  00000	55		 push	 ebp
  00001	8b ec		 mov	 ebp, esp
  00003	81 ec cc 00 00
	00		 sub	 esp, 204		; 000000ccH
  00009	53		 push	 ebx
  0000a	56		 push	 esi
  0000b	57		 push	 edi
  0000c	51		 push	 ecx
  0000d	8d 7d f4	 lea	 edi, DWORD PTR [ebp-12]
  00010	b9 03 00 00 00	 mov	 ecx, 3
  00015	b8 cc cc cc cc	 mov	 eax, -858993460		; ccccccccH
  0001a	f3 ab		 rep stosd
  0001c	59		 pop	 ecx
  0001d	89 4d f8	 mov	 DWORD PTR _this$[ebp], ecx
  00020	b9 00 00 00 00	 mov	 ecx, OFFSET __B0A13A33_vcruntime_exception@h
  00025	e8 00 00 00 00	 call	 @__CheckForDebuggerJustMyCode@4
  0002a	8b 45 f8	 mov	 eax, DWORD PTR _this$[ebp]
  0002d	c7 00 00 00 00
	00		 mov	 DWORD PTR [eax], OFFSET ??_7exception@std@@6B@

; 90   :         __std_exception_destroy(&_Data);

  00033	8b 45 f8	 mov	 eax, DWORD PTR _this$[ebp]
  00036	83 c0 04	 add	 eax, 4
  00039	50		 push	 eax
  0003a	e8 00 00 00 00	 call	 ___std_exception_destroy
  0003f	83 c4 04	 add	 esp, 4

; 91   :     }

  00042	5f		 pop	 edi
  00043	5e		 pop	 esi
  00044	5b		 pop	 ebx
  00045	81 c4 cc 00 00
	00		 add	 esp, 204		; 000000ccH
  0004b	3b ec		 cmp	 ebp, esp
  0004d	e8 00 00 00 00	 call	 __RTC_CheckEsp
  00052	8b e5		 mov	 esp, ebp
  00054	5d		 pop	 ebp
  00055	c3		 ret	 0
??1exception@std@@UAE@XZ ENDP				; std::exception::~exception
_TEXT	ENDS
; Function compile flags: /Odtp /RTCsu /ZI
; File C:\Program Files (x86)\Microsoft Visual Studio\2019\Community\VC\Tools\MSVC\14.29.30133\include\vcruntime_exception.h
;	COMDAT ??0exception@std@@QAE@ABV01@@Z
_TEXT	SEGMENT
_this$ = -8						; size = 4
__Other$ = 8						; size = 4
??0exception@std@@QAE@ABV01@@Z PROC			; std::exception::exception, COMDAT
; _this$ = ecx

; 72   :     {

  00000	55		 push	 ebp
  00001	8b ec		 mov	 ebp, esp
  00003	81 ec cc 00 00
	00		 sub	 esp, 204		; 000000ccH
  00009	53		 push	 ebx
  0000a	56		 push	 esi
  0000b	57		 push	 edi
  0000c	51		 push	 ecx
  0000d	8d 7d f4	 lea	 edi, DWORD PTR [ebp-12]
  00010	b9 03 00 00 00	 mov	 ecx, 3
  00015	b8 cc cc cc cc	 mov	 eax, -858993460		; ccccccccH
  0001a	f3 ab		 rep stosd
  0001c	59		 pop	 ecx
  0001d	89 4d f8	 mov	 DWORD PTR _this$[ebp], ecx
  00020	b9 00 00 00 00	 mov	 ecx, OFFSET __B0A13A33_vcruntime_exception@h
  00025	e8 00 00 00 00	 call	 @__CheckForDebuggerJustMyCode@4
  0002a	8b 45 f8	 mov	 eax, DWORD PTR _this$[ebp]
  0002d	c7 00 00 00 00
	00		 mov	 DWORD PTR [eax], OFFSET ??_7exception@std@@6B@

; 71   :         : _Data()

  00033	33 c0		 xor	 eax, eax
  00035	8b 4d f8	 mov	 ecx, DWORD PTR _this$[ebp]
  00038	83 c1 04	 add	 ecx, 4
  0003b	89 01		 mov	 DWORD PTR [ecx], eax
  0003d	89 41 04	 mov	 DWORD PTR [ecx+4], eax

; 73   :         __std_exception_copy(&_Other._Data, &_Data);

  00040	8b 45 f8	 mov	 eax, DWORD PTR _this$[ebp]
  00043	83 c0 04	 add	 eax, 4
  00046	50		 push	 eax
  00047	8b 4d 08	 mov	 ecx, DWORD PTR __Other$[ebp]
  0004a	83 c1 04	 add	 ecx, 4
  0004d	51		 push	 ecx
  0004e	e8 00 00 00 00	 call	 ___std_exception_copy
  00053	83 c4 08	 add	 esp, 8

; 74   :     }

  00056	8b 45 f8	 mov	 eax, DWORD PTR _this$[ebp]
  00059	5f		 pop	 edi
  0005a	5e		 pop	 esi
  0005b	5b		 pop	 ebx
  0005c	81 c4 cc 00 00
	00		 add	 esp, 204		; 000000ccH
  00062	3b ec		 cmp	 ebp, esp
  00064	e8 00 00 00 00	 call	 __RTC_CheckEsp
  00069	8b e5		 mov	 esp, ebp
  0006b	5d		 pop	 ebp
  0006c	c2 04 00	 ret	 4
??0exception@std@@QAE@ABV01@@Z ENDP			; std::exception::exception
_TEXT	ENDS
; Function compile flags: /Odtp /RTCsu /ZI
; File C:\Program Files (x86)\Microsoft Visual Studio\2019\Community\VC\Tools\MSVC\14.29.30133\include\vcruntime_exception.h
;	COMDAT ??0exception@std@@QAE@QBDH@Z
_TEXT	SEGMENT
_this$ = -8						; size = 4
__Message$ = 8						; size = 4
___formal$ = 12						; size = 4
??0exception@std@@QAE@QBDH@Z PROC			; std::exception::exception, COMDAT
; _this$ = ecx

; 66   :     {

  00000	55		 push	 ebp
  00001	8b ec		 mov	 ebp, esp
  00003	81 ec cc 00 00
	00		 sub	 esp, 204		; 000000ccH
  00009	53		 push	 ebx
  0000a	56		 push	 esi
  0000b	57		 push	 edi
  0000c	51		 push	 ecx
  0000d	8d 7d f4	 lea	 edi, DWORD PTR [ebp-12]
  00010	b9 03 00 00 00	 mov	 ecx, 3
  00015	b8 cc cc cc cc	 mov	 eax, -858993460		; ccccccccH
  0001a	f3 ab		 rep stosd
  0001c	59		 pop	 ecx
  0001d	89 4d f8	 mov	 DWORD PTR _this$[ebp], ecx
  00020	b9 00 00 00 00	 mov	 ecx, OFFSET __B0A13A33_vcruntime_exception@h
  00025	e8 00 00 00 00	 call	 @__CheckForDebuggerJustMyCode@4
  0002a	8b 45 f8	 mov	 eax, DWORD PTR _this$[ebp]
  0002d	c7 00 00 00 00
	00		 mov	 DWORD PTR [eax], OFFSET ??_7exception@std@@6B@

; 65   :         : _Data()

  00033	33 c0		 xor	 eax, eax
  00035	8b 4d f8	 mov	 ecx, DWORD PTR _this$[ebp]
  00038	83 c1 04	 add	 ecx, 4
  0003b	89 01		 mov	 DWORD PTR [ecx], eax
  0003d	89 41 04	 mov	 DWORD PTR [ecx+4], eax

; 67   :         _Data._What = _Message;

  00040	8b 45 f8	 mov	 eax, DWORD PTR _this$[ebp]
  00043	8b 4d 08	 mov	 ecx, DWORD PTR __Message$[ebp]
  00046	89 48 04	 mov	 DWORD PTR [eax+4], ecx

; 68   :     }

  00049	8b 45 f8	 mov	 eax, DWORD PTR _this$[ebp]
  0004c	5f		 pop	 edi
  0004d	5e		 pop	 esi
  0004e	5b		 pop	 ebx
  0004f	81 c4 cc 00 00
	00		 add	 esp, 204		; 000000ccH
  00055	3b ec		 cmp	 ebp, esp
  00057	e8 00 00 00 00	 call	 __RTC_CheckEsp
  0005c	8b e5		 mov	 esp, ebp
  0005e	5d		 pop	 ebp
  0005f	c2 08 00	 ret	 8
??0exception@std@@QAE@QBDH@Z ENDP			; std::exception::exception
_TEXT	ENDS
; Function compile flags: /Odtp /RTCsu /ZI
; File C:\Program Files (x86)\Microsoft Visual Studio\2019\Community\VC\Tools\MSVC\14.29.30133\include\vcruntime_new.h
;	COMDAT ??2@YAPAXIPAX@Z
_TEXT	SEGMENT
__Size$ = 8						; size = 4
__Where$ = 12						; size = 4
??2@YAPAXIPAX@Z PROC					; operator new, COMDAT

; 167  :     {

  00000	55		 push	 ebp
  00001	8b ec		 mov	 ebp, esp
  00003	81 ec c0 00 00
	00		 sub	 esp, 192		; 000000c0H
  00009	53		 push	 ebx
  0000a	56		 push	 esi
  0000b	57		 push	 edi
  0000c	8b fd		 mov	 edi, ebp
  0000e	33 c9		 xor	 ecx, ecx
  00010	b8 cc cc cc cc	 mov	 eax, -858993460		; ccccccccH
  00015	f3 ab		 rep stosd
  00017	b9 00 00 00 00	 mov	 ecx, OFFSET __97D3638F_vcruntime_new@h
  0001c	e8 00 00 00 00	 call	 @__CheckForDebuggerJustMyCode@4

; 168  :         (void)_Size;
; 169  :         return _Where;

  00021	8b 45 0c	 mov	 eax, DWORD PTR __Where$[ebp]

; 170  :     }

  00024	5f		 pop	 edi
  00025	5e		 pop	 esi
  00026	5b		 pop	 ebx
  00027	81 c4 c0 00 00
	00		 add	 esp, 192		; 000000c0H
  0002d	3b ec		 cmp	 ebp, esp
  0002f	e8 00 00 00 00	 call	 __RTC_CheckEsp
  00034	8b e5		 mov	 esp, ebp
  00036	5d		 pop	 ebp
  00037	c3		 ret	 0
??2@YAPAXIPAX@Z ENDP					; operator new
_TEXT	ENDS
; Function compile flags: /Odtp /RTCsu /ZI
; File D:\уник\кпо\лабораторные работы\лаба 1\laba1\laba1\laba1.cpp
;	COMDAT ?__empty_global_delete@@YAXPAXI@Z
_TEXT	SEGMENT
___formal$ = 8						; size = 4
___formal$ = 12						; size = 4
?__empty_global_delete@@YAXPAXI@Z PROC			; __empty_global_delete, COMDAT

  00000	55		 push	 ebp
  00001	8b ec		 mov	 ebp, esp
  00003	81 ec c0 00 00
	00		 sub	 esp, 192		; 000000c0H
  00009	53		 push	 ebx
  0000a	56		 push	 esi
  0000b	57		 push	 edi
  0000c	8b fd		 mov	 edi, ebp
  0000e	33 c9		 xor	 ecx, ecx
  00010	b8 cc cc cc cc	 mov	 eax, -858993460		; ccccccccH
  00015	f3 ab		 rep stosd
  00017	b9 00 00 00 00	 mov	 ecx, OFFSET __92520C49_laba1@cpp
  0001c	e8 00 00 00 00	 call	 @__CheckForDebuggerJustMyCode@4
  00021	5f		 pop	 edi
  00022	5e		 pop	 esi
  00023	5b		 pop	 ebx
  00024	81 c4 c0 00 00
	00		 add	 esp, 192		; 000000c0H
  0002a	3b ec		 cmp	 ebp, esp
  0002c	e8 00 00 00 00	 call	 __RTC_CheckEsp
  00031	8b e5		 mov	 esp, ebp
  00033	5d		 pop	 ebp
  00034	c3		 ret	 0
?__empty_global_delete@@YAXPAXI@Z ENDP			; __empty_global_delete
_TEXT	ENDS
; Function compile flags: /Odtp /RTCsu /ZI
; File D:\уник\кпо\лабораторные работы\лаба 1\laba1\laba1\laba1.cpp
;	COMDAT ?__empty_global_delete@@YAXPAX@Z
_TEXT	SEGMENT
___formal$ = 8						; size = 4
?__empty_global_delete@@YAXPAX@Z PROC			; __empty_global_delete, COMDAT

  00000	55		 push	 ebp
  00001	8b ec		 mov	 ebp, esp
  00003	81 ec c0 00 00
	00		 sub	 esp, 192		; 000000c0H
  00009	53		 push	 ebx
  0000a	56		 push	 esi
  0000b	57		 push	 edi
  0000c	8b fd		 mov	 edi, ebp
  0000e	33 c9		 xor	 ecx, ecx
  00010	b8 cc cc cc cc	 mov	 eax, -858993460		; ccccccccH
  00015	f3 ab		 rep stosd
  00017	b9 00 00 00 00	 mov	 ecx, OFFSET __92520C49_laba1@cpp
  0001c	e8 00 00 00 00	 call	 @__CheckForDebuggerJustMyCode@4
  00021	5f		 pop	 edi
  00022	5e		 pop	 esi
  00023	5b		 pop	 ebx
  00024	81 c4 c0 00 00
	00		 add	 esp, 192		; 000000c0H
  0002a	3b ec		 cmp	 ebp, esp
  0002c	e8 00 00 00 00	 call	 __RTC_CheckEsp
  00031	8b e5		 mov	 esp, ebp
  00033	5d		 pop	 ebp
  00034	c3		 ret	 0
?__empty_global_delete@@YAXPAX@Z ENDP			; __empty_global_delete
_TEXT	ENDS
END
